ASxxxx Linker V03.00 + NoICE + sdld,  page 1.
Hexadecimal  [32-Bits]

Area                                    Addr        Size        Decimal Bytes (Attributes)
--------------------------------        ----        ----        ------- ----- ------------
.  .ABS.                            00000000    00000000 =           0. bytes (ABS,CON)

      Value  Global                              Global Defined In Module
      -----  --------------------------------   ------------------------
     00000000  .__.ABS.                           itoa
     00000000  _rRAMG                             
     00000000  l__BASE                         
     00000000  l__BSS                          
     00000000  l__CABS                         
     00000000  l__CODE_0                       
     00000000  l__DABS                         
     00000000  l__EMU_HEADER                   
     00000000  l__FONT_HEADER                  
     00000000  l__HEADER                       
     00000000  l__HEADER_LCD                   
     00000000  l__HEAP                         
     00000000  l__HRAM                         
     00000000  l__LIT                          
     00000000  s__CABS                         
     00000000  s__DABS                         
     00000000  s__EMU_HEADER                   
     00000000  s__EMU_HEADER0                  
     00000000  s__FONT_HEADER                  
     00000000  s__FONT_HEADER0                 
     00000000  s__HEADER                       
     00000000  s__HEADER0                      
     00000000  s__HEADER1                      
     00000000  s__HEADER10                     
     00000000  s__HEADER11                     
     00000000  s__HEADER2                      
     00000000  s__HEADER3                      
     00000000  s__HEADER4                      
     00000000  s__HEADER5                      
     00000000  s__HEADER6                      
     00000000  s__HEADER7                      
     00000000  s__HEADER8                      
     00000000  s__HEADER9                      
     00000000  s__HEADER_LCD                   
     00000000  s__HEADER_LCD0                  
     00000000  s__HEADERa                      
     00000000  s__HEADERb                      
     00000000  s__HEADERc                      
     00000000  s__HEADERd                      
     00000000  s__HEADERe                      
     00000000  s__HEADERf                      
     00000000  s__HRAM                         
     00000000  s__HRAM12                       
     00000001  l__GSFINAL                      
     00000001  l__HEADER0                      
     00000001  l__HEADER11                     
     00000001  l__HEADER9                      
     00000001  l__HEADERa                      
     00000001  l__HEADERb                      
     00000001  l__HEADERd                      
ASxxxx Linker V03.00 + NoICE + sdld,  page 2.
Hexadecimal  [32-Bits]

Area                                    Addr        Size        Decimal Bytes (Attributes)
--------------------------------        ----        ----        ------- ----- ------------
.  .ABS.                            00000000    00000000 =           0. bytes (ABS,CON)

      Value  Global                              Global Defined In Module
      -----  --------------------------------   ------------------------
     00000001  l__HEADERe                      
     00000002  l__HEADER5                      
     00000002  l__HEADERc                      
     00000002  l__HEADERf                      
     00000003  l__EMU_HEADER0                  
     00000003  l__FONT_HEADER0                 
     00000003  l__HEADER8                      
     00000003  l__HEADER_LCD0                  
     00000003  l__HRAM12                       
     00000005  l__HEADER1                      
     00000006  l__HEADER7                      
     00000007  l__HEADER2                      
     00000008  l__HEADER3                      
     0000000C  l__GSINIT                       
     0000002F  l__INITIALIZED                  
     0000002F  l__INITIALIZER                  
     00000030  l__HEADER6                      
     0000004E  l__HEADER4                      
     00000082  l__HEADER10                     
     00000138  l__CODE_2                       
     00000200  s__CODE                         
     000005C0  l__CODE_5                       
     00000671  l__CODE_1                       
     00000698  l__CODE_4                       
     00000DE3  l__HOME                         
     000010EE  l__DATA                         
     00001430  l__CODE_3                       
     00002000  _rROMB0                            
     00003000  _rROMB1                            
     00003D11  l__CODE                         
     00003F11  s__HOME                         
     00004000  _rRAMB                             
     00004CF4  s__BASE                         
     00004CF4  s__CODE_0                       
     00004CF4  s__INITIALIZER                  
     00004CF4  s__LIT                          
     00004D23  s__GSINIT                       
     00004D2F  s__GSFINAL                      
     00008000  __VRAM                             
     00008000  __VRAM8000                         
     00008800  __VRAM8800                         
     00009000  __VRAM9000                         
     00009800  __SCRN0                            
     00009C00  __SCRN1                            
     0000A000  __SRAM                             
     0000C000  __RAM                              
     0000C000  _shadow_OAM                     
     0000C0A0  s__DATA                         
     0000D000  __RAMBANK                          
     0000D18E  s__BSS                          
     0000D18E  s__INITIALIZED                  
ASxxxx Linker V03.00 + NoICE + sdld,  page 3.
Hexadecimal  [32-Bits]

Area                                    Addr        Size        Decimal Bytes (Attributes)
--------------------------------        ----        ----        ------- ----- ------------
.  .ABS.                            00000000    00000000 =           0. bytes (ABS,CON)

      Value  Global                              Global Defined In Module
      -----  --------------------------------   ------------------------
     0000D1BD  s__HEAP                         
     0000E000  .STACK                          
     0000FE00  __OAMRAM                           
     0000FF00  _P1_REG                            
     0000FF00  __IO                               
     0000FF01  _SB_REG                            
     0000FF02  _SC_REG                            
     0000FF04  _DIV_REG                           
     0000FF05  _TIMA_REG                          
     0000FF06  _TMA_REG                           
     0000FF07  _TAC_REG                           
     0000FF0F  _IF_REG                            
     0000FF10  _NR10_REG                          
     0000FF11  _NR11_REG                          
     0000FF12  _NR12_REG                          
     0000FF13  _NR13_REG                          
     0000FF14  _NR14_REG                          
     0000FF16  _NR21_REG                          
     0000FF17  _NR22_REG                          
     0000FF18  _NR23_REG                          
     0000FF19  _NR24_REG                          
     0000FF1A  _NR30_REG                          
     0000FF1B  _NR31_REG                          
     0000FF1C  _NR32_REG                          
     0000FF1D  _NR33_REG                          
     0000FF1E  _NR34_REG                          
     0000FF20  _NR41_REG                          
     0000FF21  _NR42_REG                          
     0000FF22  _NR43_REG                          
     0000FF23  _NR44_REG                          
     0000FF24  _NR50_REG                          
     0000FF25  _NR51_REG                          
     0000FF26  _NR52_REG                          
     0000FF30  _AUD3WAVE                          
     0000FF30  _PCM_SAMPLE                        
     0000FF30  __AUD3WAVERAM                      
     0000FF40  _LCDC_REG                          
     0000FF41  _STAT_REG                          
     0000FF42  _SCY_REG                           
     0000FF43  _SCX_REG                           
     0000FF44  _LY_REG                            
     0000FF45  _LYC_REG                           
     0000FF46  _DMA_REG                           
     0000FF47  _BGP_REG                           
     0000FF48  _OBP0_REG                          
     0000FF49  _OBP1_REG                          
     0000FF4A  _WY_REG                            
     0000FF4B  _WX_REG                            
     0000FF4D  _KEY1_REG                          
     0000FF4F  _VBK_REG                           
     0000FF51  _HDMA1_REG                         
ASxxxx Linker V03.00 + NoICE + sdld,  page 4.
Hexadecimal  [32-Bits]

Area                                    Addr        Size        Decimal Bytes (Attributes)
--------------------------------        ----        ----        ------- ----- ------------
.  .ABS.                            00000000    00000000 =           0. bytes (ABS,CON)

      Value  Global                              Global Defined In Module
      -----  --------------------------------   ------------------------
     0000FF52  _HDMA2_REG                         
     0000FF53  _HDMA3_REG                         
     0000FF54  _HDMA4_REG                         
     0000FF55  _HDMA5_REG                         
     0000FF56  _RP_REG                            
     0000FF68  _BCPS_REG                          
     0000FF69  _BCPD_REG                          
     0000FF6A  _OCPS_REG                          
     0000FF6B  _OCPD_REG                          
     0000FF70  _SVBK_REG                          
     0000FF76  _PCM12_REG                         
     0000FF77  _PCM34_REG                         
     0000FF80  .refresh_OAM                    
     0000FF80  __HRAM                             
     0000FFFF  _IE_REG                            
     00014000  s__CODE_1                       
     00024000  s__CODE_2                       
     00034000  s__CODE_3                       
     00044000  s__CODE_4                       
     00054000  s__CODE_5                       

ASxxxx Linker V03.00 + NoICE + sdld,  page 5.
Hexadecimal  [32-Bits]

Area                                    Addr        Size        Decimal Bytes (Attributes)
--------------------------------        ----        ----        ------- ----- ------------
_CODE                               00000200    00003D11 =       15633. bytes (REL,CON)

      Value  Global                              Global Defined In Module
      -----  --------------------------------   ------------------------
     00000200  gbt_get_pattern_ptr                
     0000021D  _gbt_play                          
     000002D8  _gbt_pause                         
     000002E4  _gbt_loop                          
     000002EB  _gbt_stop                          
     000002F6  _gbt_enable_channels               
     000002FD  _gbt_update                        
     00000402  A$sound$63                         sound
     00000402  C$sound.c$27$0_0$107               sound
     00000402  C$sound.c$28$1_0$107               sound
     00000402  G$sound_power_on$0$0               sound
     00000402  _sound_power_on                    sound
     00000404  A$sound$64                         sound
     00000406  A$sound$65                         sound
     00000409  A$sound$66                         sound
     0000040A  A$sound$70                         sound
     0000040A  C$sound.c$29$1_0$107               sound
     0000040C  A$sound$71                         sound
     0000040E  A$sound$75                         sound
     0000040E  C$sound.c$30$1_0$107               sound
     00000410  A$sound$76                         sound
     00000412  A$sound$84                         sound
     00000412  C$sound.c$31$1_0$107               sound
     00000412  XG$sound_power_on$0$0              sound
     00000413  A$sound$97                         sound
     00000413  C$sound.c$33$1_0$109               sound
     00000413  C$sound.c$36$1_0$109               sound
     00000413  G$play_laser_type$0$0              sound
     00000413  _play_laser_type                   sound
     00000415  A$sound$98                         sound
     00000416  A$sound$99                         sound
     00000417  A$sound$100                        sound
     00000419  A$sound$101                        sound
     0000041B  A$sound$102                        sound
     0000041C  A$sound$103                        sound
     0000041D  A$sound$104                        sound
     0000041F  A$sound$105                        sound
     00000421  A$sound$106                        sound
     00000422  A$sound$107                        sound
     00000424  A$sound$108                        sound
     00000426  A$sound$109                        sound
     00000427  A$sound$117                        sound
     00000427  C$sound.c$37$2_0$110               sound
     00000427  C$sound.c$38$2_0$110               sound
     0000042A  A$sound$118                        sound
     0000042C  A$sound$122                        sound
     0000042C  C$sound.c$39$2_0$110               sound
     0000042E  A$sound$123                        sound
     00000430  A$sound$127                        sound
     00000430  C$sound.c$40$2_0$110               sound
ASxxxx Linker V03.00 + NoICE + sdld,  page 6.
Hexadecimal  [32-Bits]

Area                                    Addr        Size        Decimal Bytes (Attributes)
--------------------------------        ----        ----        ------- ----- ------------
_CODE                               00000200    00003D11 =       15633. bytes (REL,CON)

      Value  Global                              Global Defined In Module
      -----  --------------------------------   ------------------------
     00000432  A$sound$128                        sound
     00000434  A$sound$132                        sound
     00000434  C$sound.c$41$2_0$110               sound
     00000437  A$sound$136                        sound
     00000437  C$sound.c$42$2_0$110               sound
     00000439  A$sound$144                        sound
     00000439  C$sound.c$44$2_0$110               sound
     00000439  C$sound.c$45$2_0$110               sound
     0000043C  A$sound$145                        sound
     0000043E  A$sound$149                        sound
     0000043E  C$sound.c$46$2_0$110               sound
     00000440  A$sound$150                        sound
     00000442  A$sound$154                        sound
     00000442  C$sound.c$47$2_0$110               sound
     00000444  A$sound$155                        sound
     00000446  A$sound$159                        sound
     00000446  C$sound.c$48$2_0$110               sound
     00000449  A$sound$163                        sound
     00000449  C$sound.c$49$2_0$110               sound
     0000044B  A$sound$171                        sound
     0000044B  C$sound.c$51$2_0$110               sound
     0000044B  C$sound.c$52$2_0$110               sound
     0000044E  A$sound$172                        sound
     00000450  A$sound$176                        sound
     00000450  C$sound.c$53$2_0$110               sound
     00000452  A$sound$177                        sound
     00000454  A$sound$181                        sound
     00000454  C$sound.c$54$2_0$110               sound
     00000456  A$sound$182                        sound
     00000458  A$sound$198                        sound
     00000458  C$sound.c$55$2_0$110               sound
     00000458  C$sound.c$56$2_0$110               sound
     00000458  C$sound.c$58$2_0$110               sound
     00000458  C$sound.c$59$2_0$110               sound
     00000458  C$sound.c$60$1_0$109               sound
     0000045B  A$sound$203                        sound
     0000045B  C$sound.c$63$1_0$109               sound
     0000045C  A$sound$204                        sound
     0000045F  A$sound$205                        sound
     00000460  A$sound$209                        sound
     00000460  C$sound.c$64$1_0$109               sound
     00000461  A$sound$210                        sound
     00000463  A$sound$211                        sound
     00000465  A$sound$212                        sound
     00000467  A$sound$213                        sound
     00000468  A$sound$221                        sound
     00000468  C$sound.c$65$1_0$109               sound
     00000468  XG$play_laser_type$0$0             sound
     00000469  A$sound$234                        sound
     00000469  C$sound.c$67$1_0$112               sound
     00000469  C$sound.c$68$1_0$112               sound
ASxxxx Linker V03.00 + NoICE + sdld,  page 7.
Hexadecimal  [32-Bits]

Area                                    Addr        Size        Decimal Bytes (Attributes)
--------------------------------        ----        ----        ------- ----- ------------
_CODE                               00000200    00003D11 =       15633. bytes (REL,CON)

      Value  Global                              Global Defined In Module
      -----  --------------------------------   ------------------------
     00000469  G$play_explosion_type$0$0          sound
     00000469  _play_explosion_type               sound
     0000046C  A$sound$235                        sound
     0000046E  A$sound$239                        sound
     0000046E  C$sound.c$70$1_0$112               sound
     00000470  A$sound$240                        sound
     00000471  A$sound$241                        sound
     00000472  A$sound$242                        sound
     00000474  A$sound$243                        sound
     00000476  A$sound$244                        sound
     00000477  A$sound$245                        sound
     00000478  A$sound$246                        sound
     0000047A  A$sound$247                        sound
     0000047C  A$sound$248                        sound
     0000047D  A$sound$249                        sound
     0000047F  A$sound$250                        sound
     00000481  A$sound$251                        sound
     00000482  A$sound$259                        sound
     00000482  C$sound.c$71$2_0$113               sound
     00000482  C$sound.c$72$2_0$113               sound
     00000485  A$sound$260                        sound
     00000487  A$sound$264                        sound
     00000487  C$sound.c$73$2_0$113               sound
     00000489  A$sound$265                        sound
     0000048B  A$sound$269                        sound
     0000048B  C$sound.c$74$2_0$113               sound
     0000048D  A$sound$277                        sound
     0000048D  C$sound.c$76$2_0$113               sound
     0000048D  C$sound.c$77$2_0$113               sound
     00000490  A$sound$278                        sound
     00000492  A$sound$282                        sound
     00000492  C$sound.c$78$2_0$113               sound
     00000494  A$sound$283                        sound
     00000496  A$sound$287                        sound
     00000496  C$sound.c$79$2_0$113               sound
     00000498  A$sound$295                        sound
     00000498  C$sound.c$81$2_0$113               sound
     00000498  C$sound.c$82$2_0$113               sound
     0000049B  A$sound$296                        sound
     0000049D  A$sound$300                        sound
     0000049D  C$sound.c$83$2_0$113               sound
     0000049F  A$sound$310                        sound
     0000049F  C$sound.c$84$2_0$113               sound
     0000049F  C$sound.c$86$2_0$113               sound
     0000049F  C$sound.c$87$1_0$112               sound
     000004A1  A$sound$315                        sound
     000004A1  C$sound.c$90$1_0$112               sound
     000004A4  A$sound$316                        sound
     000004A6  A$sound$320                        sound
     000004A6  C$sound.c$91$1_0$112               sound
     000004A8  A$sound$328                        sound
ASxxxx Linker V03.00 + NoICE + sdld,  page 8.
Hexadecimal  [32-Bits]

Area                                    Addr        Size        Decimal Bytes (Attributes)
--------------------------------        ----        ----        ------- ----- ------------
_CODE                               00000200    00003D11 =       15633. bytes (REL,CON)

      Value  Global                              Global Defined In Module
      -----  --------------------------------   ------------------------
     000004A8  C$sound.c$92$1_0$112               sound
     000004A8  XG$play_explosion_type$0$0         sound
     000004A9  A$sound$341                        sound
     000004A9  C$sound.c$94$1_0$114               sound
     000004A9  C$sound.c$96$1_0$114               sound
     000004A9  G$play_ding$0$0                    sound
     000004A9  _play_ding                         sound
     000004AC  A$sound$342                        sound
     000004AE  A$sound$346                        sound
     000004AE  C$sound.c$97$1_0$114               sound
     000004B0  A$sound$347                        sound
     000004B2  A$sound$351                        sound
     000004B2  C$sound.c$98$1_0$114               sound
     000004B4  A$sound$352                        sound
     000004B6  A$sound$356                        sound
     000004B6  C$sound.c$99$1_0$114               sound
     000004B8  A$sound$357                        sound
     000004BA  A$sound$361                        sound
     000004BA  C$sound.c$100$1_0$114              sound
     000004BC  A$sound$362                        sound
     000004BE  A$sound$370                        sound
     000004BE  C$sound.c$101$1_0$114              sound
     000004BE  XG$play_ding$0$0                   sound
     000004BF  A$sound$383                        sound
     000004BF  C$sound.c$105$1_0$116              sound
     000004BF  C$sound.c$107$1_0$116              sound
     000004BF  G$sound_request$0$0                sound
     000004BF  _sound_request                     sound
     000004C2  A$sound$384                        sound
     000004C3  A$sound$385                        sound
     000004C4  A$sound$386                        sound
     000004C6  A$sound$390                        sound
     000004C6  C$sound.c$108$1_0$116              sound
     000004C7  A$sound$391                        sound
     000004C9  A$sound$392                        sound
     000004CA  A$sound$393                        sound
     000004CB  A$sound$398                        sound
     000004CB  C$sound.c$109$2_0$117              sound
     000004CD  A$sound$399                        sound
     000004CE  A$sound$400                        sound
     000004D1  A$sound$408                        sound
     000004D1  C$sound.c$111$1_0$116              sound
     000004D1  XG$sound_request$0$0               sound
     000004D2  A$sound$421                        sound
     000004D2  C$sound.c$113$1_0$119              sound
     000004D2  C$sound.c$114$1_0$119              sound
     000004D2  G$sound_dispatch$0$0               sound
     000004D2  _sound_dispatch                    sound
     000004D5  A$sound$422                        sound
     000004D6  A$sound$423                        sound
     000004D8  A$sound$424                        sound
ASxxxx Linker V03.00 + NoICE + sdld,  page 9.
Hexadecimal  [32-Bits]

Area                                    Addr        Size        Decimal Bytes (Attributes)
--------------------------------        ----        ----        ------- ----- ------------
_CODE                               00000200    00003D11 =       15633. bytes (REL,CON)

      Value  Global                              Global Defined In Module
      -----  --------------------------------   ------------------------
     000004DB  A$sound$425                        sound
     000004DD  A$sound$426                        sound
     000004DF  A$sound$427                        sound
     000004E1  A$sound$428                        sound
     000004E3  A$sound$429                        sound
     000004E5  A$sound$430                        sound
     000004E7  A$sound$431                        sound
     000004E9  A$sound$432                        sound
     000004EB  A$sound$433                        sound
     000004ED  A$sound$441                        sound
     000004ED  C$sound.c$116$2_0$120              sound
     000004ED  C$sound.c$117$2_0$120              sound
     000004EE  A$sound$442                        sound
     000004EF  A$sound$443                        sound
     000004F0  A$sound$444                        sound
     000004F3  A$sound$445                        sound
     000004F4  A$sound$449                        sound
     000004F4  C$sound.c$118$2_0$120              sound
     000004F6  A$sound$457                        sound
     000004F6  C$sound.c$120$2_0$120              sound
     000004F6  C$sound.c$121$2_0$120              sound
     000004F8  A$sound$458                        sound
     000004F9  A$sound$459                        sound
     000004FA  A$sound$460                        sound
     000004FD  A$sound$461                        sound
     000004FE  A$sound$465                        sound
     000004FE  C$sound.c$122$2_0$120              sound
     00000500  A$sound$473                        sound
     00000500  C$sound.c$124$2_0$120              sound
     00000500  C$sound.c$125$2_0$120              sound
     00000501  A$sound$474                        sound
     00000502  A$sound$475                        sound
     00000503  A$sound$476                        sound
     00000506  A$sound$477                        sound
     00000507  A$sound$481                        sound
     00000507  C$sound.c$126$2_0$120              sound
     00000509  A$sound$489                        sound
     00000509  C$sound.c$128$2_0$120              sound
     00000509  C$sound.c$129$2_0$120              sound
     0000050B  A$sound$490                        sound
     0000050C  A$sound$491                        sound
     0000050D  A$sound$492                        sound
     00000510  A$sound$493                        sound
     00000511  A$sound$497                        sound
     00000511  C$sound.c$130$2_0$120              sound
     00000513  A$sound$505                        sound
     00000513  C$sound.c$132$2_0$120              sound
     00000513  C$sound.c$133$2_0$120              sound
     00000516  A$sound$513                        sound
     00000516  C$sound.c$138$1_0$119              sound
     00000516  C$sound.c$140$1_0$119              sound
ASxxxx Linker V03.00 + NoICE + sdld,  page 10.
Hexadecimal  [32-Bits]

Area                                    Addr        Size        Decimal Bytes (Attributes)
--------------------------------        ----        ----        ------- ----- ------------
_CODE                               00000200    00003D11 =       15633. bytes (REL,CON)

      Value  Global                              Global Defined In Module
      -----  --------------------------------   ------------------------
     00000519  A$sound$514                        sound
     0000051B  A$sound$522                        sound
     0000051B  C$sound.c$141$1_0$119              sound
     0000051B  XG$sound_dispatch$0$0              sound
     0000051C  A$global$61                        global
     0000051C  C$global.c$5$0_0$99                global
     0000051C  C$global.c$6$1_0$99                global
     0000051C  G$clear_bkg_screen$0$0             global
     0000051C  _clear_bkg_screen                  global
     0000051F  A$global$65                        global
     0000051F  C$global.c$7$1_0$99                global
     00000521  A$global$66                        global
     00000523  A$global$67                        global
     00000525  A$global$71                        global
     00000525  C$global.c$10$1_0$99               global
     00000526  A$global$72                        global
     00000527  A$global$73                        global
     00000529  A$global$74                        global
     0000052A  A$global$75                        global
     0000052C  A$global$76                        global
     0000052D  A$global$77                        global
     0000052E  A$global$78                        global
     0000052F  A$global$79                        global
     00000530  A$global$80                        global
     00000531  A$global$81                        global
     00000534  A$global$82                        global
     00000536  A$global$86                        global
     00000536  C$global.c$12$1_0$99               global
     00000537  A$global$87                        global
     00000539  A$global$91                        global
     00000539  C$global.c$13$1_0$99               global
     0000053A  A$global$92                        global
     0000053C  A$global$96                        global
     0000053C  C$global.c$15$1_0$99               global
     0000053E  A$global$97                        global
     00000540  A$global$98                        global
     00000542  A$global$102                       global
     00000542  C$global.c$16$1_0$99               global
     00000544  A$global$103                       global
     00000546  A$global$104                       global
     00000548  A$global$112                       global
     00000548  C$global.c$17$1_0$99               global
     00000548  XG$clear_bkg_screen$0$0            global
     00000549  A$global$125                       global
     00000549  C$global.c$21$1_0$102              global
     00000549  G$performantGeneralDelay$0$0       global
     00000549  _performantGeneralDelay            global
     0000054B  A$global$127                       global
     0000054C  A$global$128                       global
     0000054E  A$global$129                       global
     0000054F  A$global$130                       global
ASxxxx Linker V03.00 + NoICE + sdld,  page 11.
Hexadecimal  [32-Bits]

Area                                    Addr        Size        Decimal Bytes (Attributes)
--------------------------------        ----        ----        ------- ----- ------------
_CODE                               00000200    00003D11 =       15633. bytes (REL,CON)

      Value  Global                              Global Defined In Module
      -----  --------------------------------   ------------------------
     00000550  A$global$134                       global
     00000550  C$global.c$24$3_0$103              global
     00000553  A$global$138                       global
     00000553  C$global.c$23$2_0$102              global
     00000554  A$global$146                       global
     00000554  C$global.c$26$2_0$102              global
     00000554  XG$performantGeneralDelay$0$0      global
     00000556  A$global$159                       global
     00000556  C$global.c$29$2_0$105              global
     00000556  G$fadeout$0$0                      global
     00000556  _fadeout                           global
     00000559  A$global$161                       global
     0000055A  A$global$162                       global
     0000055C  A$global$163                       global
     0000055D  A$global$164                       global
     0000055E  A$global$165                       global
     0000055F  A$global$166                       global
     00000560  A$global$167                       global
     00000562  A$global$168                       global
     00000563  A$global$172                       global
     00000563  C$global.c$31$3_0$106              global
     00000564  A$global$173                       global
     00000565  A$global$174                       global
     00000566  A$global$175                       global
     00000568  A$global$176                       global
     00000569  A$global$177                       global
     0000056A  A$global$178                       global
     0000056B  A$global$179                       global
     0000056D  A$global$180                       global
     0000056E  A$global$181                       global
     00000570  A$global$182                       global
     00000571  A$global$183                       global
     00000573  A$global$184                       global
     00000574  A$global$185                       global
     00000576  A$global$186                       global
     00000577  A$global$187                       global
     00000579  A$global$188                       global
     0000057B  A$global$196                       global
     0000057B  C$global.c$32$4_0$107              global
     0000057B  C$global.c$33$4_0$107              global
     0000057D  A$global$197                       global
     0000057F  A$global$201                       global
     0000057F  C$global.c$34$4_0$107              global
     00000581  A$global$209                       global
     00000581  C$global.c$35$4_0$107              global
     00000581  C$global.c$36$4_0$107              global
     00000583  A$global$210                       global
     00000585  A$global$214                       global
     00000585  C$global.c$37$4_0$107              global
     00000587  A$global$222                       global
     00000587  C$global.c$38$4_0$107              global
ASxxxx Linker V03.00 + NoICE + sdld,  page 12.
Hexadecimal  [32-Bits]

Area                                    Addr        Size        Decimal Bytes (Attributes)
--------------------------------        ----        ----        ------- ----- ------------
_CODE                               00000200    00003D11 =       15633. bytes (REL,CON)

      Value  Global                              Global Defined In Module
      -----  --------------------------------   ------------------------
     00000587  C$global.c$39$4_0$107              global
     00000589  A$global$223                       global
     0000058B  A$global$227                       global
     0000058B  C$global.c$40$4_0$107              global
     0000058D  A$global$235                       global
     0000058D  C$global.c$41$4_0$107              global
     0000058D  C$global.c$42$4_0$107              global
     0000058F  A$global$236                       global
     00000591  A$global$244                       global
     00000591  C$global.c$44$3_0$106              global
     00000591  C$global.c$45$3_0$106              global
     00000592  A$global$245                       global
     00000594  A$global$246                       global
     00000595  A$global$247                       global
     00000596  A$global$248                       global
     00000599  A$global$249                       global
     0000059A  A$global$250                       global
     0000059B  A$global$254                       global
     0000059B  C$global.c$30$2_0$105              global
     0000059C  A$global$262                       global
     0000059C  C$global.c$48$2_0$105              global
     0000059C  XG$fadeout$0$0                     global
     0000059E  A$global$275                       global
     0000059E  C$global.c$51$2_0$109              global
     0000059E  G$fadein$0$0                       global
     0000059E  _fadein                            global
     000005A1  A$global$277                       global
     000005A2  A$global$278                       global
     000005A4  A$global$279                       global
     000005A5  A$global$280                       global
     000005A6  A$global$281                       global
     000005A7  A$global$282                       global
     000005A8  A$global$283                       global
     000005AA  A$global$284                       global
     000005AB  A$global$288                       global
     000005AB  C$global.c$53$3_0$110              global
     000005AC  A$global$289                       global
     000005AD  A$global$290                       global
     000005AE  A$global$291                       global
     000005B0  A$global$292                       global
     000005B1  A$global$293                       global
     000005B2  A$global$294                       global
     000005B3  A$global$295                       global
     000005B5  A$global$296                       global
     000005B6  A$global$297                       global
     000005B8  A$global$298                       global
     000005B9  A$global$299                       global
     000005BB  A$global$300                       global
     000005BD  A$global$308                       global
     000005BD  C$global.c$54$4_0$111              global
     000005BD  C$global.c$55$4_0$111              global
ASxxxx Linker V03.00 + NoICE + sdld,  page 13.
Hexadecimal  [32-Bits]

Area                                    Addr        Size        Decimal Bytes (Attributes)
--------------------------------        ----        ----        ------- ----- ------------
_CODE                               00000200    00003D11 =       15633. bytes (REL,CON)

      Value  Global                              Global Defined In Module
      -----  --------------------------------   ------------------------
     000005BF  A$global$309                       global
     000005C1  A$global$313                       global
     000005C1  C$global.c$56$4_0$111              global
     000005C3  A$global$321                       global
     000005C3  C$global.c$57$4_0$111              global
     000005C3  C$global.c$58$4_0$111              global
     000005C5  A$global$322                       global
     000005C7  A$global$326                       global
     000005C7  C$global.c$59$4_0$111              global
     000005C9  A$global$334                       global
     000005C9  C$global.c$60$4_0$111              global
     000005C9  C$global.c$61$4_0$111              global
     000005CB  A$global$335                       global
     000005CD  A$global$343                       global
     000005CD  C$global.c$63$3_0$110              global
     000005CD  C$global.c$64$3_0$110              global
     000005CE  A$global$344                       global
     000005D0  A$global$345                       global
     000005D1  A$global$346                       global
     000005D2  A$global$347                       global
     000005D5  A$global$348                       global
     000005D6  A$global$349                       global
     000005D7  A$global$353                       global
     000005D7  C$global.c$52$2_0$109              global
     000005D8  A$global$361                       global
     000005D8  C$global.c$66$2_0$109              global
     000005D8  XG$fadein$0$0                      global
     000005DA  A$splash$75                        splash
     000005DA  C$splash.c$81$0_0$130              splash
     000005DA  C$splash.c$82$1_0$130              splash
     000005DA  G$glyph_index$0$0                  splash
     000005DA  _glyph_index                       splash
     000005DC  A$splash$76                        splash
     000005DD  A$splash$77                        splash
     000005DF  A$splash$78                        splash
     000005E1  A$splash$79                        splash
     000005E3  A$splash$80                        splash
     000005E4  A$splash$81                        splash
     000005E6  A$splash$82                        splash
     000005E8  A$splash$83                        splash
     000005EA  A$splash$84                        splash
     000005EB  A$splash$85                        splash
     000005ED  A$splash$86                        splash
     000005EF  A$splash$87                        splash
     000005F1  A$splash$88                        splash
     000005F2  A$splash$89                        splash
     000005F4  A$splash$90                        splash
     000005F6  A$splash$91                        splash
     000005F8  A$splash$92                        splash
     000005F9  A$splash$93                        splash
     000005FB  A$splash$94                        splash
ASxxxx Linker V03.00 + NoICE + sdld,  page 14.
Hexadecimal  [32-Bits]

Area                                    Addr        Size        Decimal Bytes (Attributes)
--------------------------------        ----        ----        ------- ----- ------------
_CODE                               00000200    00003D11 =       15633. bytes (REL,CON)

      Value  Global                              Global Defined In Module
      -----  --------------------------------   ------------------------
     000005FD  A$splash$95                        splash
     000005FF  A$splash$96                        splash
     00000600  A$splash$97                        splash
     00000602  A$splash$98                        splash
     00000604  A$splash$99                        splash
     00000606  A$splash$100                       splash
     00000607  A$splash$101                       splash
     00000609  A$splash$102                       splash
     0000060B  A$splash$103                       splash
     0000060D  A$splash$108                       splash
     0000060D  C$splash.c$83$2_0$131              splash
     0000060F  A$splash$109                       splash
     00000610  A$splash$114                       splash
     00000610  C$splash.c$84$2_0$131              splash
     00000612  A$splash$115                       splash
     00000613  A$splash$120                       splash
     00000613  C$splash.c$85$2_0$131              splash
     00000615  A$splash$121                       splash
     00000616  A$splash$126                       splash
     00000616  C$splash.c$86$2_0$131              splash
     00000618  A$splash$127                       splash
     00000619  A$splash$132                       splash
     00000619  C$splash.c$87$2_0$131              splash
     0000061B  A$splash$133                       splash
     0000061C  A$splash$138                       splash
     0000061C  C$splash.c$88$2_0$131              splash
     0000061E  A$splash$139                       splash
     0000061F  A$splash$144                       splash
     0000061F  C$splash.c$89$2_0$131              splash
     00000621  A$splash$145                       splash
     00000622  A$splash$150                       splash
     00000622  C$splash.c$90$2_0$131              splash
     00000624  A$splash$161                       splash
     00000624  C$splash.c$91$1_0$130              splash
     00000624  C$splash.c$92$1_0$130              splash
     00000624  XG$glyph_index$0$0                 splash
     00000625  G$BY_glyph_tiles$0_0$0             splash
     00000625  _BY_glyph_tiles                    splash
     00000695  G$START_spr_tiles$0_0$0            splash
     00000695  _START_spr_tiles                   splash
     000006E5  A$splash$367                       splash
     000006E5  C$splash.c$94$1_0$133              splash
     000006E5  G$place_start_sprites$0$0          splash
     000006E5  _place_start_sprites               splash
     000006E6  A$splash$368                       splash
     000006E7  A$splash$372                       splash
     000006E7  C$splash.c$97$1_0$133              splash
     000006EA  A$splash$373                       splash
     000006EB  A$splash$374                       splash
     000006EE  A$splash$375                       splash
     000006EF  A$splash$376                       splash
ASxxxx Linker V03.00 + NoICE + sdld,  page 15.
Hexadecimal  [32-Bits]

Area                                    Addr        Size        Decimal Bytes (Attributes)
--------------------------------        ----        ----        ------- ----- ------------
_CODE                               00000200    00003D11 =       15633. bytes (REL,CON)

      Value  Global                              Global Defined In Module
      -----  --------------------------------   ------------------------
     000006F2  A$splash$377                       splash
     000006F4  A$splash$379                       splash
     000006F6  A$splash$380                       splash
     000006F7  A$splash$381                       splash
     000006F9  A$splash$382                       splash
     000006FA  A$splash$383                       splash
     000006FC  A$splash$386                       splash
     000006FD  A$splash$387                       splash
     000006FF  A$splash$388                       splash
     00000701  A$splash$389                       splash
     00000703  A$splash$390                       splash
     00000704  A$splash$392                       splash
     00000705  A$splash$395                       splash
     00000707  A$splash$398                       splash
     00000708  A$splash$399                       splash
     00000709  A$splash$400                       splash
     0000070A  A$splash$401                       splash
     0000070B  A$splash$402                       splash
     0000070E  A$splash$403                       splash
     0000070F  A$splash$404                       splash
     00000710  A$splash$405                       splash
     00000711  A$splash$407                       splash
     00000714  A$splash$408                       splash
     00000715  A$splash$409                       splash
     00000716  A$splash$410                       splash
     00000717  A$splash$411                       splash
     00000719  A$splash$413                       splash
     0000071A  A$splash$414                       splash
     0000071B  A$splash$415                       splash
     0000071C  A$splash$416                       splash
     0000071D  A$splash$417                       splash
     0000071F  A$splash$418                       splash
     00000720  A$splash$419                       splash
     00000721  A$splash$420                       splash
     00000723  A$splash$421                       splash
     00000724  A$splash$423                       splash
     00000727  A$splash$424                       splash
     00000728  A$splash$427                       splash
     0000072A  A$splash$430                       splash
     0000072B  A$splash$431                       splash
     0000072C  A$splash$432                       splash
     0000072D  A$splash$433                       splash
     0000072E  A$splash$434                       splash
     0000072F  A$splash$436                       splash
     00000731  A$splash$437                       splash
     00000732  A$splash$438                       splash
     00000733  A$splash$439                       splash
     00000734  A$splash$440                       splash
     00000735  A$splash$441                       splash
     00000736  A$splash$445                       splash
     00000736  C$splash.c$101$2_0$134             splash
ASxxxx Linker V03.00 + NoICE + sdld,  page 16.
Hexadecimal  [32-Bits]

Area                                    Addr        Size        Decimal Bytes (Attributes)
--------------------------------        ----        ----        ------- ----- ------------
_CODE                               00000200    00003D11 =       15633. bytes (REL,CON)

      Value  Global                              Global Defined In Module
      -----  --------------------------------   ------------------------
     00000737  A$splash$446                       splash
     00000739  A$splash$451                       splash
     0000073A  A$splash$452                       splash
     0000073B  A$splash$457                       splash
     0000073B  C$splash.c$106$2_0$133             splash
     0000073B  XG$place_start_sprites$0$0         splash
     0000073C  A$splash$467                       splash
     0000073C  C$splash.c$108$2_0$146             splash
     0000073C  G$place_text_sprites$0$0           splash
     0000073C  _place_text_sprites                splash
     0000073E  A$splash$471                       splash
     0000073E  C$splash.c$111$1_0$146             splash
     00000741  A$splash$472                       splash
     00000742  A$splash$473                       splash
     00000745  A$splash$474                       splash
     00000746  A$splash$475                       splash
     00000749  A$splash$476                       splash
     0000074B  A$splash$480                       splash
     0000074B  C$splash.c$114$2_0$148             splash
     0000074D  A$splash$481                       splash
     0000074E  A$splash$482                       splash
     00000750  A$splash$483                       splash
     00000751  A$splash$487                       splash
     00000751  C$splash.c$115$2_0$148             splash
     00000753  A$splash$488                       splash
     00000754  A$splash$489                       splash
     00000756  A$splash$490                       splash
     00000757  A$splash$494                       splash
     00000757  C$splash.c$117$3_1$148             splash
     00000759  A$splash$495                       splash
     0000075A  A$splash$496                       splash
     0000075B  A$splash$497                       splash
     0000075C  A$splash$498                       splash
     0000075E  A$splash$499                       splash
     0000075F  A$splash$500                       splash
     00000761  A$splash$501                       splash
     00000762  A$splash$503                       splash
     00000763  A$splash$504                       splash
     00000764  A$splash$505                       splash
     00000765  A$splash$506                       splash
     00000767  A$splash$510                       splash
     00000767  C$splash.c$118$3_1$149             splash
     00000768  A$splash$511                       splash
     00000769  A$splash$512                       splash
     0000076A  A$splash$513                       splash
     0000076D  A$splash$514                       splash
     0000076E  A$splash$515                       splash
     0000076F  A$splash$516                       splash
     00000770  A$splash$520                       splash
     00000770  C$splash.c$119$3_1$149             splash
     00000771  A$splash$521                       splash
ASxxxx Linker V03.00 + NoICE + sdld,  page 17.
Hexadecimal  [32-Bits]

Area                                    Addr        Size        Decimal Bytes (Attributes)
--------------------------------        ----        ----        ------- ----- ------------
_CODE                               00000200    00003D11 =       15633. bytes (REL,CON)

      Value  Global                              Global Defined In Module
      -----  --------------------------------   ------------------------
     00000773  A$splash$522                       splash
     00000775  A$splash$524                       splash
     00000776  A$splash$525                       splash
     00000778  A$splash$526                       splash
     00000779  A$splash$528                       splash
     0000077B  A$splash$529                       splash
     0000077C  A$splash$530                       splash
     0000077E  A$splash$531                       splash
     0000077F  A$splash$532                       splash
     00000780  A$splash$533                       splash
     00000781  A$splash$534                       splash
     00000784  A$splash$535                       splash
     00000785  A$splash$536                       splash
     00000786  A$splash$537                       splash
     00000787  A$splash$538                       splash
     00000788  A$splash$539                       splash
     00000789  A$splash$541                       splash
     0000078C  A$splash$542                       splash
     0000078E  A$splash$543                       splash
     00000790  A$splash$544                       splash
     00000793  A$splash$545                       splash
     00000795  A$splash$547                       splash
     00000798  A$splash$549                       splash
     0000079A  A$splash$550                       splash
     0000079B  A$splash$552                       splash
     0000079D  A$splash$553                       splash
     0000079E  A$splash$554                       splash
     0000079F  A$splash$555                       splash
     000007A1  A$splash$556                       splash
     000007A2  A$splash$557                       splash
     000007A4  A$splash$558                       splash
     000007A5  A$splash$559                       splash
     000007A7  A$splash$560                       splash
     000007A8  A$splash$561                       splash
     000007A9  A$splash$562                       splash
     000007AA  A$splash$563                       splash
     000007AD  A$splash$564                       splash
     000007AE  A$splash$565                       splash
     000007AF  A$splash$566                       splash
     000007B0  A$splash$567                       splash
     000007B1  A$splash$568                       splash
     000007B2  A$splash$569                       splash
     000007B3  A$splash$570                       splash
     000007B4  A$splash$571                       splash
     000007B5  A$splash$572                       splash
     000007B6  A$splash$573                       splash
     000007B7  A$splash$574                       splash
     000007B9  A$splash$576                       splash
     000007BA  A$splash$577                       splash
     000007BB  A$splash$578                       splash
     000007BE  A$splash$579                       splash
ASxxxx Linker V03.00 + NoICE + sdld,  page 18.
Hexadecimal  [32-Bits]

Area                                    Addr        Size        Decimal Bytes (Attributes)
--------------------------------        ----        ----        ------- ----- ------------
_CODE                               00000200    00003D11 =       15633. bytes (REL,CON)

      Value  Global                              Global Defined In Module
      -----  --------------------------------   ------------------------
     000007BF  A$splash$580                       splash
     000007C0  A$splash$581                       splash
     000007C1  A$splash$582                       splash
     000007C2  A$splash$583                       splash
     000007C3  A$splash$584                       splash
     000007C4  A$splash$586                       splash
     000007C6  A$splash$587                       splash
     000007C7  A$splash$588                       splash
     000007C8  A$splash$589                       splash
     000007C9  A$splash$590                       splash
     000007CA  A$splash$591                       splash
     000007CB  A$splash$595                       splash
     000007CB  C$splash.c$123$4_1$150             splash
     000007CD  A$splash$596                       splash
     000007CE  A$splash$601                       splash
     000007CE  C$splash.c$125$3_1$149             splash
     000007D0  A$splash$602                       splash
     000007D1  A$splash$603                       splash
     000007D3  A$splash$604                       splash
     000007D4  A$splash$608                       splash
     000007D4  C$splash.c$117$2_1$148             splash
     000007D5  A$splash$609                       splash
     000007D7  A$splash$614                       splash
     000007D9  A$splash$619                       splash
     000007D9  C$splash.c$127$2_1$146             splash
     000007D9  XG$place_text_sprites$0$0          splash
     000007DA  A$splash$632                       splash
     000007DA  C$splash.c$130$2_1$162             splash
     000007DA  G$hide_start_sprites$0$0           splash
     000007DA  _hide_start_sprites                splash
     000007DC  A$splash$634                       splash
     000007DD  A$splash$635                       splash
     000007DF  A$splash$636                       splash
     000007E0  A$splash$638                       splash
     000007E3  A$splash$639                       splash
     000007E4  A$splash$642                       splash
     000007E6  A$splash$645                       splash
     000007E7  A$splash$646                       splash
     000007E8  A$splash$647                       splash
     000007E9  A$splash$649                       splash
     000007EA  A$splash$650                       splash
     000007EB  A$splash$651                       splash
     000007EC  A$splash$655                       splash
     000007EC  C$splash.c$132$2_0$162             splash
     000007ED  A$splash$663                       splash
     000007ED  C$splash.c$133$2_0$162             splash
     000007ED  XG$hide_start_sprites$0$0          splash
     000007EF  A$splash$676                       splash
     000007EF  C$splash.c$135$2_0$168             splash
     000007EF  G$hide_all_start_sprites$0$0       splash
     000007EF  _hide_all_start_sprites            splash
ASxxxx Linker V03.00 + NoICE + sdld,  page 19.
Hexadecimal  [32-Bits]

Area                                    Addr        Size        Decimal Bytes (Attributes)
--------------------------------        ----        ----        ------- ----- ------------
_CODE                               00000200    00003D11 =       15633. bytes (REL,CON)

      Value  Global                              Global Defined In Module
      -----  --------------------------------   ------------------------
     000007F1  A$splash$678                       splash
     000007F2  A$splash$679                       splash
     000007F4  A$splash$680                       splash
     000007F5  A$splash$682                       splash
     000007F8  A$splash$683                       splash
     000007F9  A$splash$686                       splash
     000007FB  A$splash$689                       splash
     000007FC  A$splash$690                       splash
     000007FD  A$splash$691                       splash
     000007FE  A$splash$693                       splash
     000007FF  A$splash$694                       splash
     00000800  A$splash$695                       splash
     00000801  A$splash$699                       splash
     00000801  C$splash.c$137$2_0$168             splash
     00000802  A$splash$707                       splash
     00000802  C$splash.c$138$2_0$168             splash
     00000802  XG$hide_all_start_sprites$0$0      splash
     00000804  A$splash$717                       splash
     00000804  C$splash.c$140$2_0$174             splash
     00000804  G$show_start_sprites$0$0           splash
     00000804  _show_start_sprites                splash
     00000805  A$splash$719                       splash
     00000807  A$splash$720                       splash
     00000808  A$splash$721                       splash
     0000080A  A$splash$723                       splash
     0000080B  A$splash$724                       splash
     0000080D  A$splash$725                       splash
     0000080F  A$splash$726                       splash
     00000810  A$splash$727                       splash
     00000811  A$splash$728                       splash
     00000812  A$splash$729                       splash
     00000814  A$splash$730                       splash
     00000815  A$splash$731                       splash
     00000816  A$splash$732                       splash
     00000818  A$splash$733                       splash
     00000819  A$splash$735                       splash
     0000081C  A$splash$736                       splash
     0000081D  A$splash$739                       splash
     0000081F  A$splash$742                       splash
     00000820  A$splash$743                       splash
     00000821  A$splash$744                       splash
     00000822  A$splash$745                       splash
     00000823  A$splash$746                       splash
     00000824  A$splash$748                       splash
     00000825  A$splash$749                       splash
     00000826  A$splash$750                       splash
     00000827  A$splash$751                       splash
     00000829  A$splash$752                       splash
     0000082A  A$splash$753                       splash
     0000082B  A$splash$757                       splash
     0000082B  C$splash.c$141$2_0$174             splash
ASxxxx Linker V03.00 + NoICE + sdld,  page 20.
Hexadecimal  [32-Bits]

Area                                    Addr        Size        Decimal Bytes (Attributes)
--------------------------------        ----        ----        ------- ----- ------------
_CODE                               00000200    00003D11 =       15633. bytes (REL,CON)

      Value  Global                              Global Defined In Module
      -----  --------------------------------   ------------------------
     0000082C  A$splash$758                       splash
     0000082E  A$splash$763                       splash
     0000082F  A$splash$768                       splash
     0000082F  C$splash.c$142$2_0$174             splash
     0000082F  XG$show_start_sprites$0$0          splash
     00000830  A$splash$781                       splash
     00000830  C$splash.c$155$2_0$179             splash
     00000830  C$splash.c$157$1_0$179             splash
     00000830  G$processSplash$0$0                splash
     00000830  _processSplash                     splash
     00000833  A$splash$785                       splash
     00000833  C$splash.c$158$1_0$179             splash
     00000835  A$splash$786                       splash
     00000837  A$splash$787                       splash
     00000839  A$splash$791                       splash
     00000839  C$splash.c$159$1_0$179             splash
     0000083B  A$splash$792                       splash
     0000083D  A$splash$793                       splash
     0000083F  A$splash$797                       splash
     0000083F  C$splash.c$160$1_0$179             splash
     00000841  A$splash$798                       splash
     00000843  A$splash$799                       splash
     00000845  A$splash$803                       splash
     00000845  C$splash.c$162$1_0$179             splash
     00000846  A$splash$804                       splash
     00000848  A$splash$808                       splash
     00000848  C$splash.c$163$1_0$179             splash
     00000849  A$splash$809                       splash
     0000084B  A$splash$813                       splash
     0000084B  C$splash.c$165$1_0$179             splash
     0000084D  A$splash$814                       splash
     0000084F  A$splash$815                       splash
     00000852  A$splash$816                       splash
     00000854  A$splash$820                       splash
     00000854  C$splash.c$166$1_0$179             splash
     00000857  A$splash$821                       splash
     00000858  A$splash$822                       splash
     0000085B  A$splash$823                       splash
     0000085C  A$splash$824                       splash
     0000085F  A$splash$825                       splash
     00000861  A$splash$829                       splash
     00000861  C$splash.c$167$1_0$179             splash
     00000864  A$splash$830                       splash
     00000865  A$splash$831                       splash
     00000868  A$splash$832                       splash
     00000869  A$splash$833                       splash
     0000086A  A$splash$834                       splash
     0000086B  A$splash$835                       splash
     0000086C  A$splash$836                       splash
     0000086F  A$splash$837                       splash
     00000871  A$splash$841                       splash
ASxxxx Linker V03.00 + NoICE + sdld,  page 21.
Hexadecimal  [32-Bits]

Area                                    Addr        Size        Decimal Bytes (Attributes)
--------------------------------        ----        ----        ------- ----- ------------
_CODE                               00000200    00003D11 =       15633. bytes (REL,CON)

      Value  Global                              Global Defined In Module
      -----  --------------------------------   ------------------------
     00000871  C$splash.c$168$1_0$179             splash
     00000873  A$splash$842                       splash
     00000875  A$splash$843                       splash
     00000878  A$splash$844                       splash
     0000087A  A$splash$848                       splash
     0000087A  C$splash.c$170$1_0$179             splash
     0000087C  A$splash$849                       splash
     0000087E  A$splash$853                       splash
     0000087E  C$splash.c$171$1_0$179             splash
     00000880  A$splash$854                       splash
     00000882  A$splash$858                       splash
     00000882  C$splash.c$174$1_0$179             splash
     00000884  A$splash$859                       splash
     00000886  A$splash$863                       splash
     00000886  C$splash.c$175$1_0$179             splash
     00000888  A$splash$864                       splash
     0000088A  A$splash$868                       splash
     0000088A  C$splash.c$176$1_0$179             splash
     0000088C  A$splash$869                       splash
     0000088E  A$splash$871                       splash
     0000088F  A$splash$875                       splash
     0000088F  C$splash.c$192$1_0$179             splash
     00000892  A$splash$876                       splash
     00000893  A$splash$877                       splash
     00000896  A$splash$878                       splash
     00000897  A$splash$879                       splash
     0000089A  A$splash$880                       splash
     0000089C  A$splash$884                       splash
     0000089C  C$splash.c$193$1_0$179             splash
     0000089E  A$splash$885                       splash
     0000089F  A$splash$886                       splash
     000008A0  A$splash$887                       splash
     000008A3  A$splash$888                       splash
     000008A4  A$splash$892                       splash
     000008A4  C$splash.c$194$1_0$179             splash
     000008A6  A$splash$893                       splash
     000008A7  A$splash$894                       splash
     000008A8  A$splash$895                       splash
     000008AB  A$splash$896                       splash
     000008AC  A$splash$898                       splash
     000008AD  A$splash$902                       splash
     000008AD  C$splash.c$199$1_0$179             splash
     000008AF  A$splash$903                       splash
     000008B1  A$splash$904                       splash
     000008B3  A$splash$908                       splash
     000008B3  C$splash.c$200$1_0$179             splash
     000008B5  A$splash$909                       splash
     000008B7  A$splash$910                       splash
     000008B9  A$splash$914                       splash
     000008B9  C$splash.c$201$1_0$179             splash
     000008BB  A$splash$915                       splash
ASxxxx Linker V03.00 + NoICE + sdld,  page 22.
Hexadecimal  [32-Bits]

Area                                    Addr        Size        Decimal Bytes (Attributes)
--------------------------------        ----        ----        ------- ----- ------------
_CODE                               00000200    00003D11 =       15633. bytes (REL,CON)

      Value  Global                              Global Defined In Module
      -----  --------------------------------   ------------------------
     000008BD  A$splash$916                       splash
     000008BF  A$splash$920                       splash
     000008BF  C$splash.c$202$1_0$179             splash
     000008C1  A$splash$921                       splash
     000008C3  A$splash$922                       splash
     000008C5  A$splash$926                       splash
     000008C5  C$splash.c$206$1_1$180             splash
     000008C8  A$splash$927                       splash
     000008C9  A$splash$928                       splash
     000008CC  A$splash$929                       splash
     000008CD  A$splash$933                       splash
     000008CD  C$splash.c$207$1_1$180             splash
     000008D0  A$splash$934                       splash
     000008D1  A$splash$935                       splash
     000008D3  A$splash$936                       splash
     000008D4  A$splash$937                       splash
     000008D5  A$splash$938                       splash
     000008D8  A$splash$939                       splash
     000008D9  A$splash$940                       splash
     000008DC  A$splash$941                       splash
     000008DE  A$splash$945                       splash
     000008DE  C$splash.c$209$2_1$181             splash
     000008E1  A$splash$949                       splash
     000008E1  C$splash.c$210$2_1$181             splash
     000008E3  A$splash$954                       splash
     000008E3  C$splash.c$212$1_2$181             splash
     000008E4  A$splash$955                       splash
     000008E5  A$splash$956                       splash
     000008E8  A$splash$960                       splash
     000008E8  C$splash.c$213$2_2$182             splash
     000008EB  A$splash$964                       splash
     000008EB  C$splash.c$215$2_2$182             splash
     000008EC  A$splash$968                       splash
     000008EC  C$splash.c$216$2_2$182             splash
     000008ED  A$splash$969                       splash
     000008EF  A$splash$970                       splash
     000008F1  A$splash$974                       splash
     000008F1  C$splash.c$217$3_2$183             splash
     000008F3  A$splash$978                       splash
     000008F3  C$splash.c$218$3_2$183             splash
     000008F4  A$splash$979                       splash
     000008F6  A$splash$980                       splash
     000008F8  A$splash$981                       splash
     000008F9  A$splash$982                       splash
     000008FA  A$splash$986                       splash
     000008FA  C$splash.c$219$3_2$183             splash
     000008FB  A$splash$987                       splash
     000008FD  A$splash$988                       splash
     000008FE  A$splash$989                       splash
     000008FF  A$splash$990                       splash
     00000902  A$splash$991                       splash
ASxxxx Linker V03.00 + NoICE + sdld,  page 23.
Hexadecimal  [32-Bits]

Area                                    Addr        Size        Decimal Bytes (Attributes)
--------------------------------        ----        ----        ------- ----- ------------
_CODE                               00000200    00003D11 =       15633. bytes (REL,CON)

      Value  Global                              Global Defined In Module
      -----  --------------------------------   ------------------------
     00000903  A$splash$992                       splash
     00000906  A$splash$993                       splash
     00000907  A$splash$994                       splash
     00000908  A$splash$995                       splash
     00000909  A$splash$996                       splash
     0000090B  A$splash$1001                      splash
     0000090B  C$splash.c$220$3_2$183             splash
     0000090C  A$splash$1002                      splash
     0000090D  A$splash$1003                      splash
     00000910  A$splash$1004                      splash
     00000911  A$splash$1005                      splash
     00000912  A$splash$1010                      splash
     00000912  C$splash.c$223$2_2$182             splash
     00000913  A$splash$1011                      splash
     00000916  A$splash$1012                      splash
     00000917  A$splash$1013                      splash
     00000918  A$splash$1014                      splash
     00000919  A$splash$1015                      splash
     0000091B  A$splash$1016                      splash
     0000091D  A$splash$1027                      splash
     0000091D  C$splash.c$246$1_2$181             splash
     0000091D  C$splash.c$247$1_2$179             splash
     0000091D  XG$processSplash$0$0               splash
     0000091F  Fsplash$__str_0$0_0$0              splash
     00000927  A$main$62                          main
     00000927  C$main.c$61$0_0$104                main
     00000927  C$main.c$62$1_0$104                main
     00000927  C$main.c$63$2_0$105                main
     00000927  G$main$0$0                         main
     00000927  _main                              main
     0000092A  A$main$66                          main
     0000092A  C$main.c$64$2_0$105                main
     0000092D  A$main$70                          main
     0000092D  C$main.c$65$2_0$105                main
     00000930  A$main$78                          main
     00000930  C$main.c$67$1_0$104                main
     00000930  XG$main$0$0                        main
     00000932  A$game$75                          game
     00000932  C$game.c$12$0_0$134                game
     00000932  G$run$0$0                          game
     00000932  _run                               game
     00000934  A$game$79                          game
     00000934  C$game.c$15$2_0$134                game
     00000936  A$game$83                          game
     00000936  C$game.c$17$2_0$134                game
     00000937  A$game$84                          game
     00000938  A$game$88                          game
     00000938  C$game.c$19$2_0$134                game
     00000939  A$game$89                          game
     0000093A  A$game$90                          game
     0000093B  A$game$94                          game
ASxxxx Linker V03.00 + NoICE + sdld,  page 24.
Hexadecimal  [32-Bits]

Area                                    Addr        Size        Decimal Bytes (Attributes)
--------------------------------        ----        ----        ------- ----- ------------
_CODE                               00000200    00003D11 =       15633. bytes (REL,CON)

      Value  Global                              Global Defined In Module
      -----  --------------------------------   ------------------------
     0000093B  C$game.c$21$1_0$134                game
     0000093E  A$game$98                          game
     0000093E  C$game.c$22$1_0$134                game
     00000941  A$game$102                         game
     00000941  C$game.c$23$1_0$134                game
     00000944  A$game$106                         game
     00000944  C$game.c$28$1_0$134                game
     00000947  A$game$110                         game
     00000947  C$game.c$29$1_0$134                game
     0000094A  A$game$111                         game
     0000094B  A$game$112                         game
     0000094E  A$game$113                         game
     0000094F  A$game$117                         game
     0000094F  C$game.c$30$1_0$134                game
     00000952  A$game$118                         game
     00000953  A$game$119                         game
     00000956  A$game$120                         game
     00000957  A$game$124                         game
     00000957  C$game.c$32$1_1$135                game
     00000958  A$game$125                         game
     00000959  A$game$126                         game
     0000095A  A$game$127                         game
     0000095D  A$game$128                         game
     0000095E  A$game$129                         game
     0000095F  A$game$130                         game
     00000960  A$game$134                         game
     00000960  C$game.c$34$1_1$135                game
     00000962  A$game$135                         game
     00000964  A$game$139                         game
     00000964  C$game.c$37$1_1$135                game
     00000965  A$game$140                         game
     00000968  A$game$141                         game
     00000969  A$game$145                         game
     00000969  C$game.c$40$2_1$136                game
     0000096C  A$game$146                         game
     0000096D  A$game$147                         game
     0000096E  A$game$148                         game
     0000096F  A$game$149                         game
     00000971  A$game$150                         game
     00000972  A$game$151                         game
     00000973  A$game$152                         game
     00000974  A$game$153                         game
     00000976  A$game$154                         game
     00000977  A$game$155                         game
     0000097A  A$game$156                         game
     0000097B  A$game$157                         game
     0000097C  A$game$158                         game
     0000097D  A$game$159                         game
     0000097F  A$game$160                         game
     00000980  A$game$161                         game
     00000981  A$game$162                         game
ASxxxx Linker V03.00 + NoICE + sdld,  page 25.
Hexadecimal  [32-Bits]

Area                                    Addr        Size        Decimal Bytes (Attributes)
--------------------------------        ----        ----        ------- ----- ------------
_CODE                               00000200    00003D11 =       15633. bytes (REL,CON)

      Value  Global                              Global Defined In Module
      -----  --------------------------------   ------------------------
     00000982  A$game$163                         game
     00000984  A$game$164                         game
     00000985  A$game$165                         game
     00000988  A$game$166                         game
     00000989  A$game$167                         game
     0000098A  A$game$168                         game
     0000098B  A$game$169                         game
     0000098D  A$game$170                         game
     0000098E  A$game$171                         game
     0000098F  A$game$172                         game
     00000990  A$game$173                         game
     00000992  A$game$174                         game
     00000993  A$game$176                         game
     00000995  A$game$177                         game
     00000996  A$game$178                         game
     00000997  A$game$179                         game
     00000999  A$game$180                         game
     0000099A  A$game$181                         game
     0000099B  A$game$182                         game
     0000099C  A$game$183                         game
     0000099E  A$game$184                         game
     0000099F  A$game$185                         game
     000009A0  A$game$186                         game
     000009A1  A$game$187                         game
     000009A3  A$game$191                         game
     000009A3  C$game.c$42$2_1$136                game
     000009A6  A$game$195                         game
     000009A6  C$game.c$46$2_1$136                game
     000009A9  A$game$196                         game
     000009AA  A$game$197                         game
     000009AD  A$game$198                         game
     000009AE  A$game$199                         game
     000009AF  A$game$200                         game
     000009B1  A$game$201                         game
     000009B2  A$game$205                         game
     000009B2  C$game.c$48$2_1$136                game
     000009B3  A$game$206                         game
     000009B5  A$game$210                         game
     000009B5  C$game.c$50$3_1$137                game
     000009B8  A$game$211                         game
     000009B9  A$game$212                         game
     000009BC  A$game$213                         game
     000009BD  A$game$214                         game
     000009BE  A$game$215                         game
     000009BF  A$game$216                         game
     000009C1  A$game$220                         game
     000009C1  C$game.c$52$4_1$138                game
     000009C4  A$game$221                         game
     000009C6  A$game$226                         game
     000009C6  C$game.c$55$4_1$139                game
     000009C8  A$game$227                         game
ASxxxx Linker V03.00 + NoICE + sdld,  page 26.
Hexadecimal  [32-Bits]

Area                                    Addr        Size        Decimal Bytes (Attributes)
--------------------------------        ----        ----        ------- ----- ------------
_CODE                               00000200    00003D11 =       15633. bytes (REL,CON)

      Value  Global                              Global Defined In Module
      -----  --------------------------------   ------------------------
     000009C9  A$game$228                         game
     000009CA  A$game$229                         game
     000009CC  A$game$230                         game
     000009CE  A$game$234                         game
     000009CE  C$game.c$56$5_1$140                game
     000009D0  A$game$235                         game
     000009D2  A$game$239                         game
     000009D2  C$game.c$57$5_1$140                game
     000009D5  A$game$244                         game
     000009D5  C$game.c$65$3_1$137                game
     000009D8  A$game$245                         game
     000009D9  A$game$246                         game
     000009DC  A$game$247                         game
     000009DD  A$game$251                         game
     000009DD  C$game.c$69$3_1$137                game
     000009E0  A$game$255                         game
     000009E0  C$game.c$72$3_1$137                game
     000009E3  A$game$256                         game
     000009E4  A$game$257                         game
     000009E6  A$game$258                         game
     000009E7  A$game$262                         game
     000009E7  C$game.c$74$3_1$137                game
     000009E8  A$game$263                         game
     000009EA  A$game$267                         game
     000009EA  C$game.c$76$4_1$141                game
     000009ED  A$game$268                         game
     000009EF  A$game$269                         game
     000009F0  A$game$274                         game
     000009F0  C$game.c$80$2_1$136                game
     000009F3  A$game$278                         game
     000009F3  C$game.c$82$2_1$136                game
     000009F5  A$game$279                         game
     000009F6  A$game$280                         game
     000009F7  A$game$281                         game
     000009F8  A$game$282                         game
     000009F9  A$game$283                         game
     000009FA  A$game$284                         game
     000009FB  A$game$285                         game
     000009FC  A$game$286                         game
     000009FD  A$game$287                         game
     000009FE  A$game$288                         game
     000009FF  A$game$289                         game
     00000A00  A$game$290                         game
     00000A01  A$game$291                         game
     00000A02  A$game$292                         game
     00000A03  A$game$293                         game
     00000A04  A$game$294                         game
     00000A05  A$game$295                         game
     00000A06  A$game$298                         game
     00000A07  A$game$299                         game
     00000A08  A$game$300                         game
ASxxxx Linker V03.00 + NoICE + sdld,  page 27.
Hexadecimal  [32-Bits]

Area                                    Addr        Size        Decimal Bytes (Attributes)
--------------------------------        ----        ----        ------- ----- ------------
_CODE                               00000200    00003D11 =       15633. bytes (REL,CON)

      Value  Global                              Global Defined In Module
      -----  --------------------------------   ------------------------
     00000A09  A$game$301                         game
     00000A0A  A$game$302                         game
     00000A0D  A$game$303                         game
     00000A0F  A$game$304                         game
     00000A11  A$game$309                         game
     00000A11  C$game.c$86$1_1$135                game
     00000A14  A$game$313                         game
     00000A14  C$game.c$88$1_1$135                game
     00000A17  A$game$317                         game
     00000A17  C$game.c$89$1_1$135                game
     00000A1A  A$game$321                         game
     00000A1C  A$game$326                         game
     00000A1C  C$game.c$90$1_1$134                game
     00000A1C  XG$run$0$0                         game
     00000A1D  A$captions$64                      captions
     00000A1D  C$captions.c$102$1_0$114           captions
     00000A1D  C$captions.c$96$0_0$114            captions
     00000A1D  G$show_level_one_msg$0$0           captions
     00000A1D  _show_level_one_msg                captions
     00000A20  A$captions$65                      captions
     00000A21  A$captions$66                      captions
     00000A24  A$captions$67                      captions
     00000A25  A$captions$68                      captions
     00000A28  A$captions$69                      captions
     00000A2A  A$captions$73                      captions
     00000A2A  C$captions.c$105$2_0$114           captions
     00000A2C  A$captions$76                      captions
     00000A2D  A$captions$77                      captions
     00000A2F  A$captions$78                      captions
     00000A30  A$captions$79                      captions
     00000A32  A$captions$80                      captions
     00000A33  A$captions$82                      captions
     00000A34  A$captions$85                      captions
     00000A36  A$captions$88                      captions
     00000A37  A$captions$89                      captions
     00000A38  A$captions$90                      captions
     00000A39  A$captions$91                      captions
     00000A3A  A$captions$92                      captions
     00000A3D  A$captions$93                      captions
     00000A3E  A$captions$94                      captions
     00000A3F  A$captions$95                      captions
     00000A40  A$captions$97                      captions
     00000A43  A$captions$98                      captions
     00000A44  A$captions$99                      captions
     00000A45  A$captions$100                     captions
     00000A46  A$captions$101                     captions
     00000A48  A$captions$103                     captions
     00000A49  A$captions$104                     captions
     00000A4A  A$captions$105                     captions
     00000A4B  A$captions$106                     captions
     00000A4C  A$captions$107                     captions
ASxxxx Linker V03.00 + NoICE + sdld,  page 28.
Hexadecimal  [32-Bits]

Area                                    Addr        Size        Decimal Bytes (Attributes)
--------------------------------        ----        ----        ------- ----- ------------
_CODE                               00000200    00003D11 =       15633. bytes (REL,CON)

      Value  Global                              Global Defined In Module
      -----  --------------------------------   ------------------------
     00000A4E  A$captions$108                     captions
     00000A50  A$captions$109                     captions
     00000A51  A$captions$111                     captions
     00000A52  A$captions$114                     captions
     00000A54  A$captions$117                     captions
     00000A55  A$captions$118                     captions
     00000A56  A$captions$119                     captions
     00000A57  A$captions$120                     captions
     00000A5A  A$captions$121                     captions
     00000A5B  A$captions$122                     captions
     00000A5C  A$captions$124                     captions
     00000A5E  A$captions$125                     captions
     00000A5F  A$captions$126                     captions
     00000A60  A$captions$130                     captions
     00000A60  C$captions.c$105$2_0$115           captions
     00000A61  A$captions$138                     captions
     00000A61  C$captions.c$110$2_0$114           captions
     00000A61  XG$show_level_one_msg$0$0          captions
     00000A63  G$level_one_spr_tiles$0_0$0        captions
     00000A63  _level_one_spr_tiles               captions
     00000AF3  G$level_end_spr_tiles$0_0$0        captions
     00000AF3  _level_end_spr_tiles               captions
     00000B83  G$game_over_spr_tiles$0_0$0        captions
     00000B83  _game_over_spr_tiles               captions
     00000C13  A$captions$589                     captions
     00000C13  C$captions.c$112$2_0$126           captions
     00000C13  C$captions.c$118$1_0$126           captions
     00000C13  G$show_level_end_msg$0$0           captions
     00000C13  _show_level_end_msg                captions
     00000C16  A$captions$590                     captions
     00000C17  A$captions$591                     captions
     00000C1A  A$captions$592                     captions
     00000C1B  A$captions$593                     captions
     00000C1E  A$captions$594                     captions
     00000C20  A$captions$598                     captions
     00000C20  C$captions.c$121$2_0$126           captions
     00000C22  A$captions$601                     captions
     00000C23  A$captions$602                     captions
     00000C25  A$captions$603                     captions
     00000C26  A$captions$604                     captions
     00000C28  A$captions$605                     captions
     00000C29  A$captions$607                     captions
     00000C2A  A$captions$610                     captions
     00000C2C  A$captions$613                     captions
     00000C2D  A$captions$614                     captions
     00000C2E  A$captions$615                     captions
     00000C2F  A$captions$616                     captions
     00000C30  A$captions$617                     captions
     00000C33  A$captions$618                     captions
     00000C34  A$captions$619                     captions
     00000C35  A$captions$620                     captions
ASxxxx Linker V03.00 + NoICE + sdld,  page 29.
Hexadecimal  [32-Bits]

Area                                    Addr        Size        Decimal Bytes (Attributes)
--------------------------------        ----        ----        ------- ----- ------------
_CODE                               00000200    00003D11 =       15633. bytes (REL,CON)

      Value  Global                              Global Defined In Module
      -----  --------------------------------   ------------------------
     00000C36  A$captions$622                     captions
     00000C39  A$captions$623                     captions
     00000C3A  A$captions$624                     captions
     00000C3B  A$captions$625                     captions
     00000C3C  A$captions$626                     captions
     00000C3E  A$captions$628                     captions
     00000C3F  A$captions$629                     captions
     00000C40  A$captions$630                     captions
     00000C41  A$captions$631                     captions
     00000C42  A$captions$632                     captions
     00000C44  A$captions$633                     captions
     00000C46  A$captions$634                     captions
     00000C47  A$captions$636                     captions
     00000C48  A$captions$639                     captions
     00000C4A  A$captions$642                     captions
     00000C4B  A$captions$643                     captions
     00000C4C  A$captions$644                     captions
     00000C4D  A$captions$645                     captions
     00000C50  A$captions$646                     captions
     00000C51  A$captions$647                     captions
     00000C52  A$captions$649                     captions
     00000C54  A$captions$650                     captions
     00000C55  A$captions$651                     captions
     00000C56  A$captions$655                     captions
     00000C56  C$captions.c$121$2_0$127           captions
     00000C57  A$captions$663                     captions
     00000C57  C$captions.c$126$2_0$126           captions
     00000C57  XG$show_level_end_msg$0$0          captions
     00000C59  A$captions$676                     captions
     00000C59  C$captions.c$128$2_0$138           captions
     00000C59  C$captions.c$134$1_0$138           captions
     00000C59  G$show_game_over_msg$0$0           captions
     00000C59  _show_game_over_msg                captions
     00000C5C  A$captions$677                     captions
     00000C5D  A$captions$678                     captions
     00000C60  A$captions$679                     captions
     00000C61  A$captions$680                     captions
     00000C64  A$captions$681                     captions
     00000C66  A$captions$685                     captions
     00000C66  C$captions.c$137$2_0$138           captions
     00000C68  A$captions$688                     captions
     00000C69  A$captions$689                     captions
     00000C6B  A$captions$690                     captions
     00000C6C  A$captions$691                     captions
     00000C6E  A$captions$692                     captions
     00000C6F  A$captions$694                     captions
     00000C70  A$captions$697                     captions
     00000C72  A$captions$700                     captions
     00000C73  A$captions$701                     captions
     00000C74  A$captions$702                     captions
     00000C75  A$captions$703                     captions
ASxxxx Linker V03.00 + NoICE + sdld,  page 30.
Hexadecimal  [32-Bits]

Area                                    Addr        Size        Decimal Bytes (Attributes)
--------------------------------        ----        ----        ------- ----- ------------
_CODE                               00000200    00003D11 =       15633. bytes (REL,CON)

      Value  Global                              Global Defined In Module
      -----  --------------------------------   ------------------------
     00000C76  A$captions$704                     captions
     00000C79  A$captions$705                     captions
     00000C7A  A$captions$706                     captions
     00000C7B  A$captions$707                     captions
     00000C7C  A$captions$709                     captions
     00000C7F  A$captions$710                     captions
     00000C80  A$captions$711                     captions
     00000C81  A$captions$712                     captions
     00000C82  A$captions$713                     captions
     00000C84  A$captions$715                     captions
     00000C85  A$captions$716                     captions
     00000C86  A$captions$717                     captions
     00000C87  A$captions$718                     captions
     00000C88  A$captions$719                     captions
     00000C8A  A$captions$720                     captions
     00000C8C  A$captions$721                     captions
     00000C8D  A$captions$723                     captions
     00000C8E  A$captions$726                     captions
     00000C90  A$captions$729                     captions
     00000C91  A$captions$730                     captions
     00000C92  A$captions$731                     captions
     00000C93  A$captions$732                     captions
     00000C96  A$captions$733                     captions
     00000C97  A$captions$734                     captions
     00000C98  A$captions$736                     captions
     00000C9A  A$captions$737                     captions
     00000C9B  A$captions$738                     captions
     00000C9C  A$captions$742                     captions
     00000C9C  C$captions.c$137$2_0$139           captions
     00000C9D  A$captions$750                     captions
     00000C9D  C$captions.c$142$2_0$138           captions
     00000C9D  XG$show_game_over_msg$0$0          captions
     00000C9F  A$captions$763                     captions
     00000C9F  C$captions.c$146$2_0$151           captions
     00000C9F  G$hide_msg$0$0                     captions
     00000C9F  _hide_msg                          captions
     00000CA1  A$captions$765                     captions
     00000CA2  A$captions$766                     captions
     00000CA4  A$captions$767                     captions
     00000CA5  A$captions$769                     captions
     00000CA8  A$captions$770                     captions
     00000CA9  A$captions$773                     captions
     00000CAB  A$captions$776                     captions
     00000CAC  A$captions$777                     captions
     00000CAD  A$captions$778                     captions
     00000CAE  A$captions$780                     captions
     00000CAF  A$captions$781                     captions
     00000CB0  A$captions$782                     captions
     00000CB1  A$captions$786                     captions
     00000CB1  C$captions.c$147$2_0$151           captions
     00000CB2  A$captions$794                     captions
ASxxxx Linker V03.00 + NoICE + sdld,  page 31.
Hexadecimal  [32-Bits]

Area                                    Addr        Size        Decimal Bytes (Attributes)
--------------------------------        ----        ----        ------- ----- ------------
_CODE                               00000200    00003D11 =       15633. bytes (REL,CON)

      Value  Global                              Global Defined In Module
      -----  --------------------------------   ------------------------
     00000CB2  C$captions.c$150$2_0$151           captions
     00000CB2  XG$hide_msg$0$0                    captions
     00000CB4  A$captions$807                     captions
     00000CB4  C$captions.c$153$2_0$158           captions
     00000CB4  C$captions.c$154$2_0$158           captions
     00000CB4  G$wait_frames_level_one$0$0        captions
     00000CB4  _wait_frames_level_one             captions
     00000CB7  A$captions$809                     captions
     00000CB9  A$captions$810                     captions
     00000CBA  A$captions$811                     captions
     00000CBB  A$captions$812                     captions
     00000CBC  A$captions$813                     captions
     00000CBD  A$captions$814                     captions
     00000CBE  A$captions$815                     captions
     00000CBF  A$captions$816                     captions
     00000CC2  A$captions$817                     captions
     00000CC3  A$captions$825                     captions
     00000CC3  C$captions.c$155$2_0$158           captions
     00000CC3  XG$wait_frames_level_one$0$0       captions
     00000CC5  A$collisions$70                    collisions
     00000CC5  C$collisions.c$8$0_0$113           collisions
     00000CC5  C$collisions.c$9$1_0$113           collisions
     00000CC5  G$setCollBoundaries$0$0            collisions
     00000CC5  _setCollBoundaries                 collisions
     00000CC7  A$collisions$71                    collisions
     00000CC8  A$collisions$72                    collisions
     00000CC9  A$collisions$73                    collisions
     00000CCA  A$collisions$74                    collisions
     00000CCB  A$collisions$75                    collisions
     00000CCE  A$collisions$76                    collisions
     00000CCF  A$collisions$77                    collisions
     00000CD2  A$collisions$78                    collisions
     00000CD3  A$collisions$79                    collisions
     00000CD4  A$collisions$80                    collisions
     00000CD5  A$collisions$88                    collisions
     00000CD5  C$collisions.c$10$1_0$113          collisions
     00000CD5  XG$setCollBoundaries$0$0           collisions
     00000CD6  A$collisions$101                   collisions
     00000CD6  C$collisions.c$13$1_0$115          collisions
     00000CD6  C$collisions.c$18$1_0$115          collisions
     00000CD6  G$isCollisionB2B$0$0               collisions
     00000CD6  _isCollisionB2B                    collisions
     00000CD8  A$collisions$102                   collisions
     00000CD9  A$collisions$103                   collisions
     00000CDA  A$collisions$104                   collisions
     00000CDC  A$collisions$105                   collisions
     00000CDD  A$collisions$106                   collisions
     00000CDE  A$collisions$107                   collisions
     00000CDF  A$collisions$108                   collisions
     00000CE0  A$collisions$109                   collisions
     00000CE1  A$collisions$110                   collisions
ASxxxx Linker V03.00 + NoICE + sdld,  page 32.
Hexadecimal  [32-Bits]

Area                                    Addr        Size        Decimal Bytes (Attributes)
--------------------------------        ----        ----        ------- ----- ------------
_CODE                               00000200    00003D11 =       15633. bytes (REL,CON)

      Value  Global                              Global Defined In Module
      -----  --------------------------------   ------------------------
     00000CE2  A$collisions$111                   collisions
     00000CE4  A$collisions$112                   collisions
     00000CE6  A$collisions$113                   collisions
     00000CE7  A$collisions$114                   collisions
     00000CE8  A$collisions$115                   collisions
     00000CE9  A$collisions$116                   collisions
     00000CEB  A$collisions$117                   collisions
     00000CEC  A$collisions$118                   collisions
     00000CED  A$collisions$119                   collisions
     00000CEE  A$collisions$120                   collisions
     00000CEF  A$collisions$121                   collisions
     00000CF0  A$collisions$122                   collisions
     00000CF1  A$collisions$123                   collisions
     00000CF3  A$collisions$124                   collisions
     00000CF4  A$collisions$125                   collisions
     00000CF5  A$collisions$126                   collisions
     00000CF6  A$collisions$127                   collisions
     00000CF7  A$collisions$128                   collisions
     00000CF8  A$collisions$129                   collisions
     00000CFA  A$collisions$133                   collisions
     00000CFA  C$collisions.c$19$1_0$115          collisions
     00000CFC  A$collisions$134                   collisions
     00000CFD  A$collisions$135                   collisions
     00000CFE  A$collisions$136                   collisions
     00000D00  A$collisions$137                   collisions
     00000D01  A$collisions$138                   collisions
     00000D02  A$collisions$139                   collisions
     00000D03  A$collisions$140                   collisions
     00000D04  A$collisions$141                   collisions
     00000D05  A$collisions$142                   collisions
     00000D06  A$collisions$143                   collisions
     00000D08  A$collisions$144                   collisions
     00000D0A  A$collisions$145                   collisions
     00000D0B  A$collisions$146                   collisions
     00000D0C  A$collisions$147                   collisions
     00000D0D  A$collisions$148                   collisions
     00000D0F  A$collisions$149                   collisions
     00000D10  A$collisions$150                   collisions
     00000D11  A$collisions$151                   collisions
     00000D12  A$collisions$152                   collisions
     00000D13  A$collisions$153                   collisions
     00000D14  A$collisions$154                   collisions
     00000D15  A$collisions$155                   collisions
     00000D17  A$collisions$156                   collisions
     00000D18  A$collisions$157                   collisions
     00000D19  A$collisions$158                   collisions
     00000D1A  A$collisions$159                   collisions
     00000D1B  A$collisions$160                   collisions
     00000D1C  A$collisions$161                   collisions
     00000D1E  A$collisions$166                   collisions
     00000D1E  C$collisions.c$20$1_0$115          collisions
ASxxxx Linker V03.00 + NoICE + sdld,  page 33.
Hexadecimal  [32-Bits]

Area                                    Addr        Size        Decimal Bytes (Attributes)
--------------------------------        ----        ----        ------- ----- ------------
_CODE                               00000200    00003D11 =       15633. bytes (REL,CON)

      Value  Global                              Global Defined In Module
      -----  --------------------------------   ------------------------
     00000D20  A$collisions$167                   collisions
     00000D21  A$collisions$168                   collisions
     00000D22  A$collisions$169                   collisions
     00000D24  A$collisions$170                   collisions
     00000D25  A$collisions$171                   collisions
     00000D26  A$collisions$172                   collisions
     00000D27  A$collisions$173                   collisions
     00000D28  A$collisions$174                   collisions
     00000D29  A$collisions$175                   collisions
     00000D2A  A$collisions$176                   collisions
     00000D2C  A$collisions$177                   collisions
     00000D2E  A$collisions$178                   collisions
     00000D2F  A$collisions$179                   collisions
     00000D30  A$collisions$180                   collisions
     00000D31  A$collisions$181                   collisions
     00000D33  A$collisions$182                   collisions
     00000D34  A$collisions$183                   collisions
     00000D35  A$collisions$184                   collisions
     00000D36  A$collisions$185                   collisions
     00000D37  A$collisions$186                   collisions
     00000D38  A$collisions$187                   collisions
     00000D39  A$collisions$188                   collisions
     00000D3B  A$collisions$189                   collisions
     00000D3C  A$collisions$190                   collisions
     00000D3D  A$collisions$191                   collisions
     00000D3E  A$collisions$192                   collisions
     00000D3F  A$collisions$193                   collisions
     00000D40  A$collisions$194                   collisions
     00000D42  A$collisions$198                   collisions
     00000D42  C$collisions.c$21$1_0$115          collisions
     00000D44  A$collisions$199                   collisions
     00000D45  A$collisions$200                   collisions
     00000D46  A$collisions$201                   collisions
     00000D48  A$collisions$202                   collisions
     00000D49  A$collisions$203                   collisions
     00000D4A  A$collisions$204                   collisions
     00000D4B  A$collisions$205                   collisions
     00000D4C  A$collisions$206                   collisions
     00000D4D  A$collisions$207                   collisions
     00000D4E  A$collisions$208                   collisions
     00000D50  A$collisions$209                   collisions
     00000D52  A$collisions$210                   collisions
     00000D53  A$collisions$211                   collisions
     00000D54  A$collisions$212                   collisions
     00000D55  A$collisions$213                   collisions
     00000D57  A$collisions$214                   collisions
     00000D58  A$collisions$215                   collisions
     00000D59  A$collisions$216                   collisions
     00000D5A  A$collisions$217                   collisions
     00000D5B  A$collisions$218                   collisions
     00000D5C  A$collisions$219                   collisions
ASxxxx Linker V03.00 + NoICE + sdld,  page 34.
Hexadecimal  [32-Bits]

Area                                    Addr        Size        Decimal Bytes (Attributes)
--------------------------------        ----        ----        ------- ----- ------------
_CODE                               00000200    00003D11 =       15633. bytes (REL,CON)

      Value  Global                              Global Defined In Module
      -----  --------------------------------   ------------------------
     00000D5D  A$collisions$220                   collisions
     00000D5F  A$collisions$221                   collisions
     00000D60  A$collisions$222                   collisions
     00000D61  A$collisions$223                   collisions
     00000D62  A$collisions$224                   collisions
     00000D63  A$collisions$225                   collisions
     00000D64  A$collisions$226                   collisions
     00000D66  A$collisions$228                   collisions
     00000D68  A$collisions$229                   collisions
     00000D69  A$collisions$231                   collisions
     00000D6B  A$collisions$239                   collisions
     00000D6B  C$collisions.c$22$1_0$115          collisions
     00000D6B  XG$isCollisionB2B$0$0              collisions
     00000D6C  A$collisions$252                   collisions
     00000D6C  C$collisions.c$31$1_0$117          collisions
     00000D6C  C$collisions.c$32$1_0$117          collisions
     00000D6C  G$isCollideElement$0$0             collisions
     00000D6C  _isCollideElement                  collisions
     00000D6E  A$collisions$253                   collisions
     00000D6F  A$collisions$254                   collisions
     00000D71  A$collisions$255                   collisions
     00000D73  A$collisions$256                   collisions
     00000D75  A$collisions$257                   collisions
     00000D76  A$collisions$258                   collisions
     00000D78  A$collisions$259                   collisions
     00000D79  A$collisions$260                   collisions
     00000D7B  A$collisions$261                   collisions
     00000D7D  A$collisions$263                   collisions
     00000D7F  A$collisions$264                   collisions
     00000D80  A$collisions$266                   collisions
     00000D82  A$collisions$274                   collisions
     00000D82  C$collisions.c$33$1_0$117          collisions
     00000D82  XG$isCollideElement$0$0            collisions
     00000D83  A$collisions$284                   collisions
     00000D83  C$collisions.c$37$1_0$119          collisions
     00000D83  G$processBackGroundTile$0$0        collisions
     00000D83  _processBackGroundTile             collisions
     00000D85  A$collisions$288                   collisions
     00000D87  A$collisions$289                   collisions
     00000D88  A$collisions$290                   collisions
     00000D89  A$collisions$291                   collisions
     00000D8A  A$collisions$292                   collisions
     00000D8B  A$collisions$293                   collisions
     00000D8C  A$collisions$294                   collisions
     00000D8D  A$collisions$295                   collisions
     00000D8E  A$collisions$296                   collisions
     00000D8F  A$collisions$297                   collisions
     00000D90  A$collisions$298                   collisions
     00000D91  A$collisions$299                   collisions
     00000D92  A$collisions$300                   collisions
     00000D93  A$collisions$301                   collisions
ASxxxx Linker V03.00 + NoICE + sdld,  page 35.
Hexadecimal  [32-Bits]

Area                                    Addr        Size        Decimal Bytes (Attributes)
--------------------------------        ----        ----        ------- ----- ------------
_CODE                               00000200    00003D11 =       15633. bytes (REL,CON)

      Value  Global                              Global Defined In Module
      -----  --------------------------------   ------------------------
     00000D94  A$collisions$302                   collisions
     00000D95  A$collisions$303                   collisions
     00000D96  A$collisions$304                   collisions
     00000D97  A$collisions$308                   collisions
     00000D99  A$collisions$309                   collisions
     00000D9A  A$collisions$310                   collisions
     00000D9B  A$collisions$311                   collisions
     00000D9C  A$collisions$312                   collisions
     00000D9D  A$collisions$313                   collisions
     00000D9E  A$collisions$314                   collisions
     00000D9F  A$collisions$315                   collisions
     00000DA0  A$collisions$316                   collisions
     00000DA1  A$collisions$317                   collisions
     00000DA3  A$collisions$318                   collisions
     00000DA4  A$collisions$319                   collisions
     00000DA5  A$collisions$320                   collisions
     00000DA6  A$collisions$321                   collisions
     00000DA8  A$collisions$322                   collisions
     00000DA9  A$collisions$326                   collisions
     00000DAB  A$collisions$327                   collisions
     00000DAC  A$collisions$328                   collisions
     00000DAD  A$collisions$329                   collisions
     00000DAE  A$collisions$330                   collisions
     00000DAF  A$collisions$334                   collisions
     00000DB0  A$collisions$335                   collisions
     00000DB1  A$collisions$336                   collisions
     00000DB3  A$collisions$337                   collisions
     00000DB4  A$collisions$338                   collisions
     00000DB5  A$collisions$339                   collisions
     00000DB6  A$collisions$340                   collisions
     00000DB7  A$collisions$341                   collisions
     00000DB8  A$collisions$342                   collisions
     00000DB9  A$collisions$343                   collisions
     00000DBB  A$collisions$344                   collisions
     00000DBC  A$collisions$345                   collisions
     00000DBD  A$collisions$346                   collisions
     00000DBE  A$collisions$347                   collisions
     00000DC0  A$collisions$348                   collisions
     00000DC1  A$collisions$352                   collisions
     00000DC1  C$collisions.c$40$1_0$119          collisions
     00000DC3  A$collisions$353                   collisions
     00000DC4  A$collisions$354                   collisions
     00000DC5  A$collisions$355                   collisions
     00000DC6  A$collisions$356                   collisions
     00000DC7  A$collisions$357                   collisions
     00000DC8  A$collisions$358                   collisions
     00000DC9  A$collisions$359                   collisions
     00000DCA  A$collisions$360                   collisions
     00000DCB  A$collisions$361                   collisions
     00000DCD  A$collisions$362                   collisions
     00000DCE  A$collisions$363                   collisions
ASxxxx Linker V03.00 + NoICE + sdld,  page 36.
Hexadecimal  [32-Bits]

Area                                    Addr        Size        Decimal Bytes (Attributes)
--------------------------------        ----        ----        ------- ----- ------------
_CODE                               00000200    00003D11 =       15633. bytes (REL,CON)

      Value  Global                              Global Defined In Module
      -----  --------------------------------   ------------------------
     00000DCF  A$collisions$364                   collisions
     00000DD0  A$collisions$365                   collisions
     00000DD2  A$collisions$366                   collisions
     00000DD3  A$collisions$370                   collisions
     00000DD3  C$collisions.c$41$1_0$119          collisions
     00000DD4  A$collisions$371                   collisions
     00000DD5  A$collisions$372                   collisions
     00000DD6  A$collisions$373                   collisions
     00000DD7  A$collisions$374                   collisions
     00000DD8  A$collisions$375                   collisions
     00000DD9  A$collisions$376                   collisions
     00000DDA  A$collisions$377                   collisions
     00000DDB  A$collisions$378                   collisions
     00000DDC  A$collisions$379                   collisions
     00000DDD  A$collisions$380                   collisions
     00000DDE  A$collisions$381                   collisions
     00000DDF  A$collisions$385                   collisions
     00000DDF  C$collisions.c$39$1_0$119          collisions
     00000DE1  A$collisions$386                   collisions
     00000DE2  A$collisions$387                   collisions
     00000DE3  A$collisions$388                   collisions
     00000DE4  A$collisions$389                   collisions
     00000DE7  A$collisions$390                   collisions
     00000DE8  A$collisions$391                   collisions
     00000DE9  A$collisions$392                   collisions
     00000DEA  A$collisions$393                   collisions
     00000DEB  A$collisions$394                   collisions
     00000DEC  A$collisions$395                   collisions
     00000DED  A$collisions$396                   collisions
     00000DEF  A$collisions$397                   collisions
     00000DF0  A$collisions$398                   collisions
     00000DF1  A$collisions$399                   collisions
     00000DF2  A$collisions$400                   collisions
     00000DF4  A$collisions$401                   collisions
     00000DF5  A$collisions$405                   collisions
     00000DF5  C$collisions.c$42$1_0$119          collisions
     00000DF7  A$collisions$406                   collisions
     00000DF8  A$collisions$407                   collisions
     00000DF9  A$collisions$408                   collisions
     00000DFA  A$collisions$409                   collisions
     00000DFB  A$collisions$410                   collisions
     00000DFC  A$collisions$411                   collisions
     00000DFD  A$collisions$412                   collisions
     00000DFF  A$collisions$413                   collisions
     00000E00  A$collisions$414                   collisions
     00000E01  A$collisions$415                   collisions
     00000E02  A$collisions$416                   collisions
     00000E04  A$collisions$417                   collisions
     00000E05  A$collisions$421                   collisions
     00000E05  C$collisions.c$38$1_0$119          collisions
     00000E07  A$collisions$422                   collisions
ASxxxx Linker V03.00 + NoICE + sdld,  page 37.
Hexadecimal  [32-Bits]

Area                                    Addr        Size        Decimal Bytes (Attributes)
--------------------------------        ----        ----        ------- ----- ------------
_CODE                               00000200    00003D11 =       15633. bytes (REL,CON)

      Value  Global                              Global Defined In Module
      -----  --------------------------------   ------------------------
     00000E08  A$collisions$423                   collisions
     00000E0A  A$collisions$424                   collisions
     00000E0C  A$collisions$425                   collisions
     00000E0E  A$collisions$426                   collisions
     00000E0F  A$collisions$427                   collisions
     00000E11  A$collisions$428                   collisions
     00000E13  A$collisions$429                   collisions
     00000E15  A$collisions$430                   collisions
     00000E16  A$collisions$431                   collisions
     00000E18  A$collisions$432                   collisions
     00000E1A  A$collisions$433                   collisions
     00000E1C  A$collisions$434                   collisions
     00000E1D  A$collisions$435                   collisions
     00000E1F  A$collisions$436                   collisions
     00000E21  A$collisions$441                   collisions
     00000E21  C$collisions.c$39$2_0$120          collisions
     00000E23  A$collisions$442                   collisions
     00000E24  A$collisions$443                   collisions
     00000E25  A$collisions$444                   collisions
     00000E26  A$collisions$445                   collisions
     00000E28  A$collisions$449                   collisions
     00000E28  C$collisions.c$40$2_0$120          collisions
     00000E2A  A$collisions$450                   collisions
     00000E2B  A$collisions$451                   collisions
     00000E2C  A$collisions$452                   collisions
     00000E2D  A$collisions$453                   collisions
     00000E30  A$collisions$454                   collisions
     00000E31  A$collisions$455                   collisions
     00000E32  A$collisions$456                   collisions
     00000E33  A$collisions$457                   collisions
     00000E34  A$collisions$458                   collisions
     00000E36  A$collisions$462                   collisions
     00000E36  C$collisions.c$41$2_0$120          collisions
     00000E38  A$collisions$463                   collisions
     00000E39  A$collisions$464                   collisions
     00000E3A  A$collisions$465                   collisions
     00000E3B  A$collisions$466                   collisions
     00000E3C  A$collisions$467                   collisions
     00000E3D  A$collisions$468                   collisions
     00000E3E  A$collisions$469                   collisions
     00000E3F  A$collisions$470                   collisions
     00000E42  A$collisions$471                   collisions
     00000E43  A$collisions$472                   collisions
     00000E44  A$collisions$473                   collisions
     00000E45  A$collisions$474                   collisions
     00000E46  A$collisions$475                   collisions
     00000E47  A$collisions$476                   collisions
     00000E48  A$collisions$477                   collisions
     00000E4A  A$collisions$478                   collisions
     00000E4B  A$collisions$482                   collisions
     00000E4B  C$collisions.c$42$2_0$120          collisions
ASxxxx Linker V03.00 + NoICE + sdld,  page 38.
Hexadecimal  [32-Bits]

Area                                    Addr        Size        Decimal Bytes (Attributes)
--------------------------------        ----        ----        ------- ----- ------------
_CODE                               00000200    00003D11 =       15633. bytes (REL,CON)

      Value  Global                              Global Defined In Module
      -----  --------------------------------   ------------------------
     00000E4D  A$collisions$483                   collisions
     00000E4E  A$collisions$484                   collisions
     00000E4F  A$collisions$485                   collisions
     00000E50  A$collisions$486                   collisions
     00000E53  A$collisions$487                   collisions
     00000E54  A$collisions$488                   collisions
     00000E55  A$collisions$489                   collisions
     00000E56  A$collisions$490                   collisions
     00000E57  A$collisions$491                   collisions
     00000E59  A$collisions$492                   collisions
     00000E5C  A$collisions$497                   collisions
     00000E5C  C$collisions.c$46$1_0$119          collisions
     00000E5E  A$collisions$498                   collisions
     00000E5F  A$collisions$499                   collisions
     00000E60  A$collisions$500                   collisions
     00000E61  A$collisions$501                   collisions
     00000E64  A$collisions$502                   collisions
     00000E65  A$collisions$503                   collisions
     00000E66  A$collisions$504                   collisions
     00000E67  A$collisions$505                   collisions
     00000E68  A$collisions$506                   collisions
     00000E69  A$collisions$507                   collisions
     00000E6B  A$collisions$508                   collisions
     00000E6C  A$collisions$509                   collisions
     00000E6D  A$collisions$510                   collisions
     00000E6E  A$collisions$511                   collisions
     00000E6F  A$collisions$512                   collisions
     00000E70  A$collisions$513                   collisions
     00000E71  A$collisions$514                   collisions
     00000E72  A$collisions$515                   collisions
     00000E73  A$collisions$516                   collisions
     00000E74  A$collisions$517                   collisions
     00000E75  A$collisions$518                   collisions
     00000E76  A$collisions$519                   collisions
     00000E77  A$collisions$520                   collisions
     00000E79  A$collisions$521                   collisions
     00000E7A  A$collisions$522                   collisions
     00000E7B  A$collisions$523                   collisions
     00000E7C  A$collisions$524                   collisions
     00000E7E  A$collisions$525                   collisions
     00000E7F  A$collisions$529                   collisions
     00000E7F  C$collisions.c$44$1_0$119          collisions
     00000E81  A$collisions$530                   collisions
     00000E82  A$collisions$531                   collisions
     00000E84  A$collisions$532                   collisions
     00000E86  A$collisions$533                   collisions
     00000E88  A$collisions$534                   collisions
     00000E89  A$collisions$535                   collisions
     00000E8B  A$collisions$536                   collisions
     00000E8D  A$collisions$537                   collisions
     00000E8F  A$collisions$538                   collisions
ASxxxx Linker V03.00 + NoICE + sdld,  page 39.
Hexadecimal  [32-Bits]

Area                                    Addr        Size        Decimal Bytes (Attributes)
--------------------------------        ----        ----        ------- ----- ------------
_CODE                               00000200    00003D11 =       15633. bytes (REL,CON)

      Value  Global                              Global Defined In Module
      -----  --------------------------------   ------------------------
     00000E90  A$collisions$539                   collisions
     00000E92  A$collisions$540                   collisions
     00000E94  A$collisions$541                   collisions
     00000E96  A$collisions$542                   collisions
     00000E97  A$collisions$543                   collisions
     00000E99  A$collisions$544                   collisions
     00000E9B  A$collisions$549                   collisions
     00000E9B  C$collisions.c$45$2_0$121          collisions
     00000E9D  A$collisions$550                   collisions
     00000E9E  A$collisions$551                   collisions
     00000E9F  A$collisions$552                   collisions
     00000EA0  A$collisions$553                   collisions
     00000EA2  A$collisions$557                   collisions
     00000EA2  C$collisions.c$46$2_0$121          collisions
     00000EA4  A$collisions$558                   collisions
     00000EA5  A$collisions$559                   collisions
     00000EA6  A$collisions$560                   collisions
     00000EA7  A$collisions$561                   collisions
     00000EAA  A$collisions$562                   collisions
     00000EAB  A$collisions$563                   collisions
     00000EAC  A$collisions$564                   collisions
     00000EAD  A$collisions$565                   collisions
     00000EAE  A$collisions$566                   collisions
     00000EB0  A$collisions$570                   collisions
     00000EB0  C$collisions.c$47$2_0$121          collisions
     00000EB2  A$collisions$571                   collisions
     00000EB3  A$collisions$572                   collisions
     00000EB4  A$collisions$573                   collisions
     00000EB5  A$collisions$574                   collisions
     00000EB6  A$collisions$575                   collisions
     00000EB7  A$collisions$576                   collisions
     00000EB8  A$collisions$577                   collisions
     00000EB9  A$collisions$578                   collisions
     00000EBC  A$collisions$579                   collisions
     00000EBD  A$collisions$580                   collisions
     00000EBE  A$collisions$581                   collisions
     00000EBF  A$collisions$582                   collisions
     00000EC0  A$collisions$583                   collisions
     00000EC1  A$collisions$584                   collisions
     00000EC2  A$collisions$585                   collisions
     00000EC4  A$collisions$586                   collisions
     00000EC5  A$collisions$590                   collisions
     00000EC5  C$collisions.c$48$2_0$121          collisions
     00000EC7  A$collisions$591                   collisions
     00000EC8  A$collisions$592                   collisions
     00000EC9  A$collisions$593                   collisions
     00000ECA  A$collisions$594                   collisions
     00000ECD  A$collisions$595                   collisions
     00000ECE  A$collisions$596                   collisions
     00000ECF  A$collisions$597                   collisions
     00000ED0  A$collisions$598                   collisions
ASxxxx Linker V03.00 + NoICE + sdld,  page 40.
Hexadecimal  [32-Bits]

Area                                    Addr        Size        Decimal Bytes (Attributes)
--------------------------------        ----        ----        ------- ----- ------------
_CODE                               00000200    00003D11 =       15633. bytes (REL,CON)

      Value  Global                              Global Defined In Module
      -----  --------------------------------   ------------------------
     00000ED1  A$collisions$599                   collisions
     00000ED3  A$collisions$600                   collisions
     00000ED6  A$collisions$605                   collisions
     00000ED6  C$collisions.c$53$1_0$119          collisions
     00000ED8  A$collisions$606                   collisions
     00000ED9  A$collisions$607                   collisions
     00000EDA  A$collisions$608                   collisions
     00000EDB  A$collisions$609                   collisions
     00000EDC  A$collisions$610                   collisions
     00000EDD  A$collisions$611                   collisions
     00000EDE  A$collisions$612                   collisions
     00000EDF  A$collisions$613                   collisions
     00000EE0  A$collisions$614                   collisions
     00000EE1  A$collisions$615                   collisions
     00000EE2  A$collisions$616                   collisions
     00000EE3  A$collisions$617                   collisions
     00000EE4  A$collisions$618                   collisions
     00000EE5  A$collisions$619                   collisions
     00000EE6  A$collisions$620                   collisions
     00000EE7  A$collisions$621                   collisions
     00000EE8  A$collisions$625                   collisions
     00000EE8  C$collisions.c$54$1_0$119          collisions
     00000EEA  A$collisions$626                   collisions
     00000EEB  A$collisions$627                   collisions
     00000EEC  A$collisions$628                   collisions
     00000EED  A$collisions$629                   collisions
     00000EEE  A$collisions$630                   collisions
     00000EEF  A$collisions$631                   collisions
     00000EF0  A$collisions$632                   collisions
     00000EF2  A$collisions$633                   collisions
     00000EF3  A$collisions$634                   collisions
     00000EF4  A$collisions$635                   collisions
     00000EF5  A$collisions$636                   collisions
     00000EF7  A$collisions$637                   collisions
     00000EF8  A$collisions$641                   collisions
     00000EF8  C$collisions.c$50$1_0$119          collisions
     00000EFA  A$collisions$642                   collisions
     00000EFB  A$collisions$643                   collisions
     00000EFD  A$collisions$644                   collisions
     00000EFF  A$collisions$645                   collisions
     00000F01  A$collisions$646                   collisions
     00000F02  A$collisions$647                   collisions
     00000F04  A$collisions$648                   collisions
     00000F06  A$collisions$649                   collisions
     00000F08  A$collisions$650                   collisions
     00000F09  A$collisions$651                   collisions
     00000F0B  A$collisions$652                   collisions
     00000F0D  A$collisions$653                   collisions
     00000F0F  A$collisions$654                   collisions
     00000F10  A$collisions$655                   collisions
     00000F12  A$collisions$656                   collisions
ASxxxx Linker V03.00 + NoICE + sdld,  page 41.
Hexadecimal  [32-Bits]

Area                                    Addr        Size        Decimal Bytes (Attributes)
--------------------------------        ----        ----        ------- ----- ------------
_CODE                               00000200    00003D11 =       15633. bytes (REL,CON)

      Value  Global                              Global Defined In Module
      -----  --------------------------------   ------------------------
     00000F14  A$collisions$661                   collisions
     00000F14  C$collisions.c$51$2_0$122          collisions
     00000F16  A$collisions$662                   collisions
     00000F17  A$collisions$663                   collisions
     00000F18  A$collisions$664                   collisions
     00000F19  A$collisions$665                   collisions
     00000F1B  A$collisions$669                   collisions
     00000F1B  C$collisions.c$52$2_0$122          collisions
     00000F1E  A$collisions$670                   collisions
     00000F1F  A$collisions$671                   collisions
     00000F20  A$collisions$672                   collisions
     00000F21  A$collisions$673                   collisions
     00000F23  A$collisions$674                   collisions
     00000F24  A$collisions$675                   collisions
     00000F25  A$collisions$676                   collisions
     00000F26  A$collisions$677                   collisions
     00000F27  A$collisions$678                   collisions
     00000F29  A$collisions$682                   collisions
     00000F29  C$collisions.c$53$2_0$122          collisions
     00000F2B  A$collisions$683                   collisions
     00000F2C  A$collisions$684                   collisions
     00000F2D  A$collisions$685                   collisions
     00000F2E  A$collisions$686                   collisions
     00000F2F  A$collisions$687                   collisions
     00000F30  A$collisions$688                   collisions
     00000F31  A$collisions$689                   collisions
     00000F32  A$collisions$690                   collisions
     00000F35  A$collisions$691                   collisions
     00000F36  A$collisions$692                   collisions
     00000F37  A$collisions$693                   collisions
     00000F38  A$collisions$694                   collisions
     00000F39  A$collisions$695                   collisions
     00000F3A  A$collisions$696                   collisions
     00000F3B  A$collisions$697                   collisions
     00000F3D  A$collisions$698                   collisions
     00000F3E  A$collisions$702                   collisions
     00000F3E  C$collisions.c$54$2_0$122          collisions
     00000F40  A$collisions$703                   collisions
     00000F41  A$collisions$704                   collisions
     00000F42  A$collisions$705                   collisions
     00000F43  A$collisions$706                   collisions
     00000F46  A$collisions$707                   collisions
     00000F47  A$collisions$708                   collisions
     00000F48  A$collisions$709                   collisions
     00000F49  A$collisions$710                   collisions
     00000F4A  A$collisions$711                   collisions
     00000F4C  A$collisions$712                   collisions
     00000F4E  A$collisions$717                   collisions
     00000F4E  C$collisions.c$57$1_0$119          collisions
     00000F50  A$collisions$718                   collisions
     00000F51  A$collisions$719                   collisions
ASxxxx Linker V03.00 + NoICE + sdld,  page 42.
Hexadecimal  [32-Bits]

Area                                    Addr        Size        Decimal Bytes (Attributes)
--------------------------------        ----        ----        ------- ----- ------------
_CODE                               00000200    00003D11 =       15633. bytes (REL,CON)

      Value  Global                              Global Defined In Module
      -----  --------------------------------   ------------------------
     00000F53  A$collisions$720                   collisions
     00000F55  A$collisions$721                   collisions
     00000F57  A$collisions$722                   collisions
     00000F58  A$collisions$723                   collisions
     00000F5A  A$collisions$724                   collisions
     00000F5C  A$collisions$725                   collisions
     00000F5E  A$collisions$726                   collisions
     00000F5F  A$collisions$727                   collisions
     00000F61  A$collisions$728                   collisions
     00000F63  A$collisions$729                   collisions
     00000F65  A$collisions$730                   collisions
     00000F66  A$collisions$731                   collisions
     00000F68  A$collisions$732                   collisions
     00000F6A  A$collisions$737                   collisions
     00000F6A  C$collisions.c$58$2_0$123          collisions
     00000F6C  A$collisions$738                   collisions
     00000F6D  A$collisions$739                   collisions
     00000F6E  A$collisions$740                   collisions
     00000F6F  A$collisions$741                   collisions
     00000F71  A$collisions$745                   collisions
     00000F71  C$collisions.c$59$2_0$123          collisions
     00000F73  A$collisions$746                   collisions
     00000F74  A$collisions$747                   collisions
     00000F75  A$collisions$748                   collisions
     00000F76  A$collisions$749                   collisions
     00000F79  A$collisions$750                   collisions
     00000F7A  A$collisions$751                   collisions
     00000F7B  A$collisions$752                   collisions
     00000F7C  A$collisions$753                   collisions
     00000F7D  A$collisions$754                   collisions
     00000F7F  A$collisions$758                   collisions
     00000F7F  C$collisions.c$60$2_0$123          collisions
     00000F81  A$collisions$759                   collisions
     00000F82  A$collisions$760                   collisions
     00000F83  A$collisions$761                   collisions
     00000F84  A$collisions$762                   collisions
     00000F85  A$collisions$763                   collisions
     00000F86  A$collisions$764                   collisions
     00000F87  A$collisions$765                   collisions
     00000F88  A$collisions$766                   collisions
     00000F8B  A$collisions$767                   collisions
     00000F8C  A$collisions$768                   collisions
     00000F8D  A$collisions$769                   collisions
     00000F8E  A$collisions$770                   collisions
     00000F8F  A$collisions$771                   collisions
     00000F90  A$collisions$772                   collisions
     00000F91  A$collisions$773                   collisions
     00000F93  A$collisions$774                   collisions
     00000F94  A$collisions$778                   collisions
     00000F94  C$collisions.c$61$2_0$123          collisions
     00000F96  A$collisions$779                   collisions
ASxxxx Linker V03.00 + NoICE + sdld,  page 43.
Hexadecimal  [32-Bits]

Area                                    Addr        Size        Decimal Bytes (Attributes)
--------------------------------        ----        ----        ------- ----- ------------
_CODE                               00000200    00003D11 =       15633. bytes (REL,CON)

      Value  Global                              Global Defined In Module
      -----  --------------------------------   ------------------------
     00000F97  A$collisions$780                   collisions
     00000F98  A$collisions$781                   collisions
     00000F99  A$collisions$782                   collisions
     00000F9C  A$collisions$783                   collisions
     00000F9D  A$collisions$784                   collisions
     00000F9E  A$collisions$785                   collisions
     00000F9F  A$collisions$786                   collisions
     00000FA0  A$collisions$787                   collisions
     00000FA2  A$collisions$792                   collisions
     00000FA4  A$collisions$797                   collisions
     00000FA4  C$collisions.c$64$1_0$119          collisions
     00000FA4  XG$processBackGroundTile$0$0       collisions
     00000FA5  A$collisions$807                   collisions
     00000FA5  C$collisions.c$67$1_0$125          collisions
     00000FA5  G$getTileAtWorld$0$0               collisions
     00000FA5  _getTileAtWorld                    collisions
     00000FA7  A$collisions$811                   collisions
     00000FA7  C$collisions.c$71$1_0$125          collisions
     00000FA9  A$collisions$812                   collisions
     00000FAA  A$collisions$813                   collisions
     00000FAB  A$collisions$814                   collisions
     00000FAC  A$collisions$815                   collisions
     00000FAE  A$collisions$816                   collisions
     00000FB0  A$collisions$817                   collisions
     00000FB2  A$collisions$818                   collisions
     00000FB4  A$collisions$819                   collisions
     00000FB6  A$collisions$820                   collisions
     00000FB8  A$collisions$821                   collisions
     00000FBB  A$collisions$822                   collisions
     00000FBC  A$collisions$823                   collisions
     00000FBD  A$collisions$824                   collisions
     00000FBE  A$collisions$825                   collisions
     00000FBF  A$collisions$826                   collisions
     00000FC0  A$collisions$827                   collisions
     00000FC2  A$collisions$828                   collisions
     00000FC3  A$collisions$829                   collisions
     00000FC4  A$collisions$833                   collisions
     00000FC4  C$collisions.c$72$1_0$125          collisions
     00000FC6  A$collisions$834                   collisions
     00000FC7  A$collisions$835                   collisions
     00000FC8  A$collisions$836                   collisions
     00000FC9  A$collisions$837                   collisions
     00000FCB  A$collisions$838                   collisions
     00000FCD  A$collisions$839                   collisions
     00000FCF  A$collisions$840                   collisions
     00000FD1  A$collisions$841                   collisions
     00000FD3  A$collisions$842                   collisions
     00000FD5  A$collisions$843                   collisions
     00000FD6  A$collisions$844                   collisions
     00000FD7  A$collisions$848                   collisions
     00000FD7  C$collisions.c$74$1_0$125          collisions
ASxxxx Linker V03.00 + NoICE + sdld,  page 44.
Hexadecimal  [32-Bits]

Area                                    Addr        Size        Decimal Bytes (Attributes)
--------------------------------        ----        ----        ------- ----- ------------
_CODE                               00000200    00003D11 =       15633. bytes (REL,CON)

      Value  Global                              Global Defined In Module
      -----  --------------------------------   ------------------------
     00000FD9  A$collisions$849                   collisions
     00000FDA  A$collisions$850                   collisions
     00000FDB  A$collisions$851                   collisions
     00000FDD  A$collisions$852                   collisions
     00000FDE  A$collisions$853                   collisions
     00000FDF  A$collisions$854                   collisions
     00000FE0  A$collisions$855                   collisions
     00000FE1  A$collisions$856                   collisions
     00000FE2  A$collisions$860                   collisions
     00000FE2  C$collisions.c$75$1_0$125          collisions
     00000FE4  A$collisions$861                   collisions
     00000FE5  A$collisions$862                   collisions
     00000FE6  A$collisions$863                   collisions
     00000FE8  A$collisions$864                   collisions
     00000FE9  A$collisions$865                   collisions
     00000FEA  A$collisions$866                   collisions
     00000FEB  A$collisions$867                   collisions
     00000FEC  A$collisions$868                   collisions
     00000FED  A$collisions$869                   collisions
     00000FEE  A$collisions$870                   collisions
     00000FF1  A$collisions$871                   collisions
     00000FF2  A$collisions$872                   collisions
     00000FF3  A$collisions$873                   collisions
     00000FF4  A$collisions$874                   collisions
     00000FF6  A$collisions$875                   collisions
     00000FF7  A$collisions$876                   collisions
     00000FF8  A$collisions$877                   collisions
     00000FF9  A$collisions$878                   collisions
     00000FFB  A$collisions$879                   collisions
     00000FFC  A$collisions$880                   collisions
     00000FFD  A$collisions$881                   collisions
     00000FFE  A$collisions$882                   collisions
     00000FFF  A$collisions$883                   collisions
     00001000  A$collisions$884                   collisions
     00001001  A$collisions$885                   collisions
     00001002  A$collisions$889                   collisions
     00001002  C$collisions.c$76$1_0$125          collisions
     00001004  A$collisions$890                   collisions
     00001005  A$collisions$891                   collisions
     00001006  A$collisions$892                   collisions
     00001007  A$collisions$893                   collisions
     0000100A  A$collisions$894                   collisions
     0000100B  A$collisions$895                   collisions
     0000100C  A$collisions$896                   collisions
     0000100D  A$collisions$897                   collisions
     0000100F  A$collisions$898                   collisions
     00001010  A$collisions$899                   collisions
     00001011  A$collisions$900                   collisions
     00001012  A$collisions$901                   collisions
     00001014  A$collisions$902                   collisions
     00001015  A$collisions$903                   collisions
ASxxxx Linker V03.00 + NoICE + sdld,  page 45.
Hexadecimal  [32-Bits]

Area                                    Addr        Size        Decimal Bytes (Attributes)
--------------------------------        ----        ----        ------- ----- ------------
_CODE                               00000200    00003D11 =       15633. bytes (REL,CON)

      Value  Global                              Global Defined In Module
      -----  --------------------------------   ------------------------
     00001016  A$collisions$904                   collisions
     00001017  A$collisions$905                   collisions
     00001018  A$collisions$906                   collisions
     00001019  A$collisions$907                   collisions
     0000101A  A$collisions$908                   collisions
     0000101B  A$collisions$909                   collisions
     0000101C  A$collisions$910                   collisions
     0000101D  A$collisions$911                   collisions
     0000101E  A$collisions$912                   collisions
     0000101F  A$collisions$913                   collisions
     00001020  A$collisions$914                   collisions
     00001021  A$collisions$915                   collisions
     00001022  A$collisions$916                   collisions
     00001023  A$collisions$917                   collisions
     00001024  A$collisions$918                   collisions
     00001025  A$collisions$919                   collisions
     00001026  A$collisions$920                   collisions
     00001027  A$collisions$921                   collisions
     0000102A  A$collisions$922                   collisions
     0000102B  A$collisions$923                   collisions
     0000102C  A$collisions$924                   collisions
     0000102D  A$collisions$925                   collisions
     0000102E  A$collisions$926                   collisions
     0000102F  A$collisions$927                   collisions
     00001030  A$collisions$928                   collisions
     00001031  A$collisions$929                   collisions
     00001032  A$collisions$930                   collisions
     00001034  A$collisions$931                   collisions
     00001035  A$collisions$932                   collisions
     00001036  A$collisions$933                   collisions
     00001037  A$collisions$934                   collisions
     00001038  A$collisions$938                   collisions
     00001038  C$collisions.c$77$1_0$125          collisions
     0000103A  A$collisions$939                   collisions
     0000103B  A$collisions$940                   collisions
     0000103C  A$collisions$941                   collisions
     0000103E  A$collisions$945                   collisions
     0000103E  C$collisions.c$78$2_0$126          collisions
     00001040  A$collisions$946                   collisions
     00001041  A$collisions$947                   collisions
     00001042  A$collisions$948                   collisions
     00001043  A$collisions$949                   collisions
     00001044  A$collisions$950                   collisions
     00001045  A$collisions$951                   collisions
     00001046  A$collisions$952                   collisions
     00001047  A$collisions$953                   collisions
     00001048  A$collisions$954                   collisions
     00001049  A$collisions$955                   collisions
     0000104B  A$collisions$956                   collisions
     0000104C  A$collisions$957                   collisions
     0000104D  A$collisions$958                   collisions
ASxxxx Linker V03.00 + NoICE + sdld,  page 46.
Hexadecimal  [32-Bits]

Area                                    Addr        Size        Decimal Bytes (Attributes)
--------------------------------        ----        ----        ------- ----- ------------
_CODE                               00000200    00003D11 =       15633. bytes (REL,CON)

      Value  Global                              Global Defined In Module
      -----  --------------------------------   ------------------------
     0000104E  A$collisions$959                   collisions
     0000104F  A$collisions$960                   collisions
     00001050  A$collisions$961                   collisions
     00001051  A$collisions$962                   collisions
     00001052  A$collisions$963                   collisions
     00001053  A$collisions$964                   collisions
     00001054  A$collisions$965                   collisions
     00001055  A$collisions$966                   collisions
     00001056  A$collisions$967                   collisions
     00001057  A$collisions$968                   collisions
     00001058  A$collisions$969                   collisions
     00001059  A$collisions$970                   collisions
     0000105A  A$collisions$971                   collisions
     0000105B  A$collisions$972                   collisions
     0000105C  A$collisions$973                   collisions
     0000105D  A$collisions$974                   collisions
     0000105E  A$collisions$975                   collisions
     0000105F  A$collisions$976                   collisions
     00001060  A$collisions$977                   collisions
     00001063  A$collisions$978                   collisions
     00001065  A$collisions$983                   collisions
     00001065  C$collisions.c$81$1_0$125          collisions
     00001067  A$collisions$984                   collisions
     00001068  A$collisions$985                   collisions
     00001069  A$collisions$986                   collisions
     0000106A  A$collisions$990                   collisions
     0000106C  A$collisions$995                   collisions
     0000106C  C$collisions.c$82$1_0$125          collisions
     0000106C  XG$getTileAtWorld$0$0              collisions
     0000106D  A$collisions$1008                  collisions
     0000106D  C$collisions.c$84$1_0$128          collisions
     0000106D  C$collisions.c$85$1_0$128          collisions
     0000106D  G$downCollisionEnv$0$0             collisions
     0000106D  _downCollisionEnv                  collisions
     0000106F  A$collisions$1009                  collisions
     00001070  A$collisions$1010                  collisions
     00001071  A$collisions$1011                  collisions
     00001072  A$collisions$1012                  collisions
     00001073  A$collisions$1013                  collisions
     00001074  A$collisions$1014                  collisions
     00001075  A$collisions$1015                  collisions
     00001076  A$collisions$1016                  collisions
     00001077  A$collisions$1017                  collisions
     00001078  A$collisions$1018                  collisions
     00001079  A$collisions$1019                  collisions
     0000107A  A$collisions$1020                  collisions
     0000107B  A$collisions$1021                  collisions
     0000107C  A$collisions$1022                  collisions
     0000107D  A$collisions$1023                  collisions
     0000107F  A$collisions$1024                  collisions
     00001080  A$collisions$1025                  collisions
ASxxxx Linker V03.00 + NoICE + sdld,  page 47.
Hexadecimal  [32-Bits]

Area                                    Addr        Size        Decimal Bytes (Attributes)
--------------------------------        ----        ----        ------- ----- ------------
_CODE                               00000200    00003D11 =       15633. bytes (REL,CON)

      Value  Global                              Global Defined In Module
      -----  --------------------------------   ------------------------
     00001081  A$collisions$1026                  collisions
     00001082  A$collisions$1027                  collisions
     00001083  A$collisions$1028                  collisions
     00001086  A$collisions$1029                  collisions
     00001088  A$collisions$1037                  collisions
     00001088  C$collisions.c$86$1_0$128          collisions
     00001088  XG$downCollisionEnv$0$0            collisions
     00001089  A$collisions$1050                  collisions
     00001089  C$collisions.c$88$1_0$130          collisions
     00001089  C$collisions.c$89$1_0$130          collisions
     00001089  G$upCollisionEnv$0$0               collisions
     00001089  _upCollisionEnv                    collisions
     0000108A  A$collisions$1051                  collisions
     0000108B  A$collisions$1052                  collisions
     0000108C  A$collisions$1053                  collisions
     0000108E  A$collisions$1054                  collisions
     0000108F  A$collisions$1055                  collisions
     00001090  A$collisions$1056                  collisions
     00001091  A$collisions$1057                  collisions
     00001092  A$collisions$1058                  collisions
     00001094  A$collisions$1059                  collisions
     00001095  A$collisions$1060                  collisions
     00001096  A$collisions$1061                  collisions
     00001097  A$collisions$1062                  collisions
     00001098  A$collisions$1063                  collisions
     0000109B  A$collisions$1064                  collisions
     0000109D  A$collisions$1072                  collisions
     0000109D  C$collisions.c$90$1_0$130          collisions
     0000109D  XG$upCollisionEnv$0$0              collisions
     0000109E  A$collisions$1085                  collisions
     0000109E  C$collisions.c$92$1_0$132          collisions
     0000109E  C$collisions.c$93$1_0$132          collisions
     0000109E  G$leftCollisionEnv$0$0             collisions
     0000109E  _leftCollisionEnv                  collisions
     0000109F  A$collisions$1086                  collisions
     000010A0  A$collisions$1087                  collisions
     000010A1  A$collisions$1088                  collisions
     000010A3  A$collisions$1089                  collisions
     000010A4  A$collisions$1090                  collisions
     000010A5  A$collisions$1091                  collisions
     000010A6  A$collisions$1092                  collisions
     000010A7  A$collisions$1093                  collisions
     000010A9  A$collisions$1094                  collisions
     000010AA  A$collisions$1095                  collisions
     000010AB  A$collisions$1096                  collisions
     000010AC  A$collisions$1097                  collisions
     000010AD  A$collisions$1098                  collisions
     000010B0  A$collisions$1099                  collisions
     000010B2  A$collisions$1107                  collisions
     000010B2  C$collisions.c$94$1_0$132          collisions
     000010B2  XG$leftCollisionEnv$0$0            collisions
ASxxxx Linker V03.00 + NoICE + sdld,  page 48.
Hexadecimal  [32-Bits]

Area                                    Addr        Size        Decimal Bytes (Attributes)
--------------------------------        ----        ----        ------- ----- ------------
_CODE                               00000200    00003D11 =       15633. bytes (REL,CON)

      Value  Global                              Global Defined In Module
      -----  --------------------------------   ------------------------
     000010B3  A$collisions$1120                  collisions
     000010B3  C$collisions.c$96$1_0$134          collisions
     000010B3  C$collisions.c$97$1_0$134          collisions
     000010B3  G$rightCollisionEnv$0$0            collisions
     000010B3  _rightCollisionEnv                 collisions
     000010B5  A$collisions$1121                  collisions
     000010B6  A$collisions$1122                  collisions
     000010B7  A$collisions$1123                  collisions
     000010B8  A$collisions$1124                  collisions
     000010BA  A$collisions$1125                  collisions
     000010BB  A$collisions$1126                  collisions
     000010BC  A$collisions$1127                  collisions
     000010BD  A$collisions$1128                  collisions
     000010BE  A$collisions$1129                  collisions
     000010BF  A$collisions$1130                  collisions
     000010C0  A$collisions$1131                  collisions
     000010C1  A$collisions$1132                  collisions
     000010C2  A$collisions$1133                  collisions
     000010C3  A$collisions$1134                  collisions
     000010C5  A$collisions$1135                  collisions
     000010C6  A$collisions$1136                  collisions
     000010C7  A$collisions$1137                  collisions
     000010C8  A$collisions$1138                  collisions
     000010C9  A$collisions$1139                  collisions
     000010CA  A$collisions$1140                  collisions
     000010CD  A$collisions$1141                  collisions
     000010CF  A$collisions$1149                  collisions
     000010CF  C$collisions.c$98$1_0$134          collisions
     000010CF  XG$rightCollisionEnv$0$0           collisions
     000010D0  A$collisions$1162                  collisions
     000010D0  C$collisions.c$100$1_0$136         collisions
     000010D0  C$collisions.c$101$1_0$136         collisions
     000010D0  G$noMoveCollisionEnv$0$0           collisions
     000010D0  _noMoveCollisionEnv                collisions
     000010D2  A$collisions$1163                  collisions
     000010D3  A$collisions$1164                  collisions
     000010D4  A$collisions$1165                  collisions
     000010D5  A$collisions$1166                  collisions
     000010D7  A$collisions$1167                  collisions
     000010D8  A$collisions$1168                  collisions
     000010D9  A$collisions$1169                  collisions
     000010DA  A$collisions$1170                  collisions
     000010DB  A$collisions$1171                  collisions
     000010DC  A$collisions$1172                  collisions
     000010DD  A$collisions$1173                  collisions
     000010DE  A$collisions$1174                  collisions
     000010DF  A$collisions$1175                  collisions
     000010E0  A$collisions$1176                  collisions
     000010E2  A$collisions$1177                  collisions
     000010E3  A$collisions$1178                  collisions
     000010E4  A$collisions$1179                  collisions
ASxxxx Linker V03.00 + NoICE + sdld,  page 49.
Hexadecimal  [32-Bits]

Area                                    Addr        Size        Decimal Bytes (Attributes)
--------------------------------        ----        ----        ------- ----- ------------
_CODE                               00000200    00003D11 =       15633. bytes (REL,CON)

      Value  Global                              Global Defined In Module
      -----  --------------------------------   ------------------------
     000010E5  A$collisions$1180                  collisions
     000010E6  A$collisions$1181                  collisions
     000010E7  A$collisions$1182                  collisions
     000010EA  A$collisions$1183                  collisions
     000010EC  A$collisions$1191                  collisions
     000010EC  C$collisions.c$102$1_0$136         collisions
     000010EC  XG$noMoveCollisionEnv$0$0          collisions
     000010ED  A$collisions$1204                  collisions
     000010ED  C$collisions.c$104$1_0$138         collisions
     000010ED  C$collisions.c$105$1_0$138         collisions
     000010ED  G$noMoveCollisionShoot$0$0         collisions
     000010ED  _noMoveCollisionShoot              collisions
     000010EF  A$collisions$1205                  collisions
     000010F0  A$collisions$1206                  collisions
     000010F1  A$collisions$1207                  collisions
     000010F2  A$collisions$1208                  collisions
     000010F4  A$collisions$1209                  collisions
     000010F5  A$collisions$1210                  collisions
     000010F6  A$collisions$1211                  collisions
     000010F7  A$collisions$1212                  collisions
     000010F8  A$collisions$1213                  collisions
     000010F9  A$collisions$1214                  collisions
     000010FA  A$collisions$1215                  collisions
     000010FC  A$collisions$1216                  collisions
     000010FD  A$collisions$1217                  collisions
     000010FE  A$collisions$1218                  collisions
     000010FF  A$collisions$1219                  collisions
     00001101  A$collisions$1220                  collisions
     00001102  A$collisions$1221                  collisions
     00001103  A$collisions$1222                  collisions
     00001104  A$collisions$1223                  collisions
     00001105  A$collisions$1224                  collisions
     00001106  A$collisions$1225                  collisions
     00001109  A$collisions$1226                  collisions
     0000110B  A$collisions$1234                  collisions
     0000110B  C$collisions.c$106$1_0$138         collisions
     0000110B  XG$noMoveCollisionShoot$0$0        collisions
     0000110C  A$elementsbuilder$133              elementsbuilder
     0000110C  C$elementsbuilder.c$30$0_0$145     elementsbuilder
     0000110C  C$elementsbuilder.c$32$1_0$145     elementsbuilder
     0000110C  G$loadElementsForLevel$0$0         elementsbuilder
     0000110C  _loadElementsForLevel              elementsbuilder
     0000110F  A$elementsbuilder$134              elementsbuilder
     00001111  A$elementsbuilder$138              elementsbuilder
     00001111  C$elementsbuilder.c$33$1_0$145     elementsbuilder
     00001114  A$elementsbuilder$139              elementsbuilder
     00001116  A$elementsbuilder$143              elementsbuilder
     00001116  C$elementsbuilder.c$34$1_0$145     elementsbuilder
     00001119  A$elementsbuilder$144              elementsbuilder
     0000111B  A$elementsbuilder$148              elementsbuilder
     0000111B  C$elementsbuilder.c$35$1_0$145     elementsbuilder
ASxxxx Linker V03.00 + NoICE + sdld,  page 50.
Hexadecimal  [32-Bits]

Area                                    Addr        Size        Decimal Bytes (Attributes)
--------------------------------        ----        ----        ------- ----- ------------
_CODE                               00000200    00003D11 =       15633. bytes (REL,CON)

      Value  Global                              Global Defined In Module
      -----  --------------------------------   ------------------------
     0000111E  A$elementsbuilder$149              elementsbuilder
     00001120  A$elementsbuilder$153              elementsbuilder
     00001120  C$elementsbuilder.c$36$1_0$145     elementsbuilder
     00001123  A$elementsbuilder$154              elementsbuilder
     00001125  A$elementsbuilder$158              elementsbuilder
     00001125  C$elementsbuilder.c$38$1_0$145     elementsbuilder
     00001127  A$elementsbuilder$159              elementsbuilder
     00001128  A$elementsbuilder$160              elementsbuilder
     00001129  A$elementsbuilder$161              elementsbuilder
     0000112A  A$elementsbuilder$162              elementsbuilder
     0000112B  A$elementsbuilder$163              elementsbuilder
     0000112E  A$elementsbuilder$164              elementsbuilder
     0000112F  A$elementsbuilder$165              elementsbuilder
     00001132  A$elementsbuilder$166              elementsbuilder
     00001133  A$elementsbuilder$167              elementsbuilder
     00001134  A$elementsbuilder$168              elementsbuilder
     00001135  A$elementsbuilder$172              elementsbuilder
     00001135  C$elementsbuilder.c$39$1_0$145     elementsbuilder
     00001137  A$elementsbuilder$173              elementsbuilder
     00001138  A$elementsbuilder$174              elementsbuilder
     00001139  A$elementsbuilder$175              elementsbuilder
     0000113A  A$elementsbuilder$176              elementsbuilder
     0000113B  A$elementsbuilder$177              elementsbuilder
     0000113E  A$elementsbuilder$178              elementsbuilder
     0000113F  A$elementsbuilder$182              elementsbuilder
     0000113F  C$elementsbuilder.c$41$1_0$145     elementsbuilder
     00001141  A$elementsbuilder$183              elementsbuilder
     00001142  A$elementsbuilder$184              elementsbuilder
     00001143  A$elementsbuilder$185              elementsbuilder
     00001144  A$elementsbuilder$186              elementsbuilder
     00001145  A$elementsbuilder$187              elementsbuilder
     00001148  A$elementsbuilder$188              elementsbuilder
     00001149  A$elementsbuilder$189              elementsbuilder
     0000114C  A$elementsbuilder$190              elementsbuilder
     0000114D  A$elementsbuilder$191              elementsbuilder
     0000114E  A$elementsbuilder$192              elementsbuilder
     0000114F  A$elementsbuilder$200              elementsbuilder
     0000114F  C$elementsbuilder.c$45$1_0$145     elementsbuilder
     0000114F  XG$loadElementsForLevel$0$0        elementsbuilder
     00001150  A$elementsbuilder$210              elementsbuilder
     00001150  C$elementsbuilder.c$57$1_0$147     elementsbuilder
     00001150  G$createEnemyElement$0$0           elementsbuilder
     00001150  _createEnemyElement                elementsbuilder
     00001152  A$elementsbuilder$214              elementsbuilder
     00001152  C$elementsbuilder.c$59$1_0$147     elementsbuilder
     00001154  A$elementsbuilder$215              elementsbuilder
     00001155  A$elementsbuilder$216              elementsbuilder
     00001156  A$elementsbuilder$217              elementsbuilder
     00001157  A$elementsbuilder$218              elementsbuilder
     00001158  A$elementsbuilder$219              elementsbuilder
     00001159  A$elementsbuilder$220              elementsbuilder
ASxxxx Linker V03.00 + NoICE + sdld,  page 51.
Hexadecimal  [32-Bits]

Area                                    Addr        Size        Decimal Bytes (Attributes)
--------------------------------        ----        ----        ------- ----- ------------
_CODE                               00000200    00003D11 =       15633. bytes (REL,CON)

      Value  Global                              Global Defined In Module
      -----  --------------------------------   ------------------------
     0000115A  A$elementsbuilder$221              elementsbuilder
     0000115B  A$elementsbuilder$222              elementsbuilder
     0000115C  A$elementsbuilder$223              elementsbuilder
     0000115D  A$elementsbuilder$224              elementsbuilder
     0000115E  A$elementsbuilder$225              elementsbuilder
     0000115F  A$elementsbuilder$226              elementsbuilder
     00001162  A$elementsbuilder$227              elementsbuilder
     00001163  A$elementsbuilder$228              elementsbuilder
     00001164  A$elementsbuilder$229              elementsbuilder
     00001165  A$elementsbuilder$230              elementsbuilder
     00001166  A$elementsbuilder$231              elementsbuilder
     00001167  A$elementsbuilder$232              elementsbuilder
     00001168  A$elementsbuilder$233              elementsbuilder
     0000116B  A$elementsbuilder$234              elementsbuilder
     0000116C  A$elementsbuilder$235              elementsbuilder
     0000116D  A$elementsbuilder$236              elementsbuilder
     0000116E  A$elementsbuilder$237              elementsbuilder
     0000116F  A$elementsbuilder$238              elementsbuilder
     00001170  A$elementsbuilder$242              elementsbuilder
     00001170  C$elementsbuilder.c$61$1_0$147     elementsbuilder
     00001171  A$elementsbuilder$243              elementsbuilder
     00001172  A$elementsbuilder$244              elementsbuilder
     00001175  A$elementsbuilder$245              elementsbuilder
     00001176  A$elementsbuilder$246              elementsbuilder
     00001177  A$elementsbuilder$247              elementsbuilder
     00001178  A$elementsbuilder$248              elementsbuilder
     0000117A  A$elementsbuilder$249              elementsbuilder
     0000117B  A$elementsbuilder$250              elementsbuilder
     0000117C  A$elementsbuilder$254              elementsbuilder
     0000117C  C$elementsbuilder.c$62$1_0$147     elementsbuilder
     0000117D  A$elementsbuilder$255              elementsbuilder
     0000117E  A$elementsbuilder$256              elementsbuilder
     00001181  A$elementsbuilder$257              elementsbuilder
     00001182  A$elementsbuilder$258              elementsbuilder
     00001183  A$elementsbuilder$259              elementsbuilder
     00001184  A$elementsbuilder$260              elementsbuilder
     00001186  A$elementsbuilder$261              elementsbuilder
     00001187  A$elementsbuilder$262              elementsbuilder
     00001188  A$elementsbuilder$266              elementsbuilder
     00001188  C$elementsbuilder.c$63$1_0$147     elementsbuilder
     00001189  A$elementsbuilder$267              elementsbuilder
     0000118A  A$elementsbuilder$268              elementsbuilder
     0000118D  A$elementsbuilder$269              elementsbuilder
     0000118E  A$elementsbuilder$270              elementsbuilder
     0000118F  A$elementsbuilder$271              elementsbuilder
     00001190  A$elementsbuilder$272              elementsbuilder
     00001191  A$elementsbuilder$273              elementsbuilder
     00001192  A$elementsbuilder$277              elementsbuilder
     00001192  C$elementsbuilder.c$65$1_0$147     elementsbuilder
     00001193  A$elementsbuilder$278              elementsbuilder
     00001194  A$elementsbuilder$279              elementsbuilder
ASxxxx Linker V03.00 + NoICE + sdld,  page 52.
Hexadecimal  [32-Bits]

Area                                    Addr        Size        Decimal Bytes (Attributes)
--------------------------------        ----        ----        ------- ----- ------------
_CODE                               00000200    00003D11 =       15633. bytes (REL,CON)

      Value  Global                              Global Defined In Module
      -----  --------------------------------   ------------------------
     00001197  A$elementsbuilder$280              elementsbuilder
     00001198  A$elementsbuilder$281              elementsbuilder
     0000119A  A$elementsbuilder$285              elementsbuilder
     0000119A  C$elementsbuilder.c$66$1_0$147     elementsbuilder
     0000119B  A$elementsbuilder$286              elementsbuilder
     0000119C  A$elementsbuilder$287              elementsbuilder
     0000119F  A$elementsbuilder$288              elementsbuilder
     000011A0  A$elementsbuilder$289              elementsbuilder
     000011A2  A$elementsbuilder$293              elementsbuilder
     000011A2  C$elementsbuilder.c$67$1_0$147     elementsbuilder
     000011A3  A$elementsbuilder$294              elementsbuilder
     000011A4  A$elementsbuilder$295              elementsbuilder
     000011A7  A$elementsbuilder$296              elementsbuilder
     000011A8  A$elementsbuilder$297              elementsbuilder
     000011A9  A$elementsbuilder$298              elementsbuilder
     000011AA  A$elementsbuilder$299              elementsbuilder
     000011AB  A$elementsbuilder$300              elementsbuilder
     000011AC  A$elementsbuilder$304              elementsbuilder
     000011AC  C$elementsbuilder.c$69$1_0$147     elementsbuilder
     000011AD  A$elementsbuilder$305              elementsbuilder
     000011AE  A$elementsbuilder$306              elementsbuilder
     000011B1  A$elementsbuilder$307              elementsbuilder
     000011B2  A$elementsbuilder$308              elementsbuilder
     000011B3  A$elementsbuilder$309              elementsbuilder
     000011B4  A$elementsbuilder$310              elementsbuilder
     000011B5  A$elementsbuilder$311              elementsbuilder
     000011B6  A$elementsbuilder$315              elementsbuilder
     000011B6  C$elementsbuilder.c$70$1_0$147     elementsbuilder
     000011B7  A$elementsbuilder$316              elementsbuilder
     000011B8  A$elementsbuilder$317              elementsbuilder
     000011BB  A$elementsbuilder$318              elementsbuilder
     000011BC  A$elementsbuilder$319              elementsbuilder
     000011BD  A$elementsbuilder$320              elementsbuilder
     000011BE  A$elementsbuilder$321              elementsbuilder
     000011BF  A$elementsbuilder$322              elementsbuilder
     000011C0  A$elementsbuilder$326              elementsbuilder
     000011C0  C$elementsbuilder.c$72$1_0$147     elementsbuilder
     000011C1  A$elementsbuilder$327              elementsbuilder
     000011C2  A$elementsbuilder$328              elementsbuilder
     000011C5  A$elementsbuilder$329              elementsbuilder
     000011C6  A$elementsbuilder$330              elementsbuilder
     000011C7  A$elementsbuilder$331              elementsbuilder
     000011C8  A$elementsbuilder$332              elementsbuilder
     000011CA  A$elementsbuilder$333              elementsbuilder
     000011CB  A$elementsbuilder$334              elementsbuilder
     000011CD  A$elementsbuilder$335              elementsbuilder
     000011CE  A$elementsbuilder$336              elementsbuilder
     000011CF  A$elementsbuilder$340              elementsbuilder
     000011CF  C$elementsbuilder.c$73$1_0$147     elementsbuilder
     000011D0  A$elementsbuilder$341              elementsbuilder
     000011D1  A$elementsbuilder$342              elementsbuilder
ASxxxx Linker V03.00 + NoICE + sdld,  page 53.
Hexadecimal  [32-Bits]

Area                                    Addr        Size        Decimal Bytes (Attributes)
--------------------------------        ----        ----        ------- ----- ------------
_CODE                               00000200    00003D11 =       15633. bytes (REL,CON)

      Value  Global                              Global Defined In Module
      -----  --------------------------------   ------------------------
     000011D4  A$elementsbuilder$343              elementsbuilder
     000011D5  A$elementsbuilder$344              elementsbuilder
     000011D6  A$elementsbuilder$345              elementsbuilder
     000011D7  A$elementsbuilder$346              elementsbuilder
     000011D8  A$elementsbuilder$347              elementsbuilder
     000011D9  A$elementsbuilder$351              elementsbuilder
     000011D9  C$elementsbuilder.c$76$1_0$147     elementsbuilder
     000011DA  A$elementsbuilder$352              elementsbuilder
     000011DB  A$elementsbuilder$353              elementsbuilder
     000011DE  A$elementsbuilder$354              elementsbuilder
     000011DF  A$elementsbuilder$355              elementsbuilder
     000011E0  A$elementsbuilder$356              elementsbuilder
     000011E1  A$elementsbuilder$357              elementsbuilder
     000011E3  A$elementsbuilder$358              elementsbuilder
     000011E4  A$elementsbuilder$359              elementsbuilder
     000011E5  A$elementsbuilder$363              elementsbuilder
     000011E5  C$elementsbuilder.c$77$1_0$147     elementsbuilder
     000011E6  A$elementsbuilder$364              elementsbuilder
     000011E7  A$elementsbuilder$365              elementsbuilder
     000011EA  A$elementsbuilder$366              elementsbuilder
     000011EB  A$elementsbuilder$367              elementsbuilder
     000011EC  A$elementsbuilder$368              elementsbuilder
     000011ED  A$elementsbuilder$369              elementsbuilder
     000011EF  A$elementsbuilder$370              elementsbuilder
     000011F0  A$elementsbuilder$371              elementsbuilder
     000011F1  A$elementsbuilder$375              elementsbuilder
     000011F1  C$elementsbuilder.c$80$1_0$147     elementsbuilder
     000011F2  A$elementsbuilder$376              elementsbuilder
     000011F3  A$elementsbuilder$377              elementsbuilder
     000011F6  A$elementsbuilder$378              elementsbuilder
     000011F7  A$elementsbuilder$379              elementsbuilder
     000011F8  A$elementsbuilder$380              elementsbuilder
     000011F9  A$elementsbuilder$381              elementsbuilder
     000011FB  A$elementsbuilder$382              elementsbuilder
     000011FC  A$elementsbuilder$383              elementsbuilder
     000011FD  A$elementsbuilder$387              elementsbuilder
     000011FE  A$elementsbuilder$388              elementsbuilder
     00001200  A$elementsbuilder$389              elementsbuilder
     00001201  A$elementsbuilder$393              elementsbuilder
     00001201  C$elementsbuilder.c$85$1_0$147     elementsbuilder
     00001202  A$elementsbuilder$394              elementsbuilder
     00001203  A$elementsbuilder$395              elementsbuilder
     00001206  A$elementsbuilder$396              elementsbuilder
     00001207  A$elementsbuilder$397              elementsbuilder
     00001208  A$elementsbuilder$398              elementsbuilder
     00001209  A$elementsbuilder$399              elementsbuilder
     0000120B  A$elementsbuilder$400              elementsbuilder
     0000120C  A$elementsbuilder$401              elementsbuilder
     0000120D  A$elementsbuilder$402              elementsbuilder
     0000120E  A$elementsbuilder$403              elementsbuilder
     00001210  A$elementsbuilder$404              elementsbuilder
ASxxxx Linker V03.00 + NoICE + sdld,  page 54.
Hexadecimal  [32-Bits]

Area                                    Addr        Size        Decimal Bytes (Attributes)
--------------------------------        ----        ----        ------- ----- ------------
_CODE                               00000200    00003D11 =       15633. bytes (REL,CON)

      Value  Global                              Global Defined In Module
      -----  --------------------------------   ------------------------
     00001211  A$elementsbuilder$405              elementsbuilder
     00001213  A$elementsbuilder$406              elementsbuilder
     00001214  A$elementsbuilder$407              elementsbuilder
     00001216  A$elementsbuilder$408              elementsbuilder
     00001217  A$elementsbuilder$412              elementsbuilder
     00001217  C$elementsbuilder.c$86$1_0$147     elementsbuilder
     00001218  A$elementsbuilder$413              elementsbuilder
     00001219  A$elementsbuilder$414              elementsbuilder
     0000121C  A$elementsbuilder$415              elementsbuilder
     0000121D  A$elementsbuilder$416              elementsbuilder
     0000121E  A$elementsbuilder$417              elementsbuilder
     0000121F  A$elementsbuilder$418              elementsbuilder
     00001221  A$elementsbuilder$419              elementsbuilder
     00001222  A$elementsbuilder$420              elementsbuilder
     00001223  A$elementsbuilder$421              elementsbuilder
     00001224  A$elementsbuilder$422              elementsbuilder
     00001226  A$elementsbuilder$423              elementsbuilder
     00001227  A$elementsbuilder$427              elementsbuilder
     00001227  C$elementsbuilder.c$89$1_0$147     elementsbuilder
     00001228  A$elementsbuilder$428              elementsbuilder
     00001229  A$elementsbuilder$429              elementsbuilder
     0000122A  A$elementsbuilder$430              elementsbuilder
     0000122B  A$elementsbuilder$431              elementsbuilder
     0000122C  A$elementsbuilder$432              elementsbuilder
     0000122D  A$elementsbuilder$433              elementsbuilder
     0000122E  A$elementsbuilder$434              elementsbuilder
     00001230  A$elementsbuilder$435              elementsbuilder
     00001231  A$elementsbuilder$436              elementsbuilder
     00001232  A$elementsbuilder$437              elementsbuilder
     00001233  A$elementsbuilder$438              elementsbuilder
     00001235  A$elementsbuilder$439              elementsbuilder
     00001236  A$elementsbuilder$443              elementsbuilder
     00001236  C$elementsbuilder.c$90$1_0$147     elementsbuilder
     00001237  A$elementsbuilder$444              elementsbuilder
     00001238  A$elementsbuilder$445              elementsbuilder
     0000123B  A$elementsbuilder$446              elementsbuilder
     0000123C  A$elementsbuilder$447              elementsbuilder
     0000123D  A$elementsbuilder$448              elementsbuilder
     0000123E  A$elementsbuilder$449              elementsbuilder
     00001240  A$elementsbuilder$450              elementsbuilder
     00001241  A$elementsbuilder$451              elementsbuilder
     00001242  A$elementsbuilder$452              elementsbuilder
     00001243  A$elementsbuilder$453              elementsbuilder
     00001245  A$elementsbuilder$454              elementsbuilder
     00001246  A$elementsbuilder$458              elementsbuilder
     00001246  C$elementsbuilder.c$91$1_0$147     elementsbuilder
     00001247  A$elementsbuilder$459              elementsbuilder
     00001248  A$elementsbuilder$460              elementsbuilder
     0000124B  A$elementsbuilder$461              elementsbuilder
     0000124C  A$elementsbuilder$462              elementsbuilder
     0000124D  A$elementsbuilder$463              elementsbuilder
ASxxxx Linker V03.00 + NoICE + sdld,  page 55.
Hexadecimal  [32-Bits]

Area                                    Addr        Size        Decimal Bytes (Attributes)
--------------------------------        ----        ----        ------- ----- ------------
_CODE                               00000200    00003D11 =       15633. bytes (REL,CON)

      Value  Global                              Global Defined In Module
      -----  --------------------------------   ------------------------
     0000124E  A$elementsbuilder$464              elementsbuilder
     00001250  A$elementsbuilder$465              elementsbuilder
     00001251  A$elementsbuilder$466              elementsbuilder
     00001252  A$elementsbuilder$467              elementsbuilder
     00001253  A$elementsbuilder$468              elementsbuilder
     00001255  A$elementsbuilder$469              elementsbuilder
     00001256  A$elementsbuilder$473              elementsbuilder
     00001256  C$elementsbuilder.c$92$1_0$147     elementsbuilder
     00001257  A$elementsbuilder$474              elementsbuilder
     00001258  A$elementsbuilder$475              elementsbuilder
     0000125B  A$elementsbuilder$476              elementsbuilder
     0000125C  A$elementsbuilder$477              elementsbuilder
     0000125D  A$elementsbuilder$478              elementsbuilder
     0000125E  A$elementsbuilder$479              elementsbuilder
     00001260  A$elementsbuilder$480              elementsbuilder
     00001261  A$elementsbuilder$481              elementsbuilder
     00001262  A$elementsbuilder$482              elementsbuilder
     00001263  A$elementsbuilder$483              elementsbuilder
     00001265  A$elementsbuilder$484              elementsbuilder
     00001266  A$elementsbuilder$488              elementsbuilder
     00001266  C$elementsbuilder.c$94$1_0$147     elementsbuilder
     00001267  A$elementsbuilder$489              elementsbuilder
     00001268  A$elementsbuilder$490              elementsbuilder
     0000126B  A$elementsbuilder$491              elementsbuilder
     0000126C  A$elementsbuilder$492              elementsbuilder
     0000126D  A$elementsbuilder$493              elementsbuilder
     0000126E  A$elementsbuilder$494              elementsbuilder
     00001270  A$elementsbuilder$495              elementsbuilder
     00001271  A$elementsbuilder$496              elementsbuilder
     00001272  A$elementsbuilder$497              elementsbuilder
     00001273  A$elementsbuilder$498              elementsbuilder
     00001275  A$elementsbuilder$499              elementsbuilder
     00001276  A$elementsbuilder$503              elementsbuilder
     00001276  C$elementsbuilder.c$95$1_0$147     elementsbuilder
     00001277  A$elementsbuilder$504              elementsbuilder
     00001278  A$elementsbuilder$505              elementsbuilder
     0000127B  A$elementsbuilder$506              elementsbuilder
     0000127C  A$elementsbuilder$507              elementsbuilder
     0000127D  A$elementsbuilder$508              elementsbuilder
     0000127E  A$elementsbuilder$509              elementsbuilder
     00001280  A$elementsbuilder$510              elementsbuilder
     00001281  A$elementsbuilder$511              elementsbuilder
     00001282  A$elementsbuilder$512              elementsbuilder
     00001283  A$elementsbuilder$513              elementsbuilder
     00001285  A$elementsbuilder$514              elementsbuilder
     00001286  A$elementsbuilder$518              elementsbuilder
     00001286  C$elementsbuilder.c$96$1_0$147     elementsbuilder
     00001287  A$elementsbuilder$519              elementsbuilder
     00001288  A$elementsbuilder$520              elementsbuilder
     0000128B  A$elementsbuilder$521              elementsbuilder
     0000128C  A$elementsbuilder$522              elementsbuilder
ASxxxx Linker V03.00 + NoICE + sdld,  page 56.
Hexadecimal  [32-Bits]

Area                                    Addr        Size        Decimal Bytes (Attributes)
--------------------------------        ----        ----        ------- ----- ------------
_CODE                               00000200    00003D11 =       15633. bytes (REL,CON)

      Value  Global                              Global Defined In Module
      -----  --------------------------------   ------------------------
     0000128D  A$elementsbuilder$523              elementsbuilder
     0000128E  A$elementsbuilder$524              elementsbuilder
     00001290  A$elementsbuilder$525              elementsbuilder
     00001291  A$elementsbuilder$526              elementsbuilder
     00001292  A$elementsbuilder$527              elementsbuilder
     00001293  A$elementsbuilder$528              elementsbuilder
     00001295  A$elementsbuilder$529              elementsbuilder
     00001296  A$elementsbuilder$533              elementsbuilder
     00001296  C$elementsbuilder.c$97$1_0$147     elementsbuilder
     00001297  A$elementsbuilder$534              elementsbuilder
     00001298  A$elementsbuilder$535              elementsbuilder
     0000129B  A$elementsbuilder$536              elementsbuilder
     0000129C  A$elementsbuilder$537              elementsbuilder
     0000129D  A$elementsbuilder$538              elementsbuilder
     0000129E  A$elementsbuilder$539              elementsbuilder
     000012A0  A$elementsbuilder$540              elementsbuilder
     000012A1  A$elementsbuilder$541              elementsbuilder
     000012A2  A$elementsbuilder$542              elementsbuilder
     000012A3  A$elementsbuilder$543              elementsbuilder
     000012A5  A$elementsbuilder$544              elementsbuilder
     000012A6  A$elementsbuilder$548              elementsbuilder
     000012A6  C$elementsbuilder.c$98$1_0$147     elementsbuilder
     000012A7  A$elementsbuilder$549              elementsbuilder
     000012A8  A$elementsbuilder$550              elementsbuilder
     000012AB  A$elementsbuilder$551              elementsbuilder
     000012AC  A$elementsbuilder$552              elementsbuilder
     000012AD  A$elementsbuilder$553              elementsbuilder
     000012AE  A$elementsbuilder$554              elementsbuilder
     000012B0  A$elementsbuilder$555              elementsbuilder
     000012B1  A$elementsbuilder$556              elementsbuilder
     000012B2  A$elementsbuilder$557              elementsbuilder
     000012B3  A$elementsbuilder$558              elementsbuilder
     000012B5  A$elementsbuilder$559              elementsbuilder
     000012B6  A$elementsbuilder$563              elementsbuilder
     000012B6  C$elementsbuilder.c$100$1_0$147    elementsbuilder
     000012B7  A$elementsbuilder$564              elementsbuilder
     000012B8  A$elementsbuilder$565              elementsbuilder
     000012BB  A$elementsbuilder$566              elementsbuilder
     000012BC  A$elementsbuilder$567              elementsbuilder
     000012BD  A$elementsbuilder$568              elementsbuilder
     000012BE  A$elementsbuilder$569              elementsbuilder
     000012C0  A$elementsbuilder$570              elementsbuilder
     000012C1  A$elementsbuilder$571              elementsbuilder
     000012C2  A$elementsbuilder$572              elementsbuilder
     000012C3  A$elementsbuilder$573              elementsbuilder
     000012C5  A$elementsbuilder$574              elementsbuilder
     000012C6  A$elementsbuilder$578              elementsbuilder
     000012C6  C$elementsbuilder.c$101$1_0$147    elementsbuilder
     000012C7  A$elementsbuilder$579              elementsbuilder
     000012C8  A$elementsbuilder$580              elementsbuilder
     000012CB  A$elementsbuilder$581              elementsbuilder
ASxxxx Linker V03.00 + NoICE + sdld,  page 57.
Hexadecimal  [32-Bits]

Area                                    Addr        Size        Decimal Bytes (Attributes)
--------------------------------        ----        ----        ------- ----- ------------
_CODE                               00000200    00003D11 =       15633. bytes (REL,CON)

      Value  Global                              Global Defined In Module
      -----  --------------------------------   ------------------------
     000012CC  A$elementsbuilder$582              elementsbuilder
     000012CD  A$elementsbuilder$583              elementsbuilder
     000012CE  A$elementsbuilder$584              elementsbuilder
     000012D0  A$elementsbuilder$585              elementsbuilder
     000012D1  A$elementsbuilder$586              elementsbuilder
     000012D2  A$elementsbuilder$587              elementsbuilder
     000012D3  A$elementsbuilder$588              elementsbuilder
     000012D5  A$elementsbuilder$589              elementsbuilder
     000012D6  A$elementsbuilder$593              elementsbuilder
     000012D6  C$elementsbuilder.c$102$1_0$147    elementsbuilder
     000012D7  A$elementsbuilder$594              elementsbuilder
     000012D8  A$elementsbuilder$595              elementsbuilder
     000012DB  A$elementsbuilder$596              elementsbuilder
     000012DC  A$elementsbuilder$597              elementsbuilder
     000012DD  A$elementsbuilder$598              elementsbuilder
     000012DE  A$elementsbuilder$599              elementsbuilder
     000012E0  A$elementsbuilder$600              elementsbuilder
     000012E1  A$elementsbuilder$601              elementsbuilder
     000012E2  A$elementsbuilder$602              elementsbuilder
     000012E3  A$elementsbuilder$603              elementsbuilder
     000012E5  A$elementsbuilder$604              elementsbuilder
     000012E6  A$elementsbuilder$608              elementsbuilder
     000012E6  C$elementsbuilder.c$103$1_0$147    elementsbuilder
     000012E7  A$elementsbuilder$609              elementsbuilder
     000012E8  A$elementsbuilder$610              elementsbuilder
     000012EB  A$elementsbuilder$611              elementsbuilder
     000012EC  A$elementsbuilder$612              elementsbuilder
     000012ED  A$elementsbuilder$613              elementsbuilder
     000012EE  A$elementsbuilder$614              elementsbuilder
     000012F0  A$elementsbuilder$615              elementsbuilder
     000012F1  A$elementsbuilder$616              elementsbuilder
     000012F2  A$elementsbuilder$617              elementsbuilder
     000012F3  A$elementsbuilder$618              elementsbuilder
     000012F5  A$elementsbuilder$619              elementsbuilder
     000012F6  A$elementsbuilder$623              elementsbuilder
     000012F6  C$elementsbuilder.c$104$1_0$147    elementsbuilder
     000012F7  A$elementsbuilder$624              elementsbuilder
     000012F8  A$elementsbuilder$625              elementsbuilder
     000012FB  A$elementsbuilder$626              elementsbuilder
     000012FC  A$elementsbuilder$627              elementsbuilder
     000012FD  A$elementsbuilder$628              elementsbuilder
     000012FE  A$elementsbuilder$629              elementsbuilder
     00001300  A$elementsbuilder$630              elementsbuilder
     00001301  A$elementsbuilder$631              elementsbuilder
     00001302  A$elementsbuilder$632              elementsbuilder
     00001303  A$elementsbuilder$633              elementsbuilder
     00001305  A$elementsbuilder$634              elementsbuilder
     00001306  A$elementsbuilder$638              elementsbuilder
     00001306  C$elementsbuilder.c$106$1_0$147    elementsbuilder
     00001307  A$elementsbuilder$639              elementsbuilder
     00001308  A$elementsbuilder$640              elementsbuilder
ASxxxx Linker V03.00 + NoICE + sdld,  page 58.
Hexadecimal  [32-Bits]

Area                                    Addr        Size        Decimal Bytes (Attributes)
--------------------------------        ----        ----        ------- ----- ------------
_CODE                               00000200    00003D11 =       15633. bytes (REL,CON)

      Value  Global                              Global Defined In Module
      -----  --------------------------------   ------------------------
     0000130B  A$elementsbuilder$641              elementsbuilder
     0000130C  A$elementsbuilder$642              elementsbuilder
     0000130D  A$elementsbuilder$643              elementsbuilder
     0000130E  A$elementsbuilder$644              elementsbuilder
     00001310  A$elementsbuilder$645              elementsbuilder
     00001311  A$elementsbuilder$646              elementsbuilder
     00001312  A$elementsbuilder$647              elementsbuilder
     00001313  A$elementsbuilder$648              elementsbuilder
     00001315  A$elementsbuilder$649              elementsbuilder
     00001316  A$elementsbuilder$653              elementsbuilder
     00001316  C$elementsbuilder.c$107$1_0$147    elementsbuilder
     00001317  A$elementsbuilder$654              elementsbuilder
     00001318  A$elementsbuilder$655              elementsbuilder
     0000131B  A$elementsbuilder$656              elementsbuilder
     0000131C  A$elementsbuilder$657              elementsbuilder
     0000131D  A$elementsbuilder$658              elementsbuilder
     0000131E  A$elementsbuilder$659              elementsbuilder
     00001320  A$elementsbuilder$660              elementsbuilder
     00001321  A$elementsbuilder$661              elementsbuilder
     00001322  A$elementsbuilder$662              elementsbuilder
     00001323  A$elementsbuilder$663              elementsbuilder
     00001325  A$elementsbuilder$664              elementsbuilder
     00001326  A$elementsbuilder$668              elementsbuilder
     00001326  C$elementsbuilder.c$108$1_0$147    elementsbuilder
     00001327  A$elementsbuilder$669              elementsbuilder
     00001328  A$elementsbuilder$670              elementsbuilder
     0000132B  A$elementsbuilder$671              elementsbuilder
     0000132C  A$elementsbuilder$672              elementsbuilder
     0000132D  A$elementsbuilder$673              elementsbuilder
     0000132E  A$elementsbuilder$674              elementsbuilder
     00001330  A$elementsbuilder$675              elementsbuilder
     00001331  A$elementsbuilder$676              elementsbuilder
     00001332  A$elementsbuilder$677              elementsbuilder
     00001333  A$elementsbuilder$678              elementsbuilder
     00001335  A$elementsbuilder$679              elementsbuilder
     00001336  A$elementsbuilder$683              elementsbuilder
     00001336  C$elementsbuilder.c$109$1_0$147    elementsbuilder
     00001337  A$elementsbuilder$684              elementsbuilder
     00001338  A$elementsbuilder$685              elementsbuilder
     0000133B  A$elementsbuilder$686              elementsbuilder
     0000133C  A$elementsbuilder$687              elementsbuilder
     0000133D  A$elementsbuilder$688              elementsbuilder
     0000133E  A$elementsbuilder$689              elementsbuilder
     00001340  A$elementsbuilder$690              elementsbuilder
     00001341  A$elementsbuilder$691              elementsbuilder
     00001342  A$elementsbuilder$692              elementsbuilder
     00001343  A$elementsbuilder$693              elementsbuilder
     00001345  A$elementsbuilder$694              elementsbuilder
     00001346  A$elementsbuilder$698              elementsbuilder
     00001346  C$elementsbuilder.c$110$1_0$147    elementsbuilder
     00001347  A$elementsbuilder$699              elementsbuilder
ASxxxx Linker V03.00 + NoICE + sdld,  page 59.
Hexadecimal  [32-Bits]

Area                                    Addr        Size        Decimal Bytes (Attributes)
--------------------------------        ----        ----        ------- ----- ------------
_CODE                               00000200    00003D11 =       15633. bytes (REL,CON)

      Value  Global                              Global Defined In Module
      -----  --------------------------------   ------------------------
     00001348  A$elementsbuilder$700              elementsbuilder
     0000134B  A$elementsbuilder$701              elementsbuilder
     0000134C  A$elementsbuilder$702              elementsbuilder
     0000134D  A$elementsbuilder$703              elementsbuilder
     0000134E  A$elementsbuilder$704              elementsbuilder
     00001350  A$elementsbuilder$705              elementsbuilder
     00001351  A$elementsbuilder$706              elementsbuilder
     00001352  A$elementsbuilder$707              elementsbuilder
     00001353  A$elementsbuilder$708              elementsbuilder
     00001355  A$elementsbuilder$709              elementsbuilder
     00001356  A$elementsbuilder$713              elementsbuilder
     00001356  C$elementsbuilder.c$83$1_0$147     elementsbuilder
     00001358  A$elementsbuilder$714              elementsbuilder
     00001359  A$elementsbuilder$715              elementsbuilder
     0000135B  A$elementsbuilder$716              elementsbuilder
     0000135E  A$elementsbuilder$720              elementsbuilder
     0000135E  C$elementsbuilder.c$85$2_0$148     elementsbuilder
     00001360  A$elementsbuilder$721              elementsbuilder
     00001361  A$elementsbuilder$722              elementsbuilder
     00001362  A$elementsbuilder$723              elementsbuilder
     00001363  A$elementsbuilder$724              elementsbuilder
     00001364  A$elementsbuilder$728              elementsbuilder
     00001364  C$elementsbuilder.c$86$2_0$148     elementsbuilder
     00001365  A$elementsbuilder$729              elementsbuilder
     00001366  A$elementsbuilder$730              elementsbuilder
     00001367  A$elementsbuilder$731              elementsbuilder
     00001368  A$elementsbuilder$732              elementsbuilder
     00001369  A$elementsbuilder$733              elementsbuilder
     0000136B  A$elementsbuilder$737              elementsbuilder
     0000136B  C$elementsbuilder.c$88$2_0$148     elementsbuilder
     0000136C  A$elementsbuilder$738              elementsbuilder
     0000136D  A$elementsbuilder$739              elementsbuilder
     0000136F  A$elementsbuilder$743              elementsbuilder
     0000136F  C$elementsbuilder.c$89$2_0$148     elementsbuilder
     00001371  A$elementsbuilder$744              elementsbuilder
     00001372  A$elementsbuilder$745              elementsbuilder
     00001373  A$elementsbuilder$746              elementsbuilder
     00001374  A$elementsbuilder$747              elementsbuilder
     00001376  A$elementsbuilder$751              elementsbuilder
     00001376  C$elementsbuilder.c$90$2_0$148     elementsbuilder
     00001378  A$elementsbuilder$752              elementsbuilder
     00001379  A$elementsbuilder$753              elementsbuilder
     0000137A  A$elementsbuilder$754              elementsbuilder
     0000137B  A$elementsbuilder$755              elementsbuilder
     0000137D  A$elementsbuilder$759              elementsbuilder
     0000137D  C$elementsbuilder.c$91$2_0$148     elementsbuilder
     0000137F  A$elementsbuilder$760              elementsbuilder
     00001380  A$elementsbuilder$761              elementsbuilder
     00001381  A$elementsbuilder$762              elementsbuilder
     00001382  A$elementsbuilder$763              elementsbuilder
     00001384  A$elementsbuilder$767              elementsbuilder
ASxxxx Linker V03.00 + NoICE + sdld,  page 60.
Hexadecimal  [32-Bits]

Area                                    Addr        Size        Decimal Bytes (Attributes)
--------------------------------        ----        ----        ------- ----- ------------
_CODE                               00000200    00003D11 =       15633. bytes (REL,CON)

      Value  Global                              Global Defined In Module
      -----  --------------------------------   ------------------------
     00001384  C$elementsbuilder.c$92$2_0$148     elementsbuilder
     00001386  A$elementsbuilder$768              elementsbuilder
     00001387  A$elementsbuilder$769              elementsbuilder
     00001388  A$elementsbuilder$770              elementsbuilder
     00001389  A$elementsbuilder$771              elementsbuilder
     0000138B  A$elementsbuilder$775              elementsbuilder
     0000138B  C$elementsbuilder.c$94$2_0$148     elementsbuilder
     0000138D  A$elementsbuilder$776              elementsbuilder
     0000138E  A$elementsbuilder$777              elementsbuilder
     0000138F  A$elementsbuilder$778              elementsbuilder
     00001390  A$elementsbuilder$779              elementsbuilder
     00001392  A$elementsbuilder$783              elementsbuilder
     00001392  C$elementsbuilder.c$95$2_0$148     elementsbuilder
     00001394  A$elementsbuilder$784              elementsbuilder
     00001395  A$elementsbuilder$785              elementsbuilder
     00001396  A$elementsbuilder$786              elementsbuilder
     00001397  A$elementsbuilder$787              elementsbuilder
     00001399  A$elementsbuilder$791              elementsbuilder
     00001399  C$elementsbuilder.c$96$2_0$148     elementsbuilder
     0000139B  A$elementsbuilder$792              elementsbuilder
     0000139C  A$elementsbuilder$793              elementsbuilder
     0000139D  A$elementsbuilder$794              elementsbuilder
     0000139E  A$elementsbuilder$795              elementsbuilder
     000013A0  A$elementsbuilder$799              elementsbuilder
     000013A0  C$elementsbuilder.c$97$2_0$148     elementsbuilder
     000013A2  A$elementsbuilder$800              elementsbuilder
     000013A3  A$elementsbuilder$801              elementsbuilder
     000013A4  A$elementsbuilder$802              elementsbuilder
     000013A5  A$elementsbuilder$803              elementsbuilder
     000013A7  A$elementsbuilder$807              elementsbuilder
     000013A7  C$elementsbuilder.c$98$2_0$148     elementsbuilder
     000013A9  A$elementsbuilder$808              elementsbuilder
     000013AA  A$elementsbuilder$809              elementsbuilder
     000013AB  A$elementsbuilder$810              elementsbuilder
     000013AC  A$elementsbuilder$811              elementsbuilder
     000013AE  A$elementsbuilder$815              elementsbuilder
     000013AE  C$elementsbuilder.c$100$2_0$148    elementsbuilder
     000013B0  A$elementsbuilder$816              elementsbuilder
     000013B1  A$elementsbuilder$817              elementsbuilder
     000013B2  A$elementsbuilder$818              elementsbuilder
     000013B3  A$elementsbuilder$819              elementsbuilder
     000013B5  A$elementsbuilder$823              elementsbuilder
     000013B5  C$elementsbuilder.c$101$2_0$148    elementsbuilder
     000013B7  A$elementsbuilder$824              elementsbuilder
     000013B8  A$elementsbuilder$825              elementsbuilder
     000013B9  A$elementsbuilder$826              elementsbuilder
     000013BA  A$elementsbuilder$827              elementsbuilder
     000013BC  A$elementsbuilder$831              elementsbuilder
     000013BC  C$elementsbuilder.c$102$2_0$148    elementsbuilder
     000013BE  A$elementsbuilder$832              elementsbuilder
     000013BF  A$elementsbuilder$833              elementsbuilder
ASxxxx Linker V03.00 + NoICE + sdld,  page 61.
Hexadecimal  [32-Bits]

Area                                    Addr        Size        Decimal Bytes (Attributes)
--------------------------------        ----        ----        ------- ----- ------------
_CODE                               00000200    00003D11 =       15633. bytes (REL,CON)

      Value  Global                              Global Defined In Module
      -----  --------------------------------   ------------------------
     000013C0  A$elementsbuilder$834              elementsbuilder
     000013C1  A$elementsbuilder$835              elementsbuilder
     000013C3  A$elementsbuilder$839              elementsbuilder
     000013C3  C$elementsbuilder.c$103$2_0$148    elementsbuilder
     000013C5  A$elementsbuilder$840              elementsbuilder
     000013C6  A$elementsbuilder$841              elementsbuilder
     000013C7  A$elementsbuilder$842              elementsbuilder
     000013C8  A$elementsbuilder$843              elementsbuilder
     000013CA  A$elementsbuilder$847              elementsbuilder
     000013CA  C$elementsbuilder.c$104$2_0$148    elementsbuilder
     000013CC  A$elementsbuilder$848              elementsbuilder
     000013CD  A$elementsbuilder$849              elementsbuilder
     000013CE  A$elementsbuilder$850              elementsbuilder
     000013CF  A$elementsbuilder$851              elementsbuilder
     000013D1  A$elementsbuilder$855              elementsbuilder
     000013D1  C$elementsbuilder.c$106$2_0$148    elementsbuilder
     000013D3  A$elementsbuilder$856              elementsbuilder
     000013D4  A$elementsbuilder$857              elementsbuilder
     000013D5  A$elementsbuilder$858              elementsbuilder
     000013D6  A$elementsbuilder$859              elementsbuilder
     000013D8  A$elementsbuilder$863              elementsbuilder
     000013D8  C$elementsbuilder.c$107$2_0$148    elementsbuilder
     000013DA  A$elementsbuilder$864              elementsbuilder
     000013DB  A$elementsbuilder$865              elementsbuilder
     000013DC  A$elementsbuilder$866              elementsbuilder
     000013DD  A$elementsbuilder$867              elementsbuilder
     000013DF  A$elementsbuilder$871              elementsbuilder
     000013DF  C$elementsbuilder.c$108$2_0$148    elementsbuilder
     000013E1  A$elementsbuilder$872              elementsbuilder
     000013E2  A$elementsbuilder$873              elementsbuilder
     000013E3  A$elementsbuilder$874              elementsbuilder
     000013E4  A$elementsbuilder$875              elementsbuilder
     000013E6  A$elementsbuilder$879              elementsbuilder
     000013E6  C$elementsbuilder.c$109$2_0$148    elementsbuilder
     000013E8  A$elementsbuilder$880              elementsbuilder
     000013E9  A$elementsbuilder$881              elementsbuilder
     000013EA  A$elementsbuilder$882              elementsbuilder
     000013EB  A$elementsbuilder$883              elementsbuilder
     000013ED  A$elementsbuilder$887              elementsbuilder
     000013ED  C$elementsbuilder.c$110$2_0$148    elementsbuilder
     000013EF  A$elementsbuilder$888              elementsbuilder
     000013F0  A$elementsbuilder$889              elementsbuilder
     000013F1  A$elementsbuilder$890              elementsbuilder
     000013F2  A$elementsbuilder$891              elementsbuilder
     000013F4  A$elementsbuilder$892              elementsbuilder
     000013F7  A$elementsbuilder$897              elementsbuilder
     000013F7  C$elementsbuilder.c$112$1_0$147    elementsbuilder
     000013F9  A$elementsbuilder$898              elementsbuilder
     000013FA  A$elementsbuilder$899              elementsbuilder
     000013FC  A$elementsbuilder$900              elementsbuilder
     000013FE  A$elementsbuilder$904              elementsbuilder
ASxxxx Linker V03.00 + NoICE + sdld,  page 62.
Hexadecimal  [32-Bits]

Area                                    Addr        Size        Decimal Bytes (Attributes)
--------------------------------        ----        ----        ------- ----- ------------
_CODE                               00000200    00003D11 =       15633. bytes (REL,CON)

      Value  Global                              Global Defined In Module
      -----  --------------------------------   ------------------------
     000013FE  C$elementsbuilder.c$114$2_0$149    elementsbuilder
     00001400  A$elementsbuilder$905              elementsbuilder
     00001401  A$elementsbuilder$906              elementsbuilder
     00001402  A$elementsbuilder$907              elementsbuilder
     00001403  A$elementsbuilder$908              elementsbuilder
     00001404  A$elementsbuilder$912              elementsbuilder
     00001404  C$elementsbuilder.c$115$2_0$149    elementsbuilder
     00001405  A$elementsbuilder$913              elementsbuilder
     00001406  A$elementsbuilder$914              elementsbuilder
     00001407  A$elementsbuilder$915              elementsbuilder
     00001408  A$elementsbuilder$916              elementsbuilder
     00001409  A$elementsbuilder$917              elementsbuilder
     0000140B  A$elementsbuilder$921              elementsbuilder
     0000140B  C$elementsbuilder.c$117$2_0$149    elementsbuilder
     0000140C  A$elementsbuilder$922              elementsbuilder
     0000140D  A$elementsbuilder$923              elementsbuilder
     0000140F  A$elementsbuilder$927              elementsbuilder
     0000140F  C$elementsbuilder.c$118$2_0$149    elementsbuilder
     00001411  A$elementsbuilder$928              elementsbuilder
     00001412  A$elementsbuilder$929              elementsbuilder
     00001413  A$elementsbuilder$930              elementsbuilder
     00001414  A$elementsbuilder$931              elementsbuilder
     00001416  A$elementsbuilder$935              elementsbuilder
     00001416  C$elementsbuilder.c$119$2_0$149    elementsbuilder
     00001418  A$elementsbuilder$936              elementsbuilder
     00001419  A$elementsbuilder$937              elementsbuilder
     0000141A  A$elementsbuilder$938              elementsbuilder
     0000141B  A$elementsbuilder$939              elementsbuilder
     0000141D  A$elementsbuilder$943              elementsbuilder
     0000141D  C$elementsbuilder.c$120$2_0$149    elementsbuilder
     0000141F  A$elementsbuilder$944              elementsbuilder
     00001420  A$elementsbuilder$945              elementsbuilder
     00001421  A$elementsbuilder$946              elementsbuilder
     00001422  A$elementsbuilder$947              elementsbuilder
     00001424  A$elementsbuilder$951              elementsbuilder
     00001424  C$elementsbuilder.c$121$2_0$149    elementsbuilder
     00001426  A$elementsbuilder$952              elementsbuilder
     00001427  A$elementsbuilder$953              elementsbuilder
     00001428  A$elementsbuilder$954              elementsbuilder
     00001429  A$elementsbuilder$955              elementsbuilder
     0000142B  A$elementsbuilder$959              elementsbuilder
     0000142B  C$elementsbuilder.c$123$2_0$149    elementsbuilder
     0000142D  A$elementsbuilder$960              elementsbuilder
     0000142E  A$elementsbuilder$961              elementsbuilder
     0000142F  A$elementsbuilder$962              elementsbuilder
     00001430  A$elementsbuilder$963              elementsbuilder
     00001432  A$elementsbuilder$967              elementsbuilder
     00001432  C$elementsbuilder.c$124$2_0$149    elementsbuilder
     00001434  A$elementsbuilder$968              elementsbuilder
     00001435  A$elementsbuilder$969              elementsbuilder
     00001436  A$elementsbuilder$970              elementsbuilder
ASxxxx Linker V03.00 + NoICE + sdld,  page 63.
Hexadecimal  [32-Bits]

Area                                    Addr        Size        Decimal Bytes (Attributes)
--------------------------------        ----        ----        ------- ----- ------------
_CODE                               00000200    00003D11 =       15633. bytes (REL,CON)

      Value  Global                              Global Defined In Module
      -----  --------------------------------   ------------------------
     00001437  A$elementsbuilder$971              elementsbuilder
     00001439  A$elementsbuilder$975              elementsbuilder
     00001439  C$elementsbuilder.c$125$2_0$149    elementsbuilder
     0000143B  A$elementsbuilder$976              elementsbuilder
     0000143C  A$elementsbuilder$977              elementsbuilder
     0000143D  A$elementsbuilder$978              elementsbuilder
     0000143E  A$elementsbuilder$979              elementsbuilder
     00001440  A$elementsbuilder$983              elementsbuilder
     00001440  C$elementsbuilder.c$126$2_0$149    elementsbuilder
     00001442  A$elementsbuilder$984              elementsbuilder
     00001443  A$elementsbuilder$985              elementsbuilder
     00001444  A$elementsbuilder$986              elementsbuilder
     00001445  A$elementsbuilder$987              elementsbuilder
     00001447  A$elementsbuilder$991              elementsbuilder
     00001447  C$elementsbuilder.c$127$2_0$149    elementsbuilder
     00001449  A$elementsbuilder$992              elementsbuilder
     0000144A  A$elementsbuilder$993              elementsbuilder
     0000144B  A$elementsbuilder$994              elementsbuilder
     0000144C  A$elementsbuilder$995              elementsbuilder
     0000144E  A$elementsbuilder$996              elementsbuilder
     00001451  A$elementsbuilder$1001             elementsbuilder
     00001451  C$elementsbuilder.c$129$1_0$147    elementsbuilder
     00001453  A$elementsbuilder$1002             elementsbuilder
     00001454  A$elementsbuilder$1003             elementsbuilder
     00001456  A$elementsbuilder$1004             elementsbuilder
     00001459  A$elementsbuilder$1008             elementsbuilder
     00001459  C$elementsbuilder.c$131$2_0$150    elementsbuilder
     0000145B  A$elementsbuilder$1009             elementsbuilder
     0000145C  A$elementsbuilder$1010             elementsbuilder
     0000145D  A$elementsbuilder$1011             elementsbuilder
     0000145E  A$elementsbuilder$1012             elementsbuilder
     0000145F  A$elementsbuilder$1016             elementsbuilder
     0000145F  C$elementsbuilder.c$132$2_0$150    elementsbuilder
     00001460  A$elementsbuilder$1017             elementsbuilder
     00001461  A$elementsbuilder$1018             elementsbuilder
     00001462  A$elementsbuilder$1019             elementsbuilder
     00001463  A$elementsbuilder$1020             elementsbuilder
     00001464  A$elementsbuilder$1021             elementsbuilder
     00001466  A$elementsbuilder$1025             elementsbuilder
     00001466  C$elementsbuilder.c$134$2_0$150    elementsbuilder
     00001467  A$elementsbuilder$1026             elementsbuilder
     00001468  A$elementsbuilder$1027             elementsbuilder
     0000146A  A$elementsbuilder$1031             elementsbuilder
     0000146A  C$elementsbuilder.c$135$2_0$150    elementsbuilder
     0000146C  A$elementsbuilder$1032             elementsbuilder
     0000146D  A$elementsbuilder$1033             elementsbuilder
     0000146E  A$elementsbuilder$1034             elementsbuilder
     0000146F  A$elementsbuilder$1035             elementsbuilder
     00001471  A$elementsbuilder$1039             elementsbuilder
     00001471  C$elementsbuilder.c$136$2_0$150    elementsbuilder
     00001473  A$elementsbuilder$1040             elementsbuilder
ASxxxx Linker V03.00 + NoICE + sdld,  page 64.
Hexadecimal  [32-Bits]

Area                                    Addr        Size        Decimal Bytes (Attributes)
--------------------------------        ----        ----        ------- ----- ------------
_CODE                               00000200    00003D11 =       15633. bytes (REL,CON)

      Value  Global                              Global Defined In Module
      -----  --------------------------------   ------------------------
     00001474  A$elementsbuilder$1041             elementsbuilder
     00001475  A$elementsbuilder$1042             elementsbuilder
     00001476  A$elementsbuilder$1043             elementsbuilder
     00001478  A$elementsbuilder$1047             elementsbuilder
     00001478  C$elementsbuilder.c$137$2_0$150    elementsbuilder
     0000147A  A$elementsbuilder$1048             elementsbuilder
     0000147B  A$elementsbuilder$1049             elementsbuilder
     0000147C  A$elementsbuilder$1050             elementsbuilder
     0000147D  A$elementsbuilder$1051             elementsbuilder
     0000147F  A$elementsbuilder$1055             elementsbuilder
     0000147F  C$elementsbuilder.c$138$2_0$150    elementsbuilder
     00001481  A$elementsbuilder$1056             elementsbuilder
     00001482  A$elementsbuilder$1057             elementsbuilder
     00001483  A$elementsbuilder$1058             elementsbuilder
     00001484  A$elementsbuilder$1059             elementsbuilder
     00001486  A$elementsbuilder$1063             elementsbuilder
     00001486  C$elementsbuilder.c$140$2_0$150    elementsbuilder
     00001488  A$elementsbuilder$1064             elementsbuilder
     00001489  A$elementsbuilder$1065             elementsbuilder
     0000148A  A$elementsbuilder$1066             elementsbuilder
     0000148B  A$elementsbuilder$1067             elementsbuilder
     0000148D  A$elementsbuilder$1071             elementsbuilder
     0000148D  C$elementsbuilder.c$141$2_0$150    elementsbuilder
     0000148F  A$elementsbuilder$1072             elementsbuilder
     00001490  A$elementsbuilder$1073             elementsbuilder
     00001491  A$elementsbuilder$1074             elementsbuilder
     00001492  A$elementsbuilder$1075             elementsbuilder
     00001494  A$elementsbuilder$1079             elementsbuilder
     00001494  C$elementsbuilder.c$142$2_0$150    elementsbuilder
     00001496  A$elementsbuilder$1080             elementsbuilder
     00001497  A$elementsbuilder$1081             elementsbuilder
     00001498  A$elementsbuilder$1082             elementsbuilder
     00001499  A$elementsbuilder$1083             elementsbuilder
     0000149B  A$elementsbuilder$1087             elementsbuilder
     0000149B  C$elementsbuilder.c$143$2_0$150    elementsbuilder
     0000149D  A$elementsbuilder$1088             elementsbuilder
     0000149E  A$elementsbuilder$1089             elementsbuilder
     0000149F  A$elementsbuilder$1090             elementsbuilder
     000014A0  A$elementsbuilder$1091             elementsbuilder
     000014A2  A$elementsbuilder$1095             elementsbuilder
     000014A2  C$elementsbuilder.c$144$2_0$150    elementsbuilder
     000014A4  A$elementsbuilder$1096             elementsbuilder
     000014A5  A$elementsbuilder$1097             elementsbuilder
     000014A6  A$elementsbuilder$1098             elementsbuilder
     000014A7  A$elementsbuilder$1099             elementsbuilder
     000014A9  A$elementsbuilder$1103             elementsbuilder
     000014A9  C$elementsbuilder.c$146$2_0$150    elementsbuilder
     000014AB  A$elementsbuilder$1104             elementsbuilder
     000014AC  A$elementsbuilder$1105             elementsbuilder
     000014AD  A$elementsbuilder$1106             elementsbuilder
     000014AE  A$elementsbuilder$1107             elementsbuilder
ASxxxx Linker V03.00 + NoICE + sdld,  page 65.
Hexadecimal  [32-Bits]

Area                                    Addr        Size        Decimal Bytes (Attributes)
--------------------------------        ----        ----        ------- ----- ------------
_CODE                               00000200    00003D11 =       15633. bytes (REL,CON)

      Value  Global                              Global Defined In Module
      -----  --------------------------------   ------------------------
     000014B0  A$elementsbuilder$1111             elementsbuilder
     000014B0  C$elementsbuilder.c$147$2_0$150    elementsbuilder
     000014B2  A$elementsbuilder$1112             elementsbuilder
     000014B3  A$elementsbuilder$1113             elementsbuilder
     000014B4  A$elementsbuilder$1114             elementsbuilder
     000014B5  A$elementsbuilder$1115             elementsbuilder
     000014B7  A$elementsbuilder$1119             elementsbuilder
     000014B7  C$elementsbuilder.c$148$2_0$150    elementsbuilder
     000014B9  A$elementsbuilder$1120             elementsbuilder
     000014BA  A$elementsbuilder$1121             elementsbuilder
     000014BB  A$elementsbuilder$1122             elementsbuilder
     000014BC  A$elementsbuilder$1123             elementsbuilder
     000014BE  A$elementsbuilder$1127             elementsbuilder
     000014BE  C$elementsbuilder.c$149$2_0$150    elementsbuilder
     000014C0  A$elementsbuilder$1128             elementsbuilder
     000014C1  A$elementsbuilder$1129             elementsbuilder
     000014C2  A$elementsbuilder$1130             elementsbuilder
     000014C3  A$elementsbuilder$1131             elementsbuilder
     000014C5  A$elementsbuilder$1135             elementsbuilder
     000014C5  C$elementsbuilder.c$150$2_0$150    elementsbuilder
     000014C7  A$elementsbuilder$1136             elementsbuilder
     000014C8  A$elementsbuilder$1137             elementsbuilder
     000014C9  A$elementsbuilder$1138             elementsbuilder
     000014CA  A$elementsbuilder$1139             elementsbuilder
     000014CC  A$elementsbuilder$1143             elementsbuilder
     000014CC  C$elementsbuilder.c$152$2_0$150    elementsbuilder
     000014CE  A$elementsbuilder$1144             elementsbuilder
     000014CF  A$elementsbuilder$1145             elementsbuilder
     000014D0  A$elementsbuilder$1146             elementsbuilder
     000014D1  A$elementsbuilder$1147             elementsbuilder
     000014D3  A$elementsbuilder$1151             elementsbuilder
     000014D3  C$elementsbuilder.c$153$2_0$150    elementsbuilder
     000014D5  A$elementsbuilder$1152             elementsbuilder
     000014D6  A$elementsbuilder$1153             elementsbuilder
     000014D7  A$elementsbuilder$1154             elementsbuilder
     000014D8  A$elementsbuilder$1155             elementsbuilder
     000014DA  A$elementsbuilder$1159             elementsbuilder
     000014DA  C$elementsbuilder.c$154$2_0$150    elementsbuilder
     000014DC  A$elementsbuilder$1160             elementsbuilder
     000014DD  A$elementsbuilder$1161             elementsbuilder
     000014DE  A$elementsbuilder$1162             elementsbuilder
     000014DF  A$elementsbuilder$1163             elementsbuilder
     000014E1  A$elementsbuilder$1167             elementsbuilder
     000014E1  C$elementsbuilder.c$155$2_0$150    elementsbuilder
     000014E3  A$elementsbuilder$1168             elementsbuilder
     000014E4  A$elementsbuilder$1169             elementsbuilder
     000014E5  A$elementsbuilder$1170             elementsbuilder
     000014E6  A$elementsbuilder$1171             elementsbuilder
     000014E8  A$elementsbuilder$1175             elementsbuilder
     000014E8  C$elementsbuilder.c$156$2_0$150    elementsbuilder
     000014EA  A$elementsbuilder$1176             elementsbuilder
ASxxxx Linker V03.00 + NoICE + sdld,  page 66.
Hexadecimal  [32-Bits]

Area                                    Addr        Size        Decimal Bytes (Attributes)
--------------------------------        ----        ----        ------- ----- ------------
_CODE                               00000200    00003D11 =       15633. bytes (REL,CON)

      Value  Global                              Global Defined In Module
      -----  --------------------------------   ------------------------
     000014EB  A$elementsbuilder$1177             elementsbuilder
     000014EC  A$elementsbuilder$1178             elementsbuilder
     000014ED  A$elementsbuilder$1179             elementsbuilder
     000014EF  A$elementsbuilder$1180             elementsbuilder
     000014F2  A$elementsbuilder$1185             elementsbuilder
     000014F2  C$elementsbuilder.c$158$1_0$147    elementsbuilder
     000014F4  A$elementsbuilder$1186             elementsbuilder
     000014F5  A$elementsbuilder$1187             elementsbuilder
     000014F7  A$elementsbuilder$1188             elementsbuilder
     000014FA  A$elementsbuilder$1192             elementsbuilder
     000014FA  C$elementsbuilder.c$160$2_0$151    elementsbuilder
     000014FC  A$elementsbuilder$1193             elementsbuilder
     000014FD  A$elementsbuilder$1194             elementsbuilder
     000014FE  A$elementsbuilder$1195             elementsbuilder
     000014FF  A$elementsbuilder$1196             elementsbuilder
     00001500  A$elementsbuilder$1200             elementsbuilder
     00001500  C$elementsbuilder.c$161$2_0$151    elementsbuilder
     00001501  A$elementsbuilder$1201             elementsbuilder
     00001502  A$elementsbuilder$1202             elementsbuilder
     00001503  A$elementsbuilder$1203             elementsbuilder
     00001504  A$elementsbuilder$1204             elementsbuilder
     00001505  A$elementsbuilder$1205             elementsbuilder
     00001507  A$elementsbuilder$1209             elementsbuilder
     00001507  C$elementsbuilder.c$163$2_0$151    elementsbuilder
     00001508  A$elementsbuilder$1210             elementsbuilder
     00001509  A$elementsbuilder$1211             elementsbuilder
     0000150B  A$elementsbuilder$1215             elementsbuilder
     0000150B  C$elementsbuilder.c$164$2_0$151    elementsbuilder
     0000150D  A$elementsbuilder$1216             elementsbuilder
     0000150E  A$elementsbuilder$1217             elementsbuilder
     0000150F  A$elementsbuilder$1218             elementsbuilder
     00001510  A$elementsbuilder$1219             elementsbuilder
     00001512  A$elementsbuilder$1223             elementsbuilder
     00001512  C$elementsbuilder.c$165$2_0$151    elementsbuilder
     00001514  A$elementsbuilder$1224             elementsbuilder
     00001515  A$elementsbuilder$1225             elementsbuilder
     00001516  A$elementsbuilder$1226             elementsbuilder
     00001517  A$elementsbuilder$1227             elementsbuilder
     00001519  A$elementsbuilder$1231             elementsbuilder
     00001519  C$elementsbuilder.c$166$2_0$151    elementsbuilder
     0000151B  A$elementsbuilder$1232             elementsbuilder
     0000151C  A$elementsbuilder$1233             elementsbuilder
     0000151D  A$elementsbuilder$1234             elementsbuilder
     0000151E  A$elementsbuilder$1235             elementsbuilder
     00001520  A$elementsbuilder$1239             elementsbuilder
     00001520  C$elementsbuilder.c$167$2_0$151    elementsbuilder
     00001522  A$elementsbuilder$1240             elementsbuilder
     00001523  A$elementsbuilder$1241             elementsbuilder
     00001524  A$elementsbuilder$1242             elementsbuilder
     00001525  A$elementsbuilder$1243             elementsbuilder
     00001527  A$elementsbuilder$1247             elementsbuilder
ASxxxx Linker V03.00 + NoICE + sdld,  page 67.
Hexadecimal  [32-Bits]

Area                                    Addr        Size        Decimal Bytes (Attributes)
--------------------------------        ----        ----        ------- ----- ------------
_CODE                               00000200    00003D11 =       15633. bytes (REL,CON)

      Value  Global                              Global Defined In Module
      -----  --------------------------------   ------------------------
     00001527  C$elementsbuilder.c$169$2_0$151    elementsbuilder
     00001529  A$elementsbuilder$1248             elementsbuilder
     0000152A  A$elementsbuilder$1249             elementsbuilder
     0000152B  A$elementsbuilder$1250             elementsbuilder
     0000152C  A$elementsbuilder$1251             elementsbuilder
     0000152E  A$elementsbuilder$1255             elementsbuilder
     0000152E  C$elementsbuilder.c$170$2_0$151    elementsbuilder
     00001530  A$elementsbuilder$1256             elementsbuilder
     00001531  A$elementsbuilder$1257             elementsbuilder
     00001532  A$elementsbuilder$1258             elementsbuilder
     00001533  A$elementsbuilder$1259             elementsbuilder
     00001535  A$elementsbuilder$1263             elementsbuilder
     00001535  C$elementsbuilder.c$171$2_0$151    elementsbuilder
     00001537  A$elementsbuilder$1264             elementsbuilder
     00001538  A$elementsbuilder$1265             elementsbuilder
     00001539  A$elementsbuilder$1266             elementsbuilder
     0000153A  A$elementsbuilder$1267             elementsbuilder
     0000153C  A$elementsbuilder$1271             elementsbuilder
     0000153C  C$elementsbuilder.c$172$2_0$151    elementsbuilder
     0000153E  A$elementsbuilder$1272             elementsbuilder
     0000153F  A$elementsbuilder$1273             elementsbuilder
     00001540  A$elementsbuilder$1274             elementsbuilder
     00001541  A$elementsbuilder$1275             elementsbuilder
     00001543  A$elementsbuilder$1279             elementsbuilder
     00001543  C$elementsbuilder.c$173$2_0$151    elementsbuilder
     00001545  A$elementsbuilder$1280             elementsbuilder
     00001546  A$elementsbuilder$1281             elementsbuilder
     00001547  A$elementsbuilder$1282             elementsbuilder
     00001548  A$elementsbuilder$1283             elementsbuilder
     0000154A  A$elementsbuilder$1287             elementsbuilder
     0000154A  C$elementsbuilder.c$175$2_0$151    elementsbuilder
     0000154C  A$elementsbuilder$1288             elementsbuilder
     0000154D  A$elementsbuilder$1289             elementsbuilder
     0000154E  A$elementsbuilder$1290             elementsbuilder
     0000154F  A$elementsbuilder$1291             elementsbuilder
     00001551  A$elementsbuilder$1295             elementsbuilder
     00001551  C$elementsbuilder.c$176$2_0$151    elementsbuilder
     00001553  A$elementsbuilder$1296             elementsbuilder
     00001554  A$elementsbuilder$1297             elementsbuilder
     00001555  A$elementsbuilder$1298             elementsbuilder
     00001556  A$elementsbuilder$1299             elementsbuilder
     00001558  A$elementsbuilder$1303             elementsbuilder
     00001558  C$elementsbuilder.c$177$2_0$151    elementsbuilder
     0000155A  A$elementsbuilder$1304             elementsbuilder
     0000155B  A$elementsbuilder$1305             elementsbuilder
     0000155C  A$elementsbuilder$1306             elementsbuilder
     0000155D  A$elementsbuilder$1307             elementsbuilder
     0000155F  A$elementsbuilder$1311             elementsbuilder
     0000155F  C$elementsbuilder.c$178$2_0$151    elementsbuilder
     00001561  A$elementsbuilder$1312             elementsbuilder
     00001562  A$elementsbuilder$1313             elementsbuilder
ASxxxx Linker V03.00 + NoICE + sdld,  page 68.
Hexadecimal  [32-Bits]

Area                                    Addr        Size        Decimal Bytes (Attributes)
--------------------------------        ----        ----        ------- ----- ------------
_CODE                               00000200    00003D11 =       15633. bytes (REL,CON)

      Value  Global                              Global Defined In Module
      -----  --------------------------------   ------------------------
     00001563  A$elementsbuilder$1314             elementsbuilder
     00001564  A$elementsbuilder$1315             elementsbuilder
     00001566  A$elementsbuilder$1319             elementsbuilder
     00001566  C$elementsbuilder.c$179$2_0$151    elementsbuilder
     00001568  A$elementsbuilder$1320             elementsbuilder
     00001569  A$elementsbuilder$1321             elementsbuilder
     0000156A  A$elementsbuilder$1322             elementsbuilder
     0000156B  A$elementsbuilder$1323             elementsbuilder
     0000156D  A$elementsbuilder$1327             elementsbuilder
     0000156D  C$elementsbuilder.c$181$2_0$151    elementsbuilder
     0000156F  A$elementsbuilder$1328             elementsbuilder
     00001570  A$elementsbuilder$1329             elementsbuilder
     00001571  A$elementsbuilder$1330             elementsbuilder
     00001572  A$elementsbuilder$1331             elementsbuilder
     00001574  A$elementsbuilder$1335             elementsbuilder
     00001574  C$elementsbuilder.c$182$2_0$151    elementsbuilder
     00001576  A$elementsbuilder$1336             elementsbuilder
     00001577  A$elementsbuilder$1337             elementsbuilder
     00001578  A$elementsbuilder$1338             elementsbuilder
     00001579  A$elementsbuilder$1339             elementsbuilder
     0000157B  A$elementsbuilder$1343             elementsbuilder
     0000157B  C$elementsbuilder.c$183$2_0$151    elementsbuilder
     0000157D  A$elementsbuilder$1344             elementsbuilder
     0000157E  A$elementsbuilder$1345             elementsbuilder
     0000157F  A$elementsbuilder$1346             elementsbuilder
     00001580  A$elementsbuilder$1347             elementsbuilder
     00001582  A$elementsbuilder$1351             elementsbuilder
     00001582  C$elementsbuilder.c$184$2_0$151    elementsbuilder
     00001584  A$elementsbuilder$1352             elementsbuilder
     00001585  A$elementsbuilder$1353             elementsbuilder
     00001586  A$elementsbuilder$1354             elementsbuilder
     00001587  A$elementsbuilder$1355             elementsbuilder
     00001589  A$elementsbuilder$1359             elementsbuilder
     00001589  C$elementsbuilder.c$185$2_0$151    elementsbuilder
     0000158B  A$elementsbuilder$1360             elementsbuilder
     0000158C  A$elementsbuilder$1361             elementsbuilder
     0000158D  A$elementsbuilder$1362             elementsbuilder
     0000158E  A$elementsbuilder$1363             elementsbuilder
     00001590  A$elementsbuilder$1368             elementsbuilder
     00001592  A$elementsbuilder$1373             elementsbuilder
     00001592  C$elementsbuilder.c$188$1_0$147    elementsbuilder
     00001592  XG$createEnemyElement$0$0          elementsbuilder
     00001593  A$elementsbuilder$1383             elementsbuilder
     00001593  C$elementsbuilder.c$193$1_0$153    elementsbuilder
     00001593  G$processEnemiesLevel$0$0          elementsbuilder
     00001593  _processEnemiesLevel               elementsbuilder
     00001595  A$elementsbuilder$1387             elementsbuilder
     00001595  C$elementsbuilder.c$195$2_0$153    elementsbuilder
     00001597  A$elementsbuilder$1388             elementsbuilder
     00001599  A$elementsbuilder$1392             elementsbuilder
     0000159C  A$elementsbuilder$1393             elementsbuilder
ASxxxx Linker V03.00 + NoICE + sdld,  page 69.
Hexadecimal  [32-Bits]

Area                                    Addr        Size        Decimal Bytes (Attributes)
--------------------------------        ----        ----        ------- ----- ------------
_CODE                               00000200    00003D11 =       15633. bytes (REL,CON)

      Value  Global                              Global Defined In Module
      -----  --------------------------------   ------------------------
     0000159D  A$elementsbuilder$1394             elementsbuilder
     0000159E  A$elementsbuilder$1395             elementsbuilder
     0000159F  A$elementsbuilder$1396             elementsbuilder
     000015A0  A$elementsbuilder$1399             elementsbuilder
     000015A1  A$elementsbuilder$1402             elementsbuilder
     000015A2  A$elementsbuilder$1403             elementsbuilder
     000015A3  A$elementsbuilder$1404             elementsbuilder
     000015A5  A$elementsbuilder$1405             elementsbuilder
     000015A6  A$elementsbuilder$1406             elementsbuilder
     000015A7  A$elementsbuilder$1407             elementsbuilder
     000015AA  A$elementsbuilder$1411             elementsbuilder
     000015AB  A$elementsbuilder$1412             elementsbuilder
     000015AC  A$elementsbuilder$1413             elementsbuilder
     000015AD  A$elementsbuilder$1414             elementsbuilder
     000015AE  A$elementsbuilder$1415             elementsbuilder
     000015AF  A$elementsbuilder$1416             elementsbuilder
     000015B0  A$elementsbuilder$1417             elementsbuilder
     000015B1  A$elementsbuilder$1418             elementsbuilder
     000015B2  A$elementsbuilder$1419             elementsbuilder
     000015B4  A$elementsbuilder$1420             elementsbuilder
     000015B5  A$elementsbuilder$1421             elementsbuilder
     000015B6  A$elementsbuilder$1422             elementsbuilder
     000015B8  A$elementsbuilder$1423             elementsbuilder
     000015B9  A$elementsbuilder$1424             elementsbuilder
     000015BA  A$elementsbuilder$1425             elementsbuilder
     000015BB  A$elementsbuilder$1426             elementsbuilder
     000015BE  A$elementsbuilder$1427             elementsbuilder
     000015BF  A$elementsbuilder$1428             elementsbuilder
     000015C0  A$elementsbuilder$1429             elementsbuilder
     000015C2  A$elementsbuilder$1430             elementsbuilder
     000015C3  A$elementsbuilder$1434             elementsbuilder
     000015C3  C$elementsbuilder.c$205$2_0$154    elementsbuilder
     000015C6  A$elementsbuilder$1435             elementsbuilder
     000015C7  A$elementsbuilder$1436             elementsbuilder
     000015C8  A$elementsbuilder$1437             elementsbuilder
     000015CA  A$elementsbuilder$1438             elementsbuilder
     000015CB  A$elementsbuilder$1442             elementsbuilder
     000015CB  C$elementsbuilder.c$206$2_0$154    elementsbuilder
     000015CD  A$elementsbuilder$1446             elementsbuilder
     000015CD  C$elementsbuilder.c$209$1_0$153    elementsbuilder
     000015CE  A$elementsbuilder$1447             elementsbuilder
     000015CF  A$elementsbuilder$1448             elementsbuilder
     000015D1  A$elementsbuilder$1449             elementsbuilder
     000015D2  A$elementsbuilder$1450             elementsbuilder
     000015D3  A$elementsbuilder$1451             elementsbuilder
     000015D4  A$elementsbuilder$1452             elementsbuilder
     000015D5  A$elementsbuilder$1454             elementsbuilder
     000015D8  A$elementsbuilder$1455             elementsbuilder
     000015D9  A$elementsbuilder$1456             elementsbuilder
     000015DA  A$elementsbuilder$1457             elementsbuilder
     000015DC  A$elementsbuilder$1458             elementsbuilder
ASxxxx Linker V03.00 + NoICE + sdld,  page 70.
Hexadecimal  [32-Bits]

Area                                    Addr        Size        Decimal Bytes (Attributes)
--------------------------------        ----        ----        ------- ----- ------------
_CODE                               00000200    00003D11 =       15633. bytes (REL,CON)

      Value  Global                              Global Defined In Module
      -----  --------------------------------   ------------------------
     000015DD  A$elementsbuilder$1459             elementsbuilder
     000015DF  A$elementsbuilder$1460             elementsbuilder
     000015E1  A$elementsbuilder$1461             elementsbuilder
     000015E2  A$elementsbuilder$1462             elementsbuilder
     000015E3  A$elementsbuilder$1463             elementsbuilder
     000015E5  A$elementsbuilder$1464             elementsbuilder
     000015E6  A$elementsbuilder$1465             elementsbuilder
     000015E7  A$elementsbuilder$1466             elementsbuilder
     000015E8  A$elementsbuilder$1467             elementsbuilder
     000015E9  A$elementsbuilder$1468             elementsbuilder
     000015EA  A$elementsbuilder$1469             elementsbuilder
     000015EB  A$elementsbuilder$1470             elementsbuilder
     000015EC  A$elementsbuilder$1471             elementsbuilder
     000015ED  A$elementsbuilder$1472             elementsbuilder
     000015EF  A$elementsbuilder$1473             elementsbuilder
     000015F1  A$elementsbuilder$1474             elementsbuilder
     000015F3  A$elementsbuilder$1475             elementsbuilder
     000015F5  A$elementsbuilder$1476             elementsbuilder
     000015F6  A$elementsbuilder$1477             elementsbuilder
     000015F8  A$elementsbuilder$1479             elementsbuilder
     000015FA  A$elementsbuilder$1480             elementsbuilder
     000015FC  A$elementsbuilder$1481             elementsbuilder
     000015FD  A$elementsbuilder$1483             elementsbuilder
     00001600  A$elementsbuilder$1487             elementsbuilder
     00001600  C$elementsbuilder.c$219$4_0$156    elementsbuilder
     00001602  A$elementsbuilder$1488             elementsbuilder
     00001603  A$elementsbuilder$1489             elementsbuilder
     00001605  A$elementsbuilder$1493             elementsbuilder
     00001605  C$elementsbuilder.c$218$4_0$156    elementsbuilder
     00001607  A$elementsbuilder$1494             elementsbuilder
     00001608  A$elementsbuilder$1495             elementsbuilder
     0000160A  A$elementsbuilder$1496             elementsbuilder
     0000160B  A$elementsbuilder$1497             elementsbuilder
     0000160D  A$elementsbuilder$1501             elementsbuilder
     0000160D  C$elementsbuilder.c$217$4_0$156    elementsbuilder
     00001610  A$elementsbuilder$1502             elementsbuilder
     00001611  A$elementsbuilder$1503             elementsbuilder
     00001612  A$elementsbuilder$1504             elementsbuilder
     00001614  A$elementsbuilder$1508             elementsbuilder
     00001614  C$elementsbuilder.c$216$4_0$156    elementsbuilder
     00001616  A$elementsbuilder$1509             elementsbuilder
     00001617  A$elementsbuilder$1510             elementsbuilder
     00001619  A$elementsbuilder$1511             elementsbuilder
     0000161A  A$elementsbuilder$1512             elementsbuilder
     0000161C  A$elementsbuilder$1516             elementsbuilder
     0000161C  C$elementsbuilder.c$215$4_0$156    elementsbuilder
     0000161E  A$elementsbuilder$1517             elementsbuilder
     0000161F  A$elementsbuilder$1518             elementsbuilder
     00001621  A$elementsbuilder$1519             elementsbuilder
     00001622  A$elementsbuilder$1520             elementsbuilder
     00001624  A$elementsbuilder$1524             elementsbuilder
ASxxxx Linker V03.00 + NoICE + sdld,  page 71.
Hexadecimal  [32-Bits]

Area                                    Addr        Size        Decimal Bytes (Attributes)
--------------------------------        ----        ----        ------- ----- ------------
_CODE                               00000200    00003D11 =       15633. bytes (REL,CON)

      Value  Global                              Global Defined In Module
      -----  --------------------------------   ------------------------
     00001624  C$elementsbuilder.c$214$4_0$156    elementsbuilder
     00001626  A$elementsbuilder$1525             elementsbuilder
     00001627  A$elementsbuilder$1526             elementsbuilder
     00001629  A$elementsbuilder$1527             elementsbuilder
     0000162A  A$elementsbuilder$1528             elementsbuilder
     0000162C  A$elementsbuilder$1532             elementsbuilder
     0000162C  C$elementsbuilder.c$213$4_0$156    elementsbuilder
     0000162E  A$elementsbuilder$1533             elementsbuilder
     0000162F  A$elementsbuilder$1534             elementsbuilder
     00001631  A$elementsbuilder$1535             elementsbuilder
     00001632  A$elementsbuilder$1536             elementsbuilder
     00001634  A$elementsbuilder$1537             elementsbuilder
     00001635  A$elementsbuilder$1538             elementsbuilder
     00001637  A$elementsbuilder$1539             elementsbuilder
     00001638  A$elementsbuilder$1540             elementsbuilder
     00001639  A$elementsbuilder$1541             elementsbuilder
     0000163A  A$elementsbuilder$1542             elementsbuilder
     0000163B  A$elementsbuilder$1543             elementsbuilder
     0000163C  A$elementsbuilder$1544             elementsbuilder
     0000163E  A$elementsbuilder$1545             elementsbuilder
     0000163F  A$elementsbuilder$1546             elementsbuilder
     00001640  A$elementsbuilder$1547             elementsbuilder
     00001641  A$elementsbuilder$1548             elementsbuilder
     00001642  A$elementsbuilder$1549             elementsbuilder
     00001644  A$elementsbuilder$1550             elementsbuilder
     00001645  A$elementsbuilder$1551             elementsbuilder
     00001646  A$elementsbuilder$1552             elementsbuilder
     00001647  A$elementsbuilder$1553             elementsbuilder
     00001648  A$elementsbuilder$1554             elementsbuilder
     00001649  A$elementsbuilder$1555             elementsbuilder
     0000164A  A$elementsbuilder$1556             elementsbuilder
     0000164B  A$elementsbuilder$1557             elementsbuilder
     0000164C  A$elementsbuilder$1558             elementsbuilder
     0000164D  A$elementsbuilder$1559             elementsbuilder
     0000164E  A$elementsbuilder$1560             elementsbuilder
     0000164F  A$elementsbuilder$1561             elementsbuilder
     00001650  A$elementsbuilder$1562             elementsbuilder
     00001651  A$elementsbuilder$1563             elementsbuilder
     00001652  A$elementsbuilder$1564             elementsbuilder
     00001653  A$elementsbuilder$1565             elementsbuilder
     00001654  A$elementsbuilder$1566             elementsbuilder
     00001655  A$elementsbuilder$1567             elementsbuilder
     00001656  A$elementsbuilder$1568             elementsbuilder
     00001657  A$elementsbuilder$1569             elementsbuilder
     0000165A  A$elementsbuilder$1570             elementsbuilder
     0000165C  A$elementsbuilder$1574             elementsbuilder
     0000165C  C$elementsbuilder.c$221$4_0$156    elementsbuilder
     0000165E  A$elementsbuilder$1575             elementsbuilder
     0000165F  A$elementsbuilder$1579             elementsbuilder
     0000165F  C$elementsbuilder.c$223$4_0$156    elementsbuilder
     00001661  A$elementsbuilder$1580             elementsbuilder
ASxxxx Linker V03.00 + NoICE + sdld,  page 72.
Hexadecimal  [32-Bits]

Area                                    Addr        Size        Decimal Bytes (Attributes)
--------------------------------        ----        ----        ------- ----- ------------
_CODE                               00000200    00003D11 =       15633. bytes (REL,CON)

      Value  Global                              Global Defined In Module
      -----  --------------------------------   ------------------------
     00001662  A$elementsbuilder$1581             elementsbuilder
     00001664  A$elementsbuilder$1585             elementsbuilder
     00001664  C$elementsbuilder.c$224$4_0$156    elementsbuilder
     00001665  A$elementsbuilder$1586             elementsbuilder
     00001666  A$elementsbuilder$1587             elementsbuilder
     00001667  A$elementsbuilder$1588             elementsbuilder
     00001669  A$elementsbuilder$1589             elementsbuilder
     0000166A  A$elementsbuilder$1593             elementsbuilder
     0000166A  C$elementsbuilder.c$225$4_0$156    elementsbuilder
     0000166C  A$elementsbuilder$1594             elementsbuilder
     0000166D  A$elementsbuilder$1598             elementsbuilder
     0000166D  C$elementsbuilder.c$201$1_0$153    elementsbuilder
     00001670  A$elementsbuilder$1599             elementsbuilder
     00001671  A$elementsbuilder$1600             elementsbuilder
     00001672  A$elementsbuilder$1601             elementsbuilder
     00001673  A$elementsbuilder$1605             elementsbuilder
     00001673  C$elementsbuilder.c$204$1_0$153    elementsbuilder
     00001674  A$elementsbuilder$1606             elementsbuilder
     00001675  A$elementsbuilder$1607             elementsbuilder
     00001677  A$elementsbuilder$1608             elementsbuilder
     00001678  A$elementsbuilder$1609             elementsbuilder
     0000167A  A$elementsbuilder$1610             elementsbuilder
     0000167B  A$elementsbuilder$1611             elementsbuilder
     0000167C  A$elementsbuilder$1612             elementsbuilder
     0000167D  A$elementsbuilder$1616             elementsbuilder
     0000167D  C$elementsbuilder.c$226$4_0$156    elementsbuilder
     00001680  A$elementsbuilder$1617             elementsbuilder
     00001681  A$elementsbuilder$1618             elementsbuilder
     00001682  A$elementsbuilder$1619             elementsbuilder
     00001684  A$elementsbuilder$1620             elementsbuilder
     00001685  A$elementsbuilder$1621             elementsbuilder
     00001686  A$elementsbuilder$1622             elementsbuilder
     00001688  A$elementsbuilder$1626             elementsbuilder
     00001688  C$elementsbuilder.c$227$5_0$157    elementsbuilder
     0000168A  A$elementsbuilder$1631             elementsbuilder
     0000168A  C$elementsbuilder.c$209$3_0$155    elementsbuilder
     0000168C  A$elementsbuilder$1632             elementsbuilder
     0000168D  A$elementsbuilder$1633             elementsbuilder
     00001690  A$elementsbuilder$1634             elementsbuilder
     00001691  A$elementsbuilder$1635             elementsbuilder
     00001692  A$elementsbuilder$1636             elementsbuilder
     00001695  A$elementsbuilder$1641             elementsbuilder
     00001697  A$elementsbuilder$1646             elementsbuilder
     00001697  C$elementsbuilder.c$232$1_0$153    elementsbuilder
     00001697  XG$processEnemiesLevel$0$0         elementsbuilder
     00001698  A$elementsbuilder$1656             elementsbuilder
     00001698  C$elementsbuilder.c$237$1_0$160    elementsbuilder
     00001698  G$moveElement$0$0                  elementsbuilder
     00001698  _moveElement                       elementsbuilder
     0000169A  A$elementsbuilder$1660             elementsbuilder
     0000169A  C$elementsbuilder.c$239$1_0$159    elementsbuilder
ASxxxx Linker V03.00 + NoICE + sdld,  page 73.
Hexadecimal  [32-Bits]

Area                                    Addr        Size        Decimal Bytes (Attributes)
--------------------------------        ----        ----        ------- ----- ------------
_CODE                               00000200    00003D11 =       15633. bytes (REL,CON)

      Value  Global                              Global Defined In Module
      -----  --------------------------------   ------------------------
     0000169C  A$elementsbuilder$1661             elementsbuilder
     0000169D  A$elementsbuilder$1662             elementsbuilder
     0000169E  A$elementsbuilder$1663             elementsbuilder
     0000169F  A$elementsbuilder$1664             elementsbuilder
     000016A2  A$elementsbuilder$1665             elementsbuilder
     000016A3  A$elementsbuilder$1666             elementsbuilder
     000016A4  A$elementsbuilder$1671             elementsbuilder
     000016A4  C$elementsbuilder.c$240$1_0$159    elementsbuilder
     000016A5  A$elementsbuilder$1672             elementsbuilder
     000016A6  A$elementsbuilder$1673             elementsbuilder
     000016A7  A$elementsbuilder$1674             elementsbuilder
     000016A8  A$elementsbuilder$1675             elementsbuilder
     000016AA  A$elementsbuilder$1676             elementsbuilder
     000016AB  A$elementsbuilder$1677             elementsbuilder
     000016AC  A$elementsbuilder$1678             elementsbuilder
     000016AD  A$elementsbuilder$1679             elementsbuilder
     000016AE  A$elementsbuilder$1680             elementsbuilder
     000016AF  A$elementsbuilder$1681             elementsbuilder
     000016B0  A$elementsbuilder$1682             elementsbuilder
     000016B2  A$elementsbuilder$1683             elementsbuilder
     000016B3  A$elementsbuilder$1687             elementsbuilder
     000016B3  C$elementsbuilder.c$242$3_0$161    elementsbuilder
     000016B6  A$elementsbuilder$1688             elementsbuilder
     000016B7  A$elementsbuilder$1689             elementsbuilder
     000016B8  A$elementsbuilder$1690             elementsbuilder
     000016B9  A$elementsbuilder$1691             elementsbuilder
     000016BB  A$elementsbuilder$1692             elementsbuilder
     000016BC  A$elementsbuilder$1693             elementsbuilder
     000016BD  A$elementsbuilder$1694             elementsbuilder
     000016BE  A$elementsbuilder$1695             elementsbuilder
     000016C0  A$elementsbuilder$1696             elementsbuilder
     000016C1  A$elementsbuilder$1697             elementsbuilder
     000016C4  A$elementsbuilder$1698             elementsbuilder
     000016C5  A$elementsbuilder$1699             elementsbuilder
     000016C6  A$elementsbuilder$1700             elementsbuilder
     000016C7  A$elementsbuilder$1701             elementsbuilder
     000016C9  A$elementsbuilder$1702             elementsbuilder
     000016CA  A$elementsbuilder$1703             elementsbuilder
     000016CB  A$elementsbuilder$1704             elementsbuilder
     000016CC  A$elementsbuilder$1705             elementsbuilder
     000016CE  A$elementsbuilder$1706             elementsbuilder
     000016CF  A$elementsbuilder$1707             elementsbuilder
     000016D2  A$elementsbuilder$1708             elementsbuilder
     000016D3  A$elementsbuilder$1709             elementsbuilder
     000016D4  A$elementsbuilder$1710             elementsbuilder
     000016D5  A$elementsbuilder$1711             elementsbuilder
     000016D7  A$elementsbuilder$1712             elementsbuilder
     000016D8  A$elementsbuilder$1713             elementsbuilder
     000016D9  A$elementsbuilder$1714             elementsbuilder
     000016DA  A$elementsbuilder$1715             elementsbuilder
     000016DC  A$elementsbuilder$1716             elementsbuilder
ASxxxx Linker V03.00 + NoICE + sdld,  page 74.
Hexadecimal  [32-Bits]

Area                                    Addr        Size        Decimal Bytes (Attributes)
--------------------------------        ----        ----        ------- ----- ------------
_CODE                               00000200    00003D11 =       15633. bytes (REL,CON)

      Value  Global                              Global Defined In Module
      -----  --------------------------------   ------------------------
     000016DD  A$elementsbuilder$1717             elementsbuilder
     000016E0  A$elementsbuilder$1719             elementsbuilder
     000016E2  A$elementsbuilder$1720             elementsbuilder
     000016E3  A$elementsbuilder$1721             elementsbuilder
     000016E5  A$elementsbuilder$1722             elementsbuilder
     000016E6  A$elementsbuilder$1723             elementsbuilder
     000016E7  A$elementsbuilder$1724             elementsbuilder
     000016E8  A$elementsbuilder$1725             elementsbuilder
     000016E9  A$elementsbuilder$1726             elementsbuilder
     000016EA  A$elementsbuilder$1727             elementsbuilder
     000016EB  A$elementsbuilder$1728             elementsbuilder
     000016EC  A$elementsbuilder$1729             elementsbuilder
     000016ED  A$elementsbuilder$1730             elementsbuilder
     000016EE  A$elementsbuilder$1731             elementsbuilder
     000016EF  A$elementsbuilder$1732             elementsbuilder
     000016F1  A$elementsbuilder$1733             elementsbuilder
     000016F3  A$elementsbuilder$1734             elementsbuilder
     000016F5  A$elementsbuilder$1735             elementsbuilder
     000016F7  A$elementsbuilder$1736             elementsbuilder
     000016F8  A$elementsbuilder$1737             elementsbuilder
     000016FA  A$elementsbuilder$1739             elementsbuilder
     000016FC  A$elementsbuilder$1740             elementsbuilder
     000016FE  A$elementsbuilder$1741             elementsbuilder
     000016FF  A$elementsbuilder$1743             elementsbuilder
     00001701  A$elementsbuilder$1747             elementsbuilder
     00001701  C$elementsbuilder.c$244$3_0$161    elementsbuilder
     00001703  A$elementsbuilder$1748             elementsbuilder
     00001704  A$elementsbuilder$1749             elementsbuilder
     00001705  A$elementsbuilder$1750             elementsbuilder
     00001706  A$elementsbuilder$1751             elementsbuilder
     00001707  A$elementsbuilder$1752             elementsbuilder
     00001709  A$elementsbuilder$1753             elementsbuilder
     0000170A  A$elementsbuilder$1757             elementsbuilder
     0000170A  C$elementsbuilder.c$245$3_0$161    elementsbuilder
     0000170C  A$elementsbuilder$1758             elementsbuilder
     0000170D  A$elementsbuilder$1759             elementsbuilder
     0000170E  A$elementsbuilder$1760             elementsbuilder
     0000170F  A$elementsbuilder$1761             elementsbuilder
     00001710  A$elementsbuilder$1762             elementsbuilder
     00001712  A$elementsbuilder$1766             elementsbuilder
     00001712  C$elementsbuilder.c$248$2_0$160    elementsbuilder
     00001713  A$elementsbuilder$1767             elementsbuilder
     00001714  A$elementsbuilder$1768             elementsbuilder
     00001716  A$elementsbuilder$1769             elementsbuilder
     00001717  A$elementsbuilder$1773             elementsbuilder
     00001717  C$elementsbuilder.c$247$3_0$161    elementsbuilder
     00001718  A$elementsbuilder$1774             elementsbuilder
     00001719  A$elementsbuilder$1775             elementsbuilder
     0000171A  A$elementsbuilder$1776             elementsbuilder
     0000171C  A$elementsbuilder$1780             elementsbuilder
     0000171C  C$elementsbuilder.c$248$4_0$162    elementsbuilder
ASxxxx Linker V03.00 + NoICE + sdld,  page 75.
Hexadecimal  [32-Bits]

Area                                    Addr        Size        Decimal Bytes (Attributes)
--------------------------------        ----        ----        ------- ----- ------------
_CODE                               00000200    00003D11 =       15633. bytes (REL,CON)

      Value  Global                              Global Defined In Module
      -----  --------------------------------   ------------------------
     0000171D  A$elementsbuilder$1781             elementsbuilder
     0000171F  A$elementsbuilder$1786             elementsbuilder
     0000171F  C$elementsbuilder.c$250$2_0$160    elementsbuilder
     00001721  A$elementsbuilder$1787             elementsbuilder
     00001722  A$elementsbuilder$1788             elementsbuilder
     00001724  A$elementsbuilder$1789             elementsbuilder
     00001725  A$elementsbuilder$1793             elementsbuilder
     00001725  C$elementsbuilder.c$249$3_0$161    elementsbuilder
     00001726  A$elementsbuilder$1794             elementsbuilder
     00001728  A$elementsbuilder$1795             elementsbuilder
     00001729  A$elementsbuilder$1796             elementsbuilder
     0000172B  A$elementsbuilder$1800             elementsbuilder
     0000172B  C$elementsbuilder.c$250$4_0$163    elementsbuilder
     0000172C  A$elementsbuilder$1801             elementsbuilder
     0000172E  A$elementsbuilder$1806             elementsbuilder
     0000172E  C$elementsbuilder.c$251$3_0$161    elementsbuilder
     0000172F  A$elementsbuilder$1807             elementsbuilder
     00001731  A$elementsbuilder$1808             elementsbuilder
     00001732  A$elementsbuilder$1809             elementsbuilder
     00001734  A$elementsbuilder$1813             elementsbuilder
     00001734  C$elementsbuilder.c$252$4_0$164    elementsbuilder
     00001736  A$elementsbuilder$1817             elementsbuilder
     00001736  C$elementsbuilder.c$253$4_0$164    elementsbuilder
     00001737  A$elementsbuilder$1818             elementsbuilder
     00001738  A$elementsbuilder$1819             elementsbuilder
     00001739  A$elementsbuilder$1822             elementsbuilder
     0000173B  A$elementsbuilder$1823             elementsbuilder
     0000173C  A$elementsbuilder$1824             elementsbuilder
     0000173D  A$elementsbuilder$1825             elementsbuilder
     0000173E  A$elementsbuilder$1826             elementsbuilder
     0000173F  A$elementsbuilder$1827             elementsbuilder
     00001740  A$elementsbuilder$1828             elementsbuilder
     00001741  A$elementsbuilder$1829             elementsbuilder
     00001742  A$elementsbuilder$1831             elementsbuilder
     00001744  A$elementsbuilder$1834             elementsbuilder
     00001745  A$elementsbuilder$1835             elementsbuilder
     00001746  A$elementsbuilder$1836             elementsbuilder
     00001747  A$elementsbuilder$1837             elementsbuilder
     0000174A  A$elementsbuilder$1838             elementsbuilder
     0000174B  A$elementsbuilder$1839             elementsbuilder
     0000174C  A$elementsbuilder$1840             elementsbuilder
     0000174D  A$elementsbuilder$1842             elementsbuilder
     0000174F  A$elementsbuilder$1843             elementsbuilder
     00001750  A$elementsbuilder$1844             elementsbuilder
     00001751  A$elementsbuilder$1845             elementsbuilder
     00001752  A$elementsbuilder$1846             elementsbuilder
     00001753  A$elementsbuilder$1847             elementsbuilder
     00001754  A$elementsbuilder$1851             elementsbuilder
     00001754  C$elementsbuilder.c$242$2_0$160    elementsbuilder
     00001755  A$elementsbuilder$1852             elementsbuilder
     00001757  A$elementsbuilder$1857             elementsbuilder
ASxxxx Linker V03.00 + NoICE + sdld,  page 76.
Hexadecimal  [32-Bits]

Area                                    Addr        Size        Decimal Bytes (Attributes)
--------------------------------        ----        ----        ------- ----- ------------
_CODE                               00000200    00003D11 =       15633. bytes (REL,CON)

      Value  Global                              Global Defined In Module
      -----  --------------------------------   ------------------------
     00001759  A$elementsbuilder$1862             elementsbuilder
     00001759  C$elementsbuilder.c$258$2_0$160    elementsbuilder
     00001759  XG$moveElement$0$0                 elementsbuilder
     0000175A  A$elementsbuilder$1872             elementsbuilder
     0000175A  C$elementsbuilder.c$261$2_0$170    elementsbuilder
     0000175A  G$setTilesElement$0$0              elementsbuilder
     0000175A  _setTilesElement                   elementsbuilder
     0000175C  A$elementsbuilder$1876             elementsbuilder
     0000175C  C$elementsbuilder.c$263$1_0$169    elementsbuilder
     0000175E  A$elementsbuilder$1877             elementsbuilder
     0000175F  A$elementsbuilder$1878             elementsbuilder
     00001760  A$elementsbuilder$1879             elementsbuilder
     00001761  A$elementsbuilder$1880             elementsbuilder
     00001764  A$elementsbuilder$1881             elementsbuilder
     00001765  A$elementsbuilder$1882             elementsbuilder
     00001766  A$elementsbuilder$1886             elementsbuilder
     00001766  C$elementsbuilder.c$264$1_0$169    elementsbuilder
     00001767  A$elementsbuilder$1887             elementsbuilder
     00001768  A$elementsbuilder$1888             elementsbuilder
     00001769  A$elementsbuilder$1889             elementsbuilder
     0000176A  A$elementsbuilder$1890             elementsbuilder
     0000176B  A$elementsbuilder$1891             elementsbuilder
     0000176D  A$elementsbuilder$1892             elementsbuilder
     0000176E  A$elementsbuilder$1893             elementsbuilder
     0000176F  A$elementsbuilder$1894             elementsbuilder
     00001770  A$elementsbuilder$1895             elementsbuilder
     00001772  A$elementsbuilder$1896             elementsbuilder
     00001773  A$elementsbuilder$1897             elementsbuilder
     00001774  A$elementsbuilder$1898             elementsbuilder
     00001775  A$elementsbuilder$1899             elementsbuilder
     00001777  A$elementsbuilder$1900             elementsbuilder
     00001778  A$elementsbuilder$1901             elementsbuilder
     00001779  A$elementsbuilder$1902             elementsbuilder
     0000177A  A$elementsbuilder$1903             elementsbuilder
     0000177B  A$elementsbuilder$1904             elementsbuilder
     0000177E  A$elementsbuilder$1905             elementsbuilder
     0000177F  A$elementsbuilder$1906             elementsbuilder
     00001780  A$elementsbuilder$1907             elementsbuilder
     00001781  A$elementsbuilder$1908             elementsbuilder
     00001782  A$elementsbuilder$1909             elementsbuilder
     00001784  A$elementsbuilder$1910             elementsbuilder
     00001785  A$elementsbuilder$1912             elementsbuilder
     00001788  A$elementsbuilder$1913             elementsbuilder
     00001789  A$elementsbuilder$1914             elementsbuilder
     0000178A  A$elementsbuilder$1915             elementsbuilder
     0000178B  A$elementsbuilder$1916             elementsbuilder
     0000178D  A$elementsbuilder$1917             elementsbuilder
     0000178E  A$elementsbuilder$1918             elementsbuilder
     0000178F  A$elementsbuilder$1919             elementsbuilder
     00001790  A$elementsbuilder$1920             elementsbuilder
     00001792  A$elementsbuilder$1921             elementsbuilder
ASxxxx Linker V03.00 + NoICE + sdld,  page 77.
Hexadecimal  [32-Bits]

Area                                    Addr        Size        Decimal Bytes (Attributes)
--------------------------------        ----        ----        ------- ----- ------------
_CODE                               00000200    00003D11 =       15633. bytes (REL,CON)

      Value  Global                              Global Defined In Module
      -----  --------------------------------   ------------------------
     00001793  A$elementsbuilder$1922             elementsbuilder
     00001796  A$elementsbuilder$1924             elementsbuilder
     00001798  A$elementsbuilder$1925             elementsbuilder
     00001799  A$elementsbuilder$1926             elementsbuilder
     0000179B  A$elementsbuilder$1927             elementsbuilder
     0000179C  A$elementsbuilder$1928             elementsbuilder
     0000179D  A$elementsbuilder$1929             elementsbuilder
     0000179E  A$elementsbuilder$1930             elementsbuilder
     0000179F  A$elementsbuilder$1931             elementsbuilder
     000017A0  A$elementsbuilder$1932             elementsbuilder
     000017A1  A$elementsbuilder$1933             elementsbuilder
     000017A2  A$elementsbuilder$1934             elementsbuilder
     000017A3  A$elementsbuilder$1935             elementsbuilder
     000017A4  A$elementsbuilder$1936             elementsbuilder
     000017A5  A$elementsbuilder$1937             elementsbuilder
     000017A7  A$elementsbuilder$1938             elementsbuilder
     000017A9  A$elementsbuilder$1939             elementsbuilder
     000017AB  A$elementsbuilder$1940             elementsbuilder
     000017AD  A$elementsbuilder$1941             elementsbuilder
     000017AE  A$elementsbuilder$1942             elementsbuilder
     000017B0  A$elementsbuilder$1944             elementsbuilder
     000017B2  A$elementsbuilder$1945             elementsbuilder
     000017B4  A$elementsbuilder$1946             elementsbuilder
     000017B5  A$elementsbuilder$1948             elementsbuilder
     000017B7  A$elementsbuilder$1950             elementsbuilder
     000017B9  A$elementsbuilder$1951             elementsbuilder
     000017BA  A$elementsbuilder$1952             elementsbuilder
     000017BB  A$elementsbuilder$1953             elementsbuilder
     000017BC  A$elementsbuilder$1954             elementsbuilder
     000017BD  A$elementsbuilder$1955             elementsbuilder
     000017BE  A$elementsbuilder$1956             elementsbuilder
     000017BF  A$elementsbuilder$1957             elementsbuilder
     000017C0  A$elementsbuilder$1958             elementsbuilder
     000017C2  A$elementsbuilder$1960             elementsbuilder
     000017C3  A$elementsbuilder$1961             elementsbuilder
     000017C4  A$elementsbuilder$1962             elementsbuilder
     000017C5  A$elementsbuilder$1963             elementsbuilder
     000017C6  A$elementsbuilder$1964             elementsbuilder
     000017C7  A$elementsbuilder$1965             elementsbuilder
     000017C8  A$elementsbuilder$1966             elementsbuilder
     000017C9  A$elementsbuilder$1967             elementsbuilder
     000017CA  A$elementsbuilder$1968             elementsbuilder
     000017CB  A$elementsbuilder$1970             elementsbuilder
     000017CD  A$elementsbuilder$1973             elementsbuilder
     000017CE  A$elementsbuilder$1974             elementsbuilder
     000017CF  A$elementsbuilder$1975             elementsbuilder
     000017D0  A$elementsbuilder$1976             elementsbuilder
     000017D3  A$elementsbuilder$1977             elementsbuilder
     000017D4  A$elementsbuilder$1978             elementsbuilder
     000017D5  A$elementsbuilder$1979             elementsbuilder
     000017D6  A$elementsbuilder$1980             elementsbuilder
ASxxxx Linker V03.00 + NoICE + sdld,  page 78.
Hexadecimal  [32-Bits]

Area                                    Addr        Size        Decimal Bytes (Attributes)
--------------------------------        ----        ----        ------- ----- ------------
_CODE                               00000200    00003D11 =       15633. bytes (REL,CON)

      Value  Global                              Global Defined In Module
      -----  --------------------------------   ------------------------
     000017D7  A$elementsbuilder$1981             elementsbuilder
     000017D8  A$elementsbuilder$1982             elementsbuilder
     000017DA  A$elementsbuilder$1983             elementsbuilder
     000017DB  A$elementsbuilder$1984             elementsbuilder
     000017DC  A$elementsbuilder$1988             elementsbuilder
     000017DC  C$elementsbuilder.c$266$2_0$170    elementsbuilder
     000017DD  A$elementsbuilder$1989             elementsbuilder
     000017DF  A$elementsbuilder$1994             elementsbuilder
     000017E1  A$elementsbuilder$1999             elementsbuilder
     000017E1  C$elementsbuilder.c$270$2_0$170    elementsbuilder
     000017E1  XG$setTilesElement$0$0             elementsbuilder
     000017E2  A$elementsbuilder$2009             elementsbuilder
     000017E2  C$elementsbuilder.c$273$2_0$176    elementsbuilder
     000017E2  G$moveTileElement$0$0              elementsbuilder
     000017E2  _moveTileElement                   elementsbuilder
     000017E4  A$elementsbuilder$2013             elementsbuilder
     000017E4  C$elementsbuilder.c$275$1_0$176    elementsbuilder
     000017E6  A$elementsbuilder$2014             elementsbuilder
     000017E7  A$elementsbuilder$2015             elementsbuilder
     000017E9  A$elementsbuilder$2016             elementsbuilder
     000017EA  A$elementsbuilder$2017             elementsbuilder
     000017EB  A$elementsbuilder$2018             elementsbuilder
     000017EC  A$elementsbuilder$2019             elementsbuilder
     000017ED  A$elementsbuilder$2020             elementsbuilder
     000017EE  A$elementsbuilder$2021             elementsbuilder
     000017EF  A$elementsbuilder$2022             elementsbuilder
     000017F0  A$elementsbuilder$2023             elementsbuilder
     000017F1  A$elementsbuilder$2024             elementsbuilder
     000017F4  A$elementsbuilder$2025             elementsbuilder
     000017F5  A$elementsbuilder$2026             elementsbuilder
     000017F6  A$elementsbuilder$2027             elementsbuilder
     000017F7  A$elementsbuilder$2028             elementsbuilder
     000017FA  A$elementsbuilder$2029             elementsbuilder
     000017FB  A$elementsbuilder$2030             elementsbuilder
     000017FC  A$elementsbuilder$2031             elementsbuilder
     000017FD  A$elementsbuilder$2032             elementsbuilder
     000017FE  A$elementsbuilder$2033             elementsbuilder
     000017FF  A$elementsbuilder$2034             elementsbuilder
     00001800  A$elementsbuilder$2035             elementsbuilder
     00001801  A$elementsbuilder$2036             elementsbuilder
     00001803  A$elementsbuilder$2037             elementsbuilder
     00001805  A$elementsbuilder$2041             elementsbuilder
     00001805  C$elementsbuilder.c$276$2_0$177    elementsbuilder
     00001808  A$elementsbuilder$2042             elementsbuilder
     00001809  A$elementsbuilder$2043             elementsbuilder
     0000180A  A$elementsbuilder$2044             elementsbuilder
     0000180B  A$elementsbuilder$2045             elementsbuilder
     0000180C  A$elementsbuilder$2046             elementsbuilder
     0000180D  A$elementsbuilder$2047             elementsbuilder
     0000180F  A$elementsbuilder$2048             elementsbuilder
     00001810  A$elementsbuilder$2049             elementsbuilder
ASxxxx Linker V03.00 + NoICE + sdld,  page 79.
Hexadecimal  [32-Bits]

Area                                    Addr        Size        Decimal Bytes (Attributes)
--------------------------------        ----        ----        ------- ----- ------------
_CODE                               00000200    00003D11 =       15633. bytes (REL,CON)

      Value  Global                              Global Defined In Module
      -----  --------------------------------   ------------------------
     00001811  A$elementsbuilder$2053             elementsbuilder
     00001811  C$elementsbuilder.c$277$2_0$177    elementsbuilder
     00001814  A$elementsbuilder$2054             elementsbuilder
     00001815  A$elementsbuilder$2055             elementsbuilder
     00001816  A$elementsbuilder$2056             elementsbuilder
     00001818  A$elementsbuilder$2057             elementsbuilder
     00001819  A$elementsbuilder$2058             elementsbuilder
     0000181B  A$elementsbuilder$2059             elementsbuilder
     0000181C  A$elementsbuilder$2060             elementsbuilder
     0000181D  A$elementsbuilder$2061             elementsbuilder
     0000181F  A$elementsbuilder$2065             elementsbuilder
     0000181F  C$elementsbuilder.c$278$3_0$178    elementsbuilder
     00001820  A$elementsbuilder$2066             elementsbuilder
     00001821  A$elementsbuilder$2071             elementsbuilder
     00001821  C$elementsbuilder.c$282$1_0$176    elementsbuilder
     00001822  A$elementsbuilder$2072             elementsbuilder
     00001823  A$elementsbuilder$2073             elementsbuilder
     00001824  A$elementsbuilder$2074             elementsbuilder
     00001825  A$elementsbuilder$2075             elementsbuilder
     00001827  A$elementsbuilder$2079             elementsbuilder
     00001827  C$elementsbuilder.c$283$2_0$179    elementsbuilder
     0000182A  A$elementsbuilder$2080             elementsbuilder
     0000182B  A$elementsbuilder$2081             elementsbuilder
     0000182D  A$elementsbuilder$2085             elementsbuilder
     0000182D  C$elementsbuilder.c$284$3_0$180    elementsbuilder
     00001830  A$elementsbuilder$2086             elementsbuilder
     00001832  A$elementsbuilder$2087             elementsbuilder
     00001834  A$elementsbuilder$2091             elementsbuilder
     00001834  C$elementsbuilder.c$285$4_0$181    elementsbuilder
     00001835  A$elementsbuilder$2092             elementsbuilder
     00001836  A$elementsbuilder$2093             elementsbuilder
     00001837  A$elementsbuilder$2094             elementsbuilder
     00001838  A$elementsbuilder$2095             elementsbuilder
     00001839  A$elementsbuilder$2096             elementsbuilder
     0000183A  A$elementsbuilder$2097             elementsbuilder
     0000183B  A$elementsbuilder$2098             elementsbuilder
     0000183E  A$elementsbuilder$2099             elementsbuilder
     0000183F  A$elementsbuilder$2100             elementsbuilder
     00001842  A$elementsbuilder$2101             elementsbuilder
     00001844  A$elementsbuilder$2102             elementsbuilder
     00001845  A$elementsbuilder$2106             elementsbuilder
     00001845  C$elementsbuilder.c$286$4_0$181    elementsbuilder
     00001848  A$elementsbuilder$2107             elementsbuilder
     00001849  A$elementsbuilder$2108             elementsbuilder
     0000184A  A$elementsbuilder$2109             elementsbuilder
     0000184B  A$elementsbuilder$2110             elementsbuilder
     0000184C  A$elementsbuilder$2111             elementsbuilder
     0000184F  A$elementsbuilder$2112             elementsbuilder
     00001850  A$elementsbuilder$2113             elementsbuilder
     00001851  A$elementsbuilder$2114             elementsbuilder
     00001852  A$elementsbuilder$2115             elementsbuilder
ASxxxx Linker V03.00 + NoICE + sdld,  page 80.
Hexadecimal  [32-Bits]

Area                                    Addr        Size        Decimal Bytes (Attributes)
--------------------------------        ----        ----        ------- ----- ------------
_CODE                               00000200    00003D11 =       15633. bytes (REL,CON)

      Value  Global                              Global Defined In Module
      -----  --------------------------------   ------------------------
     00001855  A$elementsbuilder$2116             elementsbuilder
     00001857  A$elementsbuilder$2117             elementsbuilder
     00001858  A$elementsbuilder$2118             elementsbuilder
     00001859  A$elementsbuilder$2119             elementsbuilder
     0000185A  A$elementsbuilder$2120             elementsbuilder
     0000185C  A$elementsbuilder$2124             elementsbuilder
     0000185C  C$elementsbuilder.c$287$5_0$182    elementsbuilder
     0000185D  A$elementsbuilder$2125             elementsbuilder
     0000185E  A$elementsbuilder$2126             elementsbuilder
     0000185F  A$elementsbuilder$2127             elementsbuilder
     00001860  A$elementsbuilder$2128             elementsbuilder
     00001863  A$elementsbuilder$2129             elementsbuilder
     00001864  A$elementsbuilder$2130             elementsbuilder
     00001865  A$elementsbuilder$2131             elementsbuilder
     00001867  A$elementsbuilder$2136             elementsbuilder
     00001867  C$elementsbuilder.c$289$5_0$183    elementsbuilder
     0000186A  A$elementsbuilder$2137             elementsbuilder
     0000186B  A$elementsbuilder$2138             elementsbuilder
     0000186C  A$elementsbuilder$2139             elementsbuilder
     0000186E  A$elementsbuilder$2140             elementsbuilder
     0000186F  A$elementsbuilder$2141             elementsbuilder
     00001870  A$elementsbuilder$2142             elementsbuilder
     00001873  A$elementsbuilder$2143             elementsbuilder
     00001874  A$elementsbuilder$2144             elementsbuilder
     00001875  A$elementsbuilder$2149             elementsbuilder
     00001875  C$elementsbuilder.c$291$4_0$181    elementsbuilder
     00001878  A$elementsbuilder$2150             elementsbuilder
     00001879  A$elementsbuilder$2151             elementsbuilder
     0000187B  A$elementsbuilder$2156             elementsbuilder
     0000187B  C$elementsbuilder.c$293$4_0$184    elementsbuilder
     0000187C  A$elementsbuilder$2157             elementsbuilder
     0000187F  A$elementsbuilder$2158             elementsbuilder
     00001880  A$elementsbuilder$2159             elementsbuilder
     00001883  A$elementsbuilder$2160             elementsbuilder
     00001884  A$elementsbuilder$2161             elementsbuilder
     00001885  A$elementsbuilder$2165             elementsbuilder
     00001885  C$elementsbuilder.c$294$4_0$184    elementsbuilder
     00001888  A$elementsbuilder$2166             elementsbuilder
     0000188A  A$elementsbuilder$2167             elementsbuilder
     0000188C  A$elementsbuilder$2172             elementsbuilder
     0000188C  C$elementsbuilder.c$297$3_0$185    elementsbuilder
     0000188D  A$elementsbuilder$2173             elementsbuilder
     0000188E  A$elementsbuilder$2174             elementsbuilder
     0000188F  A$elementsbuilder$2175             elementsbuilder
     00001890  A$elementsbuilder$2176             elementsbuilder
     00001893  A$elementsbuilder$2177             elementsbuilder
     00001894  A$elementsbuilder$2178             elementsbuilder
     00001895  A$elementsbuilder$2179             elementsbuilder
     00001897  A$elementsbuilder$2184             elementsbuilder
     00001897  C$elementsbuilder.c$300$2_0$186    elementsbuilder
     00001898  A$elementsbuilder$2185             elementsbuilder
ASxxxx Linker V03.00 + NoICE + sdld,  page 81.
Hexadecimal  [32-Bits]

Area                                    Addr        Size        Decimal Bytes (Attributes)
--------------------------------        ----        ----        ------- ----- ------------
_CODE                               00000200    00003D11 =       15633. bytes (REL,CON)

      Value  Global                              Global Defined In Module
      -----  --------------------------------   ------------------------
     00001899  A$elementsbuilder$2186             elementsbuilder
     0000189A  A$elementsbuilder$2187             elementsbuilder
     0000189B  A$elementsbuilder$2188             elementsbuilder
     0000189E  A$elementsbuilder$2189             elementsbuilder
     0000189F  A$elementsbuilder$2190             elementsbuilder
     000018A0  A$elementsbuilder$2195             elementsbuilder
     000018A0  C$elementsbuilder.c$302$1_0$176    elementsbuilder
     000018A1  A$elementsbuilder$2196             elementsbuilder
     000018A4  A$elementsbuilder$2197             elementsbuilder
     000018A5  A$elementsbuilder$2201             elementsbuilder
     000018A7  A$elementsbuilder$2206             elementsbuilder
     000018A7  C$elementsbuilder.c$303$1_0$176    elementsbuilder
     000018A7  XG$moveTileElement$0$0             elementsbuilder
     000018A8  Felementsbuilder$__str_0$0_0$0     elementsbuilder
     000018C2  Felementsbuilder$__str_1$0_0$0     elementsbuilder
     000018DA  A$elementsbuilder$2227             elementsbuilder
     000018DA  C$elementsbuilder.c$307$1_0$187    elementsbuilder
     000018DA  C$elementsbuilder.c$309$1_0$187    elementsbuilder
     000018DA  G$createPlayer$0$0                 elementsbuilder
     000018DA  _createPlayer                      elementsbuilder
     000018DD  A$elementsbuilder$2228             elementsbuilder
     000018DF  A$elementsbuilder$2232             elementsbuilder
     000018DF  C$elementsbuilder.c$311$1_0$187    elementsbuilder
     000018E2  A$elementsbuilder$2233             elementsbuilder
     000018E4  A$elementsbuilder$2234             elementsbuilder
     000018E5  A$elementsbuilder$2238             elementsbuilder
     000018E5  C$elementsbuilder.c$312$1_0$187    elementsbuilder
     000018E8  A$elementsbuilder$2239             elementsbuilder
     000018EA  A$elementsbuilder$2243             elementsbuilder
     000018EA  C$elementsbuilder.c$313$1_0$187    elementsbuilder
     000018ED  A$elementsbuilder$2244             elementsbuilder
     000018EE  A$elementsbuilder$2245             elementsbuilder
     000018EF  A$elementsbuilder$2249             elementsbuilder
     000018EF  C$elementsbuilder.c$315$1_0$187    elementsbuilder
     000018F2  A$elementsbuilder$2250             elementsbuilder
     000018F4  A$elementsbuilder$2254             elementsbuilder
     000018F4  C$elementsbuilder.c$316$1_0$187    elementsbuilder
     000018F7  A$elementsbuilder$2255             elementsbuilder
     000018F9  A$elementsbuilder$2259             elementsbuilder
     000018F9  C$elementsbuilder.c$317$1_0$187    elementsbuilder
     000018FC  A$elementsbuilder$2260             elementsbuilder
     000018FE  A$elementsbuilder$2264             elementsbuilder
     000018FE  C$elementsbuilder.c$319$1_0$187    elementsbuilder
     00001901  A$elementsbuilder$2265             elementsbuilder
     00001903  A$elementsbuilder$2269             elementsbuilder
     00001903  C$elementsbuilder.c$320$1_0$187    elementsbuilder
     00001906  A$elementsbuilder$2270             elementsbuilder
     00001908  A$elementsbuilder$2274             elementsbuilder
     00001908  C$elementsbuilder.c$322$1_0$187    elementsbuilder
     0000190B  A$elementsbuilder$2275             elementsbuilder
     0000190C  A$elementsbuilder$2276             elementsbuilder
ASxxxx Linker V03.00 + NoICE + sdld,  page 82.
Hexadecimal  [32-Bits]

Area                                    Addr        Size        Decimal Bytes (Attributes)
--------------------------------        ----        ----        ------- ----- ------------
_CODE                               00000200    00003D11 =       15633. bytes (REL,CON)

      Value  Global                              Global Defined In Module
      -----  --------------------------------   ------------------------
     0000190D  A$elementsbuilder$2280             elementsbuilder
     0000190D  C$elementsbuilder.c$323$1_0$187    elementsbuilder
     00001910  A$elementsbuilder$2281             elementsbuilder
     00001912  A$elementsbuilder$2285             elementsbuilder
     00001912  C$elementsbuilder.c$325$1_0$187    elementsbuilder
     00001915  A$elementsbuilder$2286             elementsbuilder
     00001917  A$elementsbuilder$2290             elementsbuilder
     00001917  C$elementsbuilder.c$326$1_0$187    elementsbuilder
     0000191A  A$elementsbuilder$2291             elementsbuilder
     0000191C  A$elementsbuilder$2295             elementsbuilder
     0000191C  C$elementsbuilder.c$328$1_0$187    elementsbuilder
     0000191F  A$elementsbuilder$2296             elementsbuilder
     00001921  A$elementsbuilder$2300             elementsbuilder
     00001921  C$elementsbuilder.c$329$1_0$187    elementsbuilder
     00001924  A$elementsbuilder$2301             elementsbuilder
     00001926  A$elementsbuilder$2305             elementsbuilder
     00001926  C$elementsbuilder.c$330$1_0$187    elementsbuilder
     00001929  A$elementsbuilder$2306             elementsbuilder
     0000192B  A$elementsbuilder$2310             elementsbuilder
     0000192B  C$elementsbuilder.c$333$1_0$187    elementsbuilder
     0000192C  A$elementsbuilder$2311             elementsbuilder
     0000192D  A$elementsbuilder$2312             elementsbuilder
     0000192E  A$elementsbuilder$2316             elementsbuilder
     0000192E  C$elementsbuilder.c$335$2_0$188    elementsbuilder
     00001931  A$elementsbuilder$2317             elementsbuilder
     00001933  A$elementsbuilder$2321             elementsbuilder
     00001933  C$elementsbuilder.c$336$2_0$188    elementsbuilder
     00001936  A$elementsbuilder$2322             elementsbuilder
     00001938  A$elementsbuilder$2326             elementsbuilder
     00001938  C$elementsbuilder.c$337$2_0$188    elementsbuilder
     0000193B  A$elementsbuilder$2327             elementsbuilder
     0000193D  A$elementsbuilder$2331             elementsbuilder
     0000193D  C$elementsbuilder.c$338$2_0$188    elementsbuilder
     00001940  A$elementsbuilder$2332             elementsbuilder
     00001942  A$elementsbuilder$2336             elementsbuilder
     00001942  C$elementsbuilder.c$339$2_0$188    elementsbuilder
     00001945  A$elementsbuilder$2337             elementsbuilder
     00001947  A$elementsbuilder$2341             elementsbuilder
     00001947  C$elementsbuilder.c$341$2_0$188    elementsbuilder
     0000194A  A$elementsbuilder$2342             elementsbuilder
     0000194C  A$elementsbuilder$2346             elementsbuilder
     0000194C  C$elementsbuilder.c$342$2_0$188    elementsbuilder
     0000194F  A$elementsbuilder$2347             elementsbuilder
     00001951  A$elementsbuilder$2351             elementsbuilder
     00001951  C$elementsbuilder.c$343$2_0$188    elementsbuilder
     00001954  A$elementsbuilder$2352             elementsbuilder
     00001956  A$elementsbuilder$2356             elementsbuilder
     00001956  C$elementsbuilder.c$344$2_0$188    elementsbuilder
     00001959  A$elementsbuilder$2357             elementsbuilder
     0000195B  A$elementsbuilder$2361             elementsbuilder
     0000195B  C$elementsbuilder.c$345$2_0$188    elementsbuilder
ASxxxx Linker V03.00 + NoICE + sdld,  page 83.
Hexadecimal  [32-Bits]

Area                                    Addr        Size        Decimal Bytes (Attributes)
--------------------------------        ----        ----        ------- ----- ------------
_CODE                               00000200    00003D11 =       15633. bytes (REL,CON)

      Value  Global                              Global Defined In Module
      -----  --------------------------------   ------------------------
     0000195E  A$elementsbuilder$2362             elementsbuilder
     00001960  A$elementsbuilder$2366             elementsbuilder
     00001960  C$elementsbuilder.c$347$2_0$188    elementsbuilder
     00001963  A$elementsbuilder$2367             elementsbuilder
     00001965  A$elementsbuilder$2371             elementsbuilder
     00001965  C$elementsbuilder.c$348$2_0$188    elementsbuilder
     00001968  A$elementsbuilder$2372             elementsbuilder
     0000196A  A$elementsbuilder$2376             elementsbuilder
     0000196A  C$elementsbuilder.c$349$2_0$188    elementsbuilder
     0000196D  A$elementsbuilder$2377             elementsbuilder
     0000196F  A$elementsbuilder$2381             elementsbuilder
     0000196F  C$elementsbuilder.c$350$2_0$188    elementsbuilder
     00001972  A$elementsbuilder$2382             elementsbuilder
     00001974  A$elementsbuilder$2386             elementsbuilder
     00001974  C$elementsbuilder.c$351$2_0$188    elementsbuilder
     00001977  A$elementsbuilder$2387             elementsbuilder
     00001979  A$elementsbuilder$2391             elementsbuilder
     00001979  C$elementsbuilder.c$353$2_0$188    elementsbuilder
     0000197C  A$elementsbuilder$2392             elementsbuilder
     0000197E  A$elementsbuilder$2396             elementsbuilder
     0000197E  C$elementsbuilder.c$354$2_0$188    elementsbuilder
     00001981  A$elementsbuilder$2397             elementsbuilder
     00001983  A$elementsbuilder$2401             elementsbuilder
     00001983  C$elementsbuilder.c$355$2_0$188    elementsbuilder
     00001986  A$elementsbuilder$2402             elementsbuilder
     00001988  A$elementsbuilder$2406             elementsbuilder
     00001988  C$elementsbuilder.c$356$2_0$188    elementsbuilder
     0000198B  A$elementsbuilder$2407             elementsbuilder
     0000198D  A$elementsbuilder$2411             elementsbuilder
     0000198D  C$elementsbuilder.c$357$2_0$188    elementsbuilder
     00001990  A$elementsbuilder$2412             elementsbuilder
     00001992  A$elementsbuilder$2420             elementsbuilder
     00001992  C$elementsbuilder.c$359$1_0$187    elementsbuilder
     00001992  XG$createPlayer$0$0                elementsbuilder
     00001993  A$elementsbuilder$2433             elementsbuilder
     00001993  C$elementsbuilder.c$362$1_0$190    elementsbuilder
     00001993  C$elementsbuilder.c$363$1_0$190    elementsbuilder
     00001993  G$getElement$0$0                   elementsbuilder
     00001993  _getElement                        elementsbuilder
     00001995  A$elementsbuilder$2434             elementsbuilder
     00001996  A$elementsbuilder$2435             elementsbuilder
     00001998  A$elementsbuilder$2436             elementsbuilder
     00001999  A$elementsbuilder$2437             elementsbuilder
     0000199A  A$elementsbuilder$2438             elementsbuilder
     0000199B  A$elementsbuilder$2439             elementsbuilder
     0000199C  A$elementsbuilder$2440             elementsbuilder
     0000199D  A$elementsbuilder$2441             elementsbuilder
     0000199E  A$elementsbuilder$2442             elementsbuilder
     0000199F  A$elementsbuilder$2443             elementsbuilder
     000019A0  A$elementsbuilder$2444             elementsbuilder
     000019A3  A$elementsbuilder$2445             elementsbuilder
ASxxxx Linker V03.00 + NoICE + sdld,  page 84.
Hexadecimal  [32-Bits]

Area                                    Addr        Size        Decimal Bytes (Attributes)
--------------------------------        ----        ----        ------- ----- ------------
_CODE                               00000200    00003D11 =       15633. bytes (REL,CON)

      Value  Global                              Global Defined In Module
      -----  --------------------------------   ------------------------
     000019A4  A$elementsbuilder$2446             elementsbuilder
     000019A5  A$elementsbuilder$2447             elementsbuilder
     000019A6  A$elementsbuilder$2455             elementsbuilder
     000019A6  C$elementsbuilder.c$364$1_0$190    elementsbuilder
     000019A6  XG$getElement$0$0                  elementsbuilder
     000019A7  A$elementsbuilder$2465             elementsbuilder
     000019A7  C$elementsbuilder.c$368$1_0$192    elementsbuilder
     000019A7  G$collideElementVSOther$0$0        elementsbuilder
     000019A7  _collideElementVSOther             elementsbuilder
     000019A9  A$elementsbuilder$2469             elementsbuilder
     000019A9  C$elementsbuilder.c$369$2_0$192    elementsbuilder
     000019AB  A$elementsbuilder$2473             elementsbuilder
     000019AB  C$elementsbuilder.c$371$3_0$193    elementsbuilder
     000019AD  A$elementsbuilder$2474             elementsbuilder
     000019AE  A$elementsbuilder$2475             elementsbuilder
     000019AF  A$elementsbuilder$2476             elementsbuilder
     000019B0  A$elementsbuilder$2477             elementsbuilder
     000019B1  A$elementsbuilder$2478             elementsbuilder
     000019B3  A$elementsbuilder$2479             elementsbuilder
     000019B4  A$elementsbuilder$2480             elementsbuilder
     000019B5  A$elementsbuilder$2481             elementsbuilder
     000019B6  A$elementsbuilder$2482             elementsbuilder
     000019B9  A$elementsbuilder$2483             elementsbuilder
     000019BA  A$elementsbuilder$2484             elementsbuilder
     000019BB  A$elementsbuilder$2485             elementsbuilder
     000019BC  A$elementsbuilder$2486             elementsbuilder
     000019BE  A$elementsbuilder$2487             elementsbuilder
     000019BF  A$elementsbuilder$2488             elementsbuilder
     000019C0  A$elementsbuilder$2489             elementsbuilder
     000019C1  A$elementsbuilder$2490             elementsbuilder
     000019C3  A$elementsbuilder$2491             elementsbuilder
     000019C4  A$elementsbuilder$2492             elementsbuilder
     000019C7  A$elementsbuilder$2493             elementsbuilder
     000019C8  A$elementsbuilder$2494             elementsbuilder
     000019C9  A$elementsbuilder$2495             elementsbuilder
     000019CA  A$elementsbuilder$2496             elementsbuilder
     000019CC  A$elementsbuilder$2497             elementsbuilder
     000019CD  A$elementsbuilder$2498             elementsbuilder
     000019CE  A$elementsbuilder$2499             elementsbuilder
     000019CF  A$elementsbuilder$2500             elementsbuilder
     000019D1  A$elementsbuilder$2501             elementsbuilder
     000019D2  A$elementsbuilder$2502             elementsbuilder
     000019D5  A$elementsbuilder$2503             elementsbuilder
     000019D6  A$elementsbuilder$2504             elementsbuilder
     000019D7  A$elementsbuilder$2505             elementsbuilder
     000019D8  A$elementsbuilder$2506             elementsbuilder
     000019DA  A$elementsbuilder$2507             elementsbuilder
     000019DB  A$elementsbuilder$2508             elementsbuilder
     000019DC  A$elementsbuilder$2509             elementsbuilder
     000019DD  A$elementsbuilder$2510             elementsbuilder
     000019DF  A$elementsbuilder$2511             elementsbuilder
ASxxxx Linker V03.00 + NoICE + sdld,  page 85.
Hexadecimal  [32-Bits]

Area                                    Addr        Size        Decimal Bytes (Attributes)
--------------------------------        ----        ----        ------- ----- ------------
_CODE                               00000200    00003D11 =       15633. bytes (REL,CON)

      Value  Global                              Global Defined In Module
      -----  --------------------------------   ------------------------
     000019E0  A$elementsbuilder$2512             elementsbuilder
     000019E3  A$elementsbuilder$2513             elementsbuilder
     000019E4  A$elementsbuilder$2514             elementsbuilder
     000019E5  A$elementsbuilder$2515             elementsbuilder
     000019E6  A$elementsbuilder$2516             elementsbuilder
     000019E8  A$elementsbuilder$2517             elementsbuilder
     000019E9  A$elementsbuilder$2518             elementsbuilder
     000019EA  A$elementsbuilder$2519             elementsbuilder
     000019EB  A$elementsbuilder$2520             elementsbuilder
     000019ED  A$elementsbuilder$2521             elementsbuilder
     000019EE  A$elementsbuilder$2522             elementsbuilder
     000019F1  A$elementsbuilder$2524             elementsbuilder
     000019F2  A$elementsbuilder$2525             elementsbuilder
     000019F4  A$elementsbuilder$2526             elementsbuilder
     000019F5  A$elementsbuilder$2527             elementsbuilder
     000019F6  A$elementsbuilder$2528             elementsbuilder
     000019F7  A$elementsbuilder$2529             elementsbuilder
     000019F8  A$elementsbuilder$2530             elementsbuilder
     000019FA  A$elementsbuilder$2531             elementsbuilder
     000019FD  A$elementsbuilder$2535             elementsbuilder
     000019FD  C$elementsbuilder.c$372$3_0$194    elementsbuilder
     000019FE  A$elementsbuilder$2536             elementsbuilder
     000019FF  A$elementsbuilder$2537             elementsbuilder
     00001A00  A$elementsbuilder$2538             elementsbuilder
     00001A01  A$elementsbuilder$2539             elementsbuilder
     00001A02  A$elementsbuilder$2540             elementsbuilder
     00001A03  A$elementsbuilder$2541             elementsbuilder
     00001A04  A$elementsbuilder$2542             elementsbuilder
     00001A05  A$elementsbuilder$2543             elementsbuilder
     00001A06  A$elementsbuilder$2544             elementsbuilder
     00001A08  A$elementsbuilder$2545             elementsbuilder
     00001A09  A$elementsbuilder$2546             elementsbuilder
     00001A0A  A$elementsbuilder$2547             elementsbuilder
     00001A0C  A$elementsbuilder$2548             elementsbuilder
     00001A0D  A$elementsbuilder$2549             elementsbuilder
     00001A10  A$elementsbuilder$2550             elementsbuilder
     00001A11  A$elementsbuilder$2551             elementsbuilder
     00001A12  A$elementsbuilder$2552             elementsbuilder
     00001A13  A$elementsbuilder$2553             elementsbuilder
     00001A16  A$elementsbuilder$2554             elementsbuilder
     00001A18  A$elementsbuilder$2555             elementsbuilder
     00001A19  A$elementsbuilder$2556             elementsbuilder
     00001A1B  A$elementsbuilder$2557             elementsbuilder
     00001A1C  A$elementsbuilder$2558             elementsbuilder
     00001A1D  A$elementsbuilder$2559             elementsbuilder
     00001A1E  A$elementsbuilder$2560             elementsbuilder
     00001A1F  A$elementsbuilder$2561             elementsbuilder
     00001A20  A$elementsbuilder$2562             elementsbuilder
     00001A22  A$elementsbuilder$2563             elementsbuilder
     00001A23  A$elementsbuilder$2564             elementsbuilder
     00001A24  A$elementsbuilder$2565             elementsbuilder
ASxxxx Linker V03.00 + NoICE + sdld,  page 86.
Hexadecimal  [32-Bits]

Area                                    Addr        Size        Decimal Bytes (Attributes)
--------------------------------        ----        ----        ------- ----- ------------
_CODE                               00000200    00003D11 =       15633. bytes (REL,CON)

      Value  Global                              Global Defined In Module
      -----  --------------------------------   ------------------------
     00001A25  A$elementsbuilder$2566             elementsbuilder
     00001A28  A$elementsbuilder$2571             elementsbuilder
     00001A28  C$elementsbuilder.c$376$4_0$195    elementsbuilder
     00001A2B  A$elementsbuilder$2572             elementsbuilder
     00001A2C  A$elementsbuilder$2573             elementsbuilder
     00001A2D  A$elementsbuilder$2574             elementsbuilder
     00001A2F  A$elementsbuilder$2575             elementsbuilder
     00001A30  A$elementsbuilder$2576             elementsbuilder
     00001A32  A$elementsbuilder$2577             elementsbuilder
     00001A35  A$elementsbuilder$2578             elementsbuilder
     00001A36  A$elementsbuilder$2579             elementsbuilder
     00001A37  A$elementsbuilder$2580             elementsbuilder
     00001A39  A$elementsbuilder$2581             elementsbuilder
     00001A3A  A$elementsbuilder$2582             elementsbuilder
     00001A3C  A$elementsbuilder$2586             elementsbuilder
     00001A3C  C$elementsbuilder.c$375$4_0$195    elementsbuilder
     00001A3F  A$elementsbuilder$2587             elementsbuilder
     00001A40  A$elementsbuilder$2588             elementsbuilder
     00001A41  A$elementsbuilder$2589             elementsbuilder
     00001A43  A$elementsbuilder$2590             elementsbuilder
     00001A44  A$elementsbuilder$2591             elementsbuilder
     00001A46  A$elementsbuilder$2592             elementsbuilder
     00001A49  A$elementsbuilder$2593             elementsbuilder
     00001A4A  A$elementsbuilder$2594             elementsbuilder
     00001A4B  A$elementsbuilder$2595             elementsbuilder
     00001A4D  A$elementsbuilder$2596             elementsbuilder
     00001A4E  A$elementsbuilder$2597             elementsbuilder
     00001A50  A$elementsbuilder$2601             elementsbuilder
     00001A50  C$elementsbuilder.c$374$4_0$195    elementsbuilder
     00001A52  A$elementsbuilder$2602             elementsbuilder
     00001A53  A$elementsbuilder$2603             elementsbuilder
     00001A54  A$elementsbuilder$2604             elementsbuilder
     00001A55  A$elementsbuilder$2605             elementsbuilder
     00001A56  A$elementsbuilder$2606             elementsbuilder
     00001A58  A$elementsbuilder$2607             elementsbuilder
     00001A59  A$elementsbuilder$2608             elementsbuilder
     00001A5B  A$elementsbuilder$2609             elementsbuilder
     00001A5D  A$elementsbuilder$2610             elementsbuilder
     00001A5E  A$elementsbuilder$2611             elementsbuilder
     00001A5F  A$elementsbuilder$2612             elementsbuilder
     00001A60  A$elementsbuilder$2613             elementsbuilder
     00001A61  A$elementsbuilder$2614             elementsbuilder
     00001A63  A$elementsbuilder$2615             elementsbuilder
     00001A64  A$elementsbuilder$2616             elementsbuilder
     00001A66  A$elementsbuilder$2620             elementsbuilder
     00001A66  C$elementsbuilder.c$373$4_0$195    elementsbuilder
     00001A68  A$elementsbuilder$2621             elementsbuilder
     00001A69  A$elementsbuilder$2622             elementsbuilder
     00001A6A  A$elementsbuilder$2623             elementsbuilder
     00001A6B  A$elementsbuilder$2624             elementsbuilder
     00001A6C  A$elementsbuilder$2625             elementsbuilder
ASxxxx Linker V03.00 + NoICE + sdld,  page 87.
Hexadecimal  [32-Bits]

Area                                    Addr        Size        Decimal Bytes (Attributes)
--------------------------------        ----        ----        ------- ----- ------------
_CODE                               00000200    00003D11 =       15633. bytes (REL,CON)

      Value  Global                              Global Defined In Module
      -----  --------------------------------   ------------------------
     00001A6E  A$elementsbuilder$2626             elementsbuilder
     00001A6F  A$elementsbuilder$2627             elementsbuilder
     00001A71  A$elementsbuilder$2628             elementsbuilder
     00001A73  A$elementsbuilder$2629             elementsbuilder
     00001A74  A$elementsbuilder$2630             elementsbuilder
     00001A75  A$elementsbuilder$2631             elementsbuilder
     00001A76  A$elementsbuilder$2632             elementsbuilder
     00001A77  A$elementsbuilder$2633             elementsbuilder
     00001A78  A$elementsbuilder$2634             elementsbuilder
     00001A79  A$elementsbuilder$2635             elementsbuilder
     00001A7B  A$elementsbuilder$2636             elementsbuilder
     00001A7C  A$elementsbuilder$2637             elementsbuilder
     00001A7D  A$elementsbuilder$2638             elementsbuilder
     00001A7E  A$elementsbuilder$2641             elementsbuilder
     00001A7F  A$elementsbuilder$2644             elementsbuilder
     00001A80  A$elementsbuilder$2645             elementsbuilder
     00001A82  A$elementsbuilder$2646             elementsbuilder
     00001A83  A$elementsbuilder$2647             elementsbuilder
     00001A84  A$elementsbuilder$2650             elementsbuilder
     00001A85  A$elementsbuilder$2653             elementsbuilder
     00001A86  A$elementsbuilder$2654             elementsbuilder
     00001A88  A$elementsbuilder$2655             elementsbuilder
     00001A89  A$elementsbuilder$2656             elementsbuilder
     00001A8A  A$elementsbuilder$2659             elementsbuilder
     00001A8B  A$elementsbuilder$2662             elementsbuilder
     00001A8C  A$elementsbuilder$2663             elementsbuilder
     00001A8E  A$elementsbuilder$2664             elementsbuilder
     00001A8F  A$elementsbuilder$2665             elementsbuilder
     00001A90  A$elementsbuilder$2668             elementsbuilder
     00001A91  A$elementsbuilder$2671             elementsbuilder
     00001A92  A$elementsbuilder$2672             elementsbuilder
     00001A94  A$elementsbuilder$2673             elementsbuilder
     00001A95  A$elementsbuilder$2674             elementsbuilder
     00001A96  A$elementsbuilder$2677             elementsbuilder
     00001A97  A$elementsbuilder$2680             elementsbuilder
     00001A98  A$elementsbuilder$2681             elementsbuilder
     00001A9A  A$elementsbuilder$2682             elementsbuilder
     00001A9B  A$elementsbuilder$2683             elementsbuilder
     00001A9C  A$elementsbuilder$2686             elementsbuilder
     00001A9D  A$elementsbuilder$2689             elementsbuilder
     00001A9E  A$elementsbuilder$2690             elementsbuilder
     00001AA0  A$elementsbuilder$2691             elementsbuilder
     00001AA1  A$elementsbuilder$2692             elementsbuilder
     00001AA2  A$elementsbuilder$2695             elementsbuilder
     00001AA3  A$elementsbuilder$2698             elementsbuilder
     00001AA4  A$elementsbuilder$2699             elementsbuilder
     00001AA5  A$elementsbuilder$2700             elementsbuilder
     00001AA8  A$elementsbuilder$2701             elementsbuilder
     00001AAA  A$elementsbuilder$2702             elementsbuilder
     00001AAB  A$elementsbuilder$2703             elementsbuilder
     00001AAC  A$elementsbuilder$2707             elementsbuilder
ASxxxx Linker V03.00 + NoICE + sdld,  page 88.
Hexadecimal  [32-Bits]

Area                                    Addr        Size        Decimal Bytes (Attributes)
--------------------------------        ----        ----        ------- ----- ------------
_CODE                               00000200    00003D11 =       15633. bytes (REL,CON)

      Value  Global                              Global Defined In Module
      -----  --------------------------------   ------------------------
     00001AAC  C$elementsbuilder.c$378$4_0$195    elementsbuilder
     00001AAD  A$elementsbuilder$2708             elementsbuilder
     00001AAF  A$elementsbuilder$2712             elementsbuilder
     00001AAF  C$elementsbuilder.c$380$5_0$196    elementsbuilder
     00001AB1  A$elementsbuilder$2713             elementsbuilder
     00001AB2  A$elementsbuilder$2714             elementsbuilder
     00001AB3  A$elementsbuilder$2718             elementsbuilder
     00001AB3  C$elementsbuilder.c$381$5_0$196    elementsbuilder
     00001AB5  A$elementsbuilder$2723             elementsbuilder
     00001AB5  C$elementsbuilder.c$371$2_0$193    elementsbuilder
     00001AB6  A$elementsbuilder$2724             elementsbuilder
     00001AB8  A$elementsbuilder$2725             elementsbuilder
     00001AB9  A$elementsbuilder$2726             elementsbuilder
     00001ABA  A$elementsbuilder$2727             elementsbuilder
     00001ABB  A$elementsbuilder$2728             elementsbuilder
     00001ABE  A$elementsbuilder$2733             elementsbuilder
     00001ABE  C$elementsbuilder.c$385$1_0$192    elementsbuilder
     00001AC0  A$elementsbuilder$2734             elementsbuilder
     00001AC1  A$elementsbuilder$2738             elementsbuilder
     00001AC3  A$elementsbuilder$2743             elementsbuilder
     00001AC3  C$elementsbuilder.c$386$1_0$192    elementsbuilder
     00001AC3  XG$collideElementVSOther$0$0       elementsbuilder
     00001AC4  A$elementsbuilder$2753             elementsbuilder
     00001AC4  C$elementsbuilder.c$389$1_0$197    elementsbuilder
     00001AC4  G$processFinalAnimations$0$0       elementsbuilder
     00001AC4  _processFinalAnimations            elementsbuilder
     00001AC6  A$elementsbuilder$2757             elementsbuilder
     00001AC6  C$elementsbuilder.c$393$3_0$199    elementsbuilder
     00001AC8  A$elementsbuilder$2758             elementsbuilder
     00001AC9  A$elementsbuilder$2759             elementsbuilder
     00001ACA  A$elementsbuilder$2760             elementsbuilder
     00001ACC  A$elementsbuilder$2761             elementsbuilder
     00001ACD  A$elementsbuilder$2762             elementsbuilder
     00001ACE  A$elementsbuilder$2763             elementsbuilder
     00001AD1  A$elementsbuilder$2765             elementsbuilder
     00001AD2  A$elementsbuilder$2766             elementsbuilder
     00001AD4  A$elementsbuilder$2767             elementsbuilder
     00001AD5  A$elementsbuilder$2768             elementsbuilder
     00001AD6  A$elementsbuilder$2769             elementsbuilder
     00001AD7  A$elementsbuilder$2770             elementsbuilder
     00001AD8  A$elementsbuilder$2771             elementsbuilder
     00001ADA  A$elementsbuilder$2772             elementsbuilder
     00001ADC  A$elementsbuilder$2773             elementsbuilder
     00001ADE  A$elementsbuilder$2774             elementsbuilder
     00001ADF  A$elementsbuilder$2775             elementsbuilder
     00001AE0  A$elementsbuilder$2776             elementsbuilder
     00001AE1  A$elementsbuilder$2777             elementsbuilder
     00001AE2  A$elementsbuilder$2778             elementsbuilder
     00001AE3  A$elementsbuilder$2779             elementsbuilder
     00001AE4  A$elementsbuilder$2780             elementsbuilder
     00001AE5  A$elementsbuilder$2781             elementsbuilder
ASxxxx Linker V03.00 + NoICE + sdld,  page 89.
Hexadecimal  [32-Bits]

Area                                    Addr        Size        Decimal Bytes (Attributes)
--------------------------------        ----        ----        ------- ----- ------------
_CODE                               00000200    00003D11 =       15633. bytes (REL,CON)

      Value  Global                              Global Defined In Module
      -----  --------------------------------   ------------------------
     00001AE6  A$elementsbuilder$2782             elementsbuilder
     00001AE7  A$elementsbuilder$2783             elementsbuilder
     00001AE9  A$elementsbuilder$2788             elementsbuilder
     00001AE9  C$elementsbuilder.c$397$3_1$202    elementsbuilder
     00001AEB  A$elementsbuilder$2789             elementsbuilder
     00001AEC  A$elementsbuilder$2790             elementsbuilder
     00001AED  A$elementsbuilder$2791             elementsbuilder
     00001AEF  A$elementsbuilder$2792             elementsbuilder
     00001AF0  A$elementsbuilder$2793             elementsbuilder
     00001AF1  A$elementsbuilder$2794             elementsbuilder
     00001AF4  A$elementsbuilder$2796             elementsbuilder
     00001AF5  A$elementsbuilder$2797             elementsbuilder
     00001AF7  A$elementsbuilder$2798             elementsbuilder
     00001AF8  A$elementsbuilder$2799             elementsbuilder
     00001AF9  A$elementsbuilder$2800             elementsbuilder
     00001AFA  A$elementsbuilder$2801             elementsbuilder
     00001AFB  A$elementsbuilder$2802             elementsbuilder
     00001AFD  A$elementsbuilder$2803             elementsbuilder
     00001AFF  A$elementsbuilder$2804             elementsbuilder
     00001B01  A$elementsbuilder$2805             elementsbuilder
     00001B02  A$elementsbuilder$2806             elementsbuilder
     00001B03  A$elementsbuilder$2807             elementsbuilder
     00001B04  A$elementsbuilder$2808             elementsbuilder
     00001B05  A$elementsbuilder$2809             elementsbuilder
     00001B06  A$elementsbuilder$2810             elementsbuilder
     00001B07  A$elementsbuilder$2811             elementsbuilder
     00001B08  A$elementsbuilder$2812             elementsbuilder
     00001B09  A$elementsbuilder$2813             elementsbuilder
     00001B0A  A$elementsbuilder$2814             elementsbuilder
     00001B0C  A$elementsbuilder$2819             elementsbuilder
     00001B0C  C$elementsbuilder.c$399$6_1$208    elementsbuilder
     00001B0E  A$elementsbuilder$2820             elementsbuilder
     00001B0F  A$elementsbuilder$2821             elementsbuilder
     00001B10  A$elementsbuilder$2822             elementsbuilder
     00001B11  A$elementsbuilder$2823             elementsbuilder
     00001B13  A$elementsbuilder$2824             elementsbuilder
     00001B14  A$elementsbuilder$2825             elementsbuilder
     00001B16  A$elementsbuilder$2826             elementsbuilder
     00001B17  A$elementsbuilder$2827             elementsbuilder
     00001B19  A$elementsbuilder$2828             elementsbuilder
     00001B1A  A$elementsbuilder$2829             elementsbuilder
     00001B1C  A$elementsbuilder$2830             elementsbuilder
     00001B1D  A$elementsbuilder$2831             elementsbuilder
     00001B1E  A$elementsbuilder$2832             elementsbuilder
     00001B1F  A$elementsbuilder$2833             elementsbuilder
     00001B20  A$elementsbuilder$2834             elementsbuilder
     00001B21  A$elementsbuilder$2835             elementsbuilder
     00001B22  A$elementsbuilder$2836             elementsbuilder
     00001B23  A$elementsbuilder$2837             elementsbuilder
     00001B24  A$elementsbuilder$2838             elementsbuilder
     00001B25  A$elementsbuilder$2840             elementsbuilder
ASxxxx Linker V03.00 + NoICE + sdld,  page 90.
Hexadecimal  [32-Bits]

Area                                    Addr        Size        Decimal Bytes (Attributes)
--------------------------------        ----        ----        ------- ----- ------------
_CODE                               00000200    00003D11 =       15633. bytes (REL,CON)

      Value  Global                              Global Defined In Module
      -----  --------------------------------   ------------------------
     00001B27  A$elementsbuilder$2841             elementsbuilder
     00001B28  A$elementsbuilder$2842             elementsbuilder
     00001B2A  A$elementsbuilder$2843             elementsbuilder
     00001B2B  A$elementsbuilder$2844             elementsbuilder
     00001B2D  A$elementsbuilder$2845             elementsbuilder
     00001B2E  A$elementsbuilder$2846             elementsbuilder
     00001B30  A$elementsbuilder$2847             elementsbuilder
     00001B32  A$elementsbuilder$2848             elementsbuilder
     00001B34  A$elementsbuilder$2849             elementsbuilder
     00001B36  A$elementsbuilder$2850             elementsbuilder
     00001B38  A$elementsbuilder$2851             elementsbuilder
     00001B39  A$elementsbuilder$2852             elementsbuilder
     00001B3B  A$elementsbuilder$2854             elementsbuilder
     00001B3D  A$elementsbuilder$2855             elementsbuilder
     00001B3F  A$elementsbuilder$2856             elementsbuilder
     00001B40  A$elementsbuilder$2858             elementsbuilder
     00001B42  A$elementsbuilder$2862             elementsbuilder
     00001B42  C$elementsbuilder.c$400$3_1$204    elementsbuilder
     00001B44  A$elementsbuilder$2863             elementsbuilder
     00001B45  A$elementsbuilder$2864             elementsbuilder
     00001B46  A$elementsbuilder$2865             elementsbuilder
     00001B47  A$elementsbuilder$2866             elementsbuilder
     00001B48  A$elementsbuilder$2867             elementsbuilder
     00001B49  A$elementsbuilder$2868             elementsbuilder
     00001B4A  A$elementsbuilder$2869             elementsbuilder
     00001B4B  A$elementsbuilder$2870             elementsbuilder
     00001B4C  A$elementsbuilder$2871             elementsbuilder
     00001B4D  A$elementsbuilder$2872             elementsbuilder
     00001B4E  A$elementsbuilder$2873             elementsbuilder
     00001B4F  A$elementsbuilder$2874             elementsbuilder
     00001B50  A$elementsbuilder$2875             elementsbuilder
     00001B52  A$elementsbuilder$2876             elementsbuilder
     00001B53  A$elementsbuilder$2877             elementsbuilder
     00001B54  A$elementsbuilder$2878             elementsbuilder
     00001B56  A$elementsbuilder$2879             elementsbuilder
     00001B57  A$elementsbuilder$2880             elementsbuilder
     00001B5A  A$elementsbuilder$2881             elementsbuilder
     00001B5B  A$elementsbuilder$2882             elementsbuilder
     00001B5C  A$elementsbuilder$2883             elementsbuilder
     00001B5D  A$elementsbuilder$2884             elementsbuilder
     00001B5F  A$elementsbuilder$2888             elementsbuilder
     00001B5F  C$elementsbuilder.c$401$4_1$205    elementsbuilder
     00001B62  A$elementsbuilder$2889             elementsbuilder
     00001B63  A$elementsbuilder$2890             elementsbuilder
     00001B64  A$elementsbuilder$2891             elementsbuilder
     00001B66  A$elementsbuilder$2892             elementsbuilder
     00001B68  A$elementsbuilder$2896             elementsbuilder
     00001B68  C$elementsbuilder.c$402$5_1$206    elementsbuilder
     00001B6B  A$elementsbuilder$2897             elementsbuilder
     00001B6C  A$elementsbuilder$2898             elementsbuilder
     00001B6D  A$elementsbuilder$2902             elementsbuilder
ASxxxx Linker V03.00 + NoICE + sdld,  page 91.
Hexadecimal  [32-Bits]

Area                                    Addr        Size        Decimal Bytes (Attributes)
--------------------------------        ----        ----        ------- ----- ------------
_CODE                               00000200    00003D11 =       15633. bytes (REL,CON)

      Value  Global                              Global Defined In Module
      -----  --------------------------------   ------------------------
     00001B6E  A$elementsbuilder$2906             elementsbuilder
     00001B6E  C$elementsbuilder.c$404$2_1$197    elementsbuilder
     00001B70  A$elementsbuilder$2907             elementsbuilder
     00001B71  A$elementsbuilder$2908             elementsbuilder
     00001B73  A$elementsbuilder$2909             elementsbuilder
     00001B74  A$elementsbuilder$2913             elementsbuilder
     00001B74  C$elementsbuilder.c$403$5_1$206    elementsbuilder
     00001B75  A$elementsbuilder$2914             elementsbuilder
     00001B77  A$elementsbuilder$2915             elementsbuilder
     00001B79  A$elementsbuilder$2919             elementsbuilder
     00001B79  C$elementsbuilder.c$404$6_1$207    elementsbuilder
     00001B7A  A$elementsbuilder$2920             elementsbuilder
     00001B7B  A$elementsbuilder$2921             elementsbuilder
     00001B7C  A$elementsbuilder$2922             elementsbuilder
     00001B7D  A$elementsbuilder$2923             elementsbuilder
     00001B7E  A$elementsbuilder$2924             elementsbuilder
     00001B80  A$elementsbuilder$2925             elementsbuilder
     00001B81  A$elementsbuilder$2926             elementsbuilder
     00001B83  A$elementsbuilder$2927             elementsbuilder
     00001B84  A$elementsbuilder$2928             elementsbuilder
     00001B85  A$elementsbuilder$2929             elementsbuilder
     00001B86  A$elementsbuilder$2930             elementsbuilder
     00001B88  A$elementsbuilder$2934             elementsbuilder
     00001B88  C$elementsbuilder.c$405$6_1$207    elementsbuilder
     00001B89  A$elementsbuilder$2935             elementsbuilder
     00001B8A  A$elementsbuilder$2936             elementsbuilder
     00001B8B  A$elementsbuilder$2937             elementsbuilder
     00001B8C  A$elementsbuilder$2938             elementsbuilder
     00001B8E  A$elementsbuilder$2943             elementsbuilder
     00001B8E  C$elementsbuilder.c$407$6_1$208    elementsbuilder
     00001B90  A$elementsbuilder$2944             elementsbuilder
     00001B91  A$elementsbuilder$2945             elementsbuilder
     00001B93  A$elementsbuilder$2946             elementsbuilder
     00001B94  A$elementsbuilder$2947             elementsbuilder
     00001B95  A$elementsbuilder$2948             elementsbuilder
     00001B96  A$elementsbuilder$2949             elementsbuilder
     00001B98  A$elementsbuilder$2953             elementsbuilder
     00001B98  C$elementsbuilder.c$408$6_1$208    elementsbuilder
     00001B99  A$elementsbuilder$2954             elementsbuilder
     00001B9A  A$elementsbuilder$2955             elementsbuilder
     00001B9B  A$elementsbuilder$2960             elementsbuilder
     00001B9B  C$elementsbuilder.c$399$2_1$203    elementsbuilder
     00001B9D  A$elementsbuilder$2961             elementsbuilder
     00001B9E  A$elementsbuilder$2962             elementsbuilder
     00001BA0  A$elementsbuilder$2963             elementsbuilder
     00001BA1  A$elementsbuilder$2964             elementsbuilder
     00001BA2  A$elementsbuilder$2965             elementsbuilder
     00001BA5  A$elementsbuilder$2967             elementsbuilder
     00001BA7  A$elementsbuilder$2968             elementsbuilder
     00001BA8  A$elementsbuilder$2969             elementsbuilder
     00001BAA  A$elementsbuilder$2970             elementsbuilder
ASxxxx Linker V03.00 + NoICE + sdld,  page 92.
Hexadecimal  [32-Bits]

Area                                    Addr        Size        Decimal Bytes (Attributes)
--------------------------------        ----        ----        ------- ----- ------------
_CODE                               00000200    00003D11 =       15633. bytes (REL,CON)

      Value  Global                              Global Defined In Module
      -----  --------------------------------   ------------------------
     00001BAB  A$elementsbuilder$2971             elementsbuilder
     00001BAC  A$elementsbuilder$2972             elementsbuilder
     00001BAD  A$elementsbuilder$2973             elementsbuilder
     00001BAE  A$elementsbuilder$2977             elementsbuilder
     00001BAE  C$elementsbuilder.c$416$3_1$210    elementsbuilder
     00001BB0  A$elementsbuilder$2978             elementsbuilder
     00001BB1  A$elementsbuilder$2979             elementsbuilder
     00001BB3  A$elementsbuilder$2980             elementsbuilder
     00001BB4  A$elementsbuilder$2981             elementsbuilder
     00001BB6  A$elementsbuilder$2982             elementsbuilder
     00001BB7  A$elementsbuilder$2983             elementsbuilder
     00001BB9  A$elementsbuilder$2984             elementsbuilder
     00001BBA  A$elementsbuilder$2985             elementsbuilder
     00001BBB  A$elementsbuilder$2986             elementsbuilder
     00001BBC  A$elementsbuilder$2987             elementsbuilder
     00001BBD  A$elementsbuilder$2989             elementsbuilder
     00001BBF  A$elementsbuilder$2990             elementsbuilder
     00001BC0  A$elementsbuilder$2991             elementsbuilder
     00001BC1  A$elementsbuilder$2992             elementsbuilder
     00001BC2  A$elementsbuilder$2993             elementsbuilder
     00001BC4  A$elementsbuilder$2994             elementsbuilder
     00001BC5  A$elementsbuilder$2995             elementsbuilder
     00001BC6  A$elementsbuilder$2996             elementsbuilder
     00001BC7  A$elementsbuilder$2997             elementsbuilder
     00001BC8  A$elementsbuilder$2998             elementsbuilder
     00001BC9  A$elementsbuilder$2999             elementsbuilder
     00001BCA  A$elementsbuilder$3000             elementsbuilder
     00001BCC  A$elementsbuilder$3001             elementsbuilder
     00001BCE  A$elementsbuilder$3002             elementsbuilder
     00001BD0  A$elementsbuilder$3003             elementsbuilder
     00001BD2  A$elementsbuilder$3004             elementsbuilder
     00001BD3  A$elementsbuilder$3005             elementsbuilder
     00001BD5  A$elementsbuilder$3007             elementsbuilder
     00001BD7  A$elementsbuilder$3008             elementsbuilder
     00001BD9  A$elementsbuilder$3009             elementsbuilder
     00001BDA  A$elementsbuilder$3011             elementsbuilder
     00001BDC  A$elementsbuilder$3015             elementsbuilder
     00001BDC  C$elementsbuilder.c$417$3_1$210    elementsbuilder
     00001BDE  A$elementsbuilder$3016             elementsbuilder
     00001BDF  A$elementsbuilder$3017             elementsbuilder
     00001BE0  A$elementsbuilder$3018             elementsbuilder
     00001BE1  A$elementsbuilder$3019             elementsbuilder
     00001BE2  A$elementsbuilder$3020             elementsbuilder
     00001BE3  A$elementsbuilder$3021             elementsbuilder
     00001BE4  A$elementsbuilder$3022             elementsbuilder
     00001BE5  A$elementsbuilder$3023             elementsbuilder
     00001BE6  A$elementsbuilder$3024             elementsbuilder
     00001BE7  A$elementsbuilder$3025             elementsbuilder
     00001BE8  A$elementsbuilder$3026             elementsbuilder
     00001BE9  A$elementsbuilder$3027             elementsbuilder
     00001BEA  A$elementsbuilder$3028             elementsbuilder
ASxxxx Linker V03.00 + NoICE + sdld,  page 93.
Hexadecimal  [32-Bits]

Area                                    Addr        Size        Decimal Bytes (Attributes)
--------------------------------        ----        ----        ------- ----- ------------
_CODE                               00000200    00003D11 =       15633. bytes (REL,CON)

      Value  Global                              Global Defined In Module
      -----  --------------------------------   ------------------------
     00001BEC  A$elementsbuilder$3029             elementsbuilder
     00001BED  A$elementsbuilder$3030             elementsbuilder
     00001BEE  A$elementsbuilder$3031             elementsbuilder
     00001BEF  A$elementsbuilder$3032             elementsbuilder
     00001BF0  A$elementsbuilder$3033             elementsbuilder
     00001BF1  A$elementsbuilder$3034             elementsbuilder
     00001BF2  A$elementsbuilder$3035             elementsbuilder
     00001BF3  A$elementsbuilder$3036             elementsbuilder
     00001BF4  A$elementsbuilder$3037             elementsbuilder
     00001BF7  A$elementsbuilder$3038             elementsbuilder
     00001BF8  A$elementsbuilder$3039             elementsbuilder
     00001BFB  A$elementsbuilder$3040             elementsbuilder
     00001BFC  A$elementsbuilder$3041             elementsbuilder
     00001BFD  A$elementsbuilder$3042             elementsbuilder
     00001BFF  A$elementsbuilder$3043             elementsbuilder
     00001C00  A$elementsbuilder$3044             elementsbuilder
     00001C01  A$elementsbuilder$3045             elementsbuilder
     00001C04  A$elementsbuilder$3046             elementsbuilder
     00001C05  A$elementsbuilder$3047             elementsbuilder
     00001C06  A$elementsbuilder$3051             elementsbuilder
     00001C06  C$elementsbuilder.c$418$3_2$211    elementsbuilder
     00001C07  A$elementsbuilder$3052             elementsbuilder
     00001C08  A$elementsbuilder$3053             elementsbuilder
     00001C0A  A$elementsbuilder$3054             elementsbuilder
     00001C0B  A$elementsbuilder$3055             elementsbuilder
     00001C0C  A$elementsbuilder$3056             elementsbuilder
     00001C0D  A$elementsbuilder$3057             elementsbuilder
     00001C0E  A$elementsbuilder$3058             elementsbuilder
     00001C0F  A$elementsbuilder$3059             elementsbuilder
     00001C10  A$elementsbuilder$3060             elementsbuilder
     00001C11  A$elementsbuilder$3061             elementsbuilder
     00001C12  A$elementsbuilder$3062             elementsbuilder
     00001C13  A$elementsbuilder$3063             elementsbuilder
     00001C15  A$elementsbuilder$3064             elementsbuilder
     00001C16  A$elementsbuilder$3065             elementsbuilder
     00001C17  A$elementsbuilder$3066             elementsbuilder
     00001C19  A$elementsbuilder$3067             elementsbuilder
     00001C1A  A$elementsbuilder$3068             elementsbuilder
     00001C1D  A$elementsbuilder$3069             elementsbuilder
     00001C1E  A$elementsbuilder$3070             elementsbuilder
     00001C1F  A$elementsbuilder$3071             elementsbuilder
     00001C21  A$elementsbuilder$3072             elementsbuilder
     00001C22  A$elementsbuilder$3076             elementsbuilder
     00001C22  C$elementsbuilder.c$419$3_2$211    elementsbuilder
     00001C23  A$elementsbuilder$3077             elementsbuilder
     00001C24  A$elementsbuilder$3078             elementsbuilder
     00001C27  A$elementsbuilder$3079             elementsbuilder
     00001C28  A$elementsbuilder$3080             elementsbuilder
     00001C29  A$elementsbuilder$3084             elementsbuilder
     00001C29  C$elementsbuilder.c$420$3_2$211    elementsbuilder
     00001C2A  A$elementsbuilder$3085             elementsbuilder
ASxxxx Linker V03.00 + NoICE + sdld,  page 94.
Hexadecimal  [32-Bits]

Area                                    Addr        Size        Decimal Bytes (Attributes)
--------------------------------        ----        ----        ------- ----- ------------
_CODE                               00000200    00003D11 =       15633. bytes (REL,CON)

      Value  Global                              Global Defined In Module
      -----  --------------------------------   ------------------------
     00001C2B  A$elementsbuilder$3086             elementsbuilder
     00001C2D  A$elementsbuilder$3087             elementsbuilder
     00001C2E  A$elementsbuilder$3088             elementsbuilder
     00001C2F  A$elementsbuilder$3089             elementsbuilder
     00001C30  A$elementsbuilder$3090             elementsbuilder
     00001C31  A$elementsbuilder$3091             elementsbuilder
     00001C32  A$elementsbuilder$3092             elementsbuilder
     00001C33  A$elementsbuilder$3093             elementsbuilder
     00001C34  A$elementsbuilder$3094             elementsbuilder
     00001C35  A$elementsbuilder$3095             elementsbuilder
     00001C38  A$elementsbuilder$3096             elementsbuilder
     00001C39  A$elementsbuilder$3097             elementsbuilder
     00001C3C  A$elementsbuilder$3098             elementsbuilder
     00001C3D  A$elementsbuilder$3099             elementsbuilder
     00001C3E  A$elementsbuilder$3100             elementsbuilder
     00001C3F  A$elementsbuilder$3101             elementsbuilder
     00001C41  A$elementsbuilder$3102             elementsbuilder
     00001C42  A$elementsbuilder$3103             elementsbuilder
     00001C43  A$elementsbuilder$3107             elementsbuilder
     00001C43  C$elementsbuilder.c$416$2_1$209    elementsbuilder
     00001C45  A$elementsbuilder$3108             elementsbuilder
     00001C46  A$elementsbuilder$3109             elementsbuilder
     00001C49  A$elementsbuilder$3110             elementsbuilder
     00001C4A  A$elementsbuilder$3111             elementsbuilder
     00001C4B  A$elementsbuilder$3112             elementsbuilder
     00001C4E  A$elementsbuilder$3117             elementsbuilder
     00001C4E  C$elementsbuilder.c$423$3_1$213    elementsbuilder
     00001C50  A$elementsbuilder$3118             elementsbuilder
     00001C51  A$elementsbuilder$3119             elementsbuilder
     00001C53  A$elementsbuilder$3120             elementsbuilder
     00001C54  A$elementsbuilder$3121             elementsbuilder
     00001C56  A$elementsbuilder$3122             elementsbuilder
     00001C57  A$elementsbuilder$3123             elementsbuilder
     00001C59  A$elementsbuilder$3124             elementsbuilder
     00001C5A  A$elementsbuilder$3125             elementsbuilder
     00001C5D  A$elementsbuilder$3127             elementsbuilder
     00001C5F  A$elementsbuilder$3128             elementsbuilder
     00001C60  A$elementsbuilder$3129             elementsbuilder
     00001C62  A$elementsbuilder$3130             elementsbuilder
     00001C63  A$elementsbuilder$3131             elementsbuilder
     00001C64  A$elementsbuilder$3132             elementsbuilder
     00001C65  A$elementsbuilder$3133             elementsbuilder
     00001C66  A$elementsbuilder$3134             elementsbuilder
     00001C67  A$elementsbuilder$3135             elementsbuilder
     00001C68  A$elementsbuilder$3136             elementsbuilder
     00001C69  A$elementsbuilder$3137             elementsbuilder
     00001C6A  A$elementsbuilder$3138             elementsbuilder
     00001C6B  A$elementsbuilder$3139             elementsbuilder
     00001C6C  A$elementsbuilder$3140             elementsbuilder
     00001C6E  A$elementsbuilder$3141             elementsbuilder
     00001C70  A$elementsbuilder$3142             elementsbuilder
ASxxxx Linker V03.00 + NoICE + sdld,  page 95.
Hexadecimal  [32-Bits]

Area                                    Addr        Size        Decimal Bytes (Attributes)
--------------------------------        ----        ----        ------- ----- ------------
_CODE                               00000200    00003D11 =       15633. bytes (REL,CON)

      Value  Global                              Global Defined In Module
      -----  --------------------------------   ------------------------
     00001C72  A$elementsbuilder$3143             elementsbuilder
     00001C74  A$elementsbuilder$3144             elementsbuilder
     00001C75  A$elementsbuilder$3145             elementsbuilder
     00001C77  A$elementsbuilder$3147             elementsbuilder
     00001C79  A$elementsbuilder$3148             elementsbuilder
     00001C7B  A$elementsbuilder$3149             elementsbuilder
     00001C7C  A$elementsbuilder$3151             elementsbuilder
     00001C7E  A$elementsbuilder$3155             elementsbuilder
     00001C7E  C$elementsbuilder.c$424$3_1$213    elementsbuilder
     00001C80  A$elementsbuilder$3156             elementsbuilder
     00001C81  A$elementsbuilder$3157             elementsbuilder
     00001C82  A$elementsbuilder$3158             elementsbuilder
     00001C83  A$elementsbuilder$3159             elementsbuilder
     00001C84  A$elementsbuilder$3160             elementsbuilder
     00001C85  A$elementsbuilder$3161             elementsbuilder
     00001C86  A$elementsbuilder$3162             elementsbuilder
     00001C87  A$elementsbuilder$3163             elementsbuilder
     00001C88  A$elementsbuilder$3164             elementsbuilder
     00001C89  A$elementsbuilder$3165             elementsbuilder
     00001C8A  A$elementsbuilder$3166             elementsbuilder
     00001C8D  A$elementsbuilder$3167             elementsbuilder
     00001C8E  A$elementsbuilder$3168             elementsbuilder
     00001C8F  A$elementsbuilder$3172             elementsbuilder
     00001C8F  C$elementsbuilder.c$423$2_1$212    elementsbuilder
     00001C90  A$elementsbuilder$3173             elementsbuilder
     00001C92  A$elementsbuilder$3178             elementsbuilder
     00001C94  A$elementsbuilder$3183             elementsbuilder
     00001C94  C$elementsbuilder.c$427$2_1$197    elementsbuilder
     00001C94  XG$processFinalAnimations$0$0      elementsbuilder
     00001C95  A$elementsbuilder$3196             elementsbuilder
     00001C95  C$elementsbuilder.c$430$2_1$215    elementsbuilder
     00001C95  C$elementsbuilder.c$432$1_0$215    elementsbuilder
     00001C95  G$setExplosionData$0$0             elementsbuilder
     00001C95  _setExplosionData                  elementsbuilder
     00001C97  A$elementsbuilder$3197             elementsbuilder
     00001C98  A$elementsbuilder$3198             elementsbuilder
     00001C9A  A$elementsbuilder$3199             elementsbuilder
     00001C9B  A$elementsbuilder$3200             elementsbuilder
     00001C9C  A$elementsbuilder$3201             elementsbuilder
     00001C9D  A$elementsbuilder$3202             elementsbuilder
     00001C9E  A$elementsbuilder$3203             elementsbuilder
     00001C9F  A$elementsbuilder$3204             elementsbuilder
     00001CA0  A$elementsbuilder$3205             elementsbuilder
     00001CA1  A$elementsbuilder$3206             elementsbuilder
     00001CA2  A$elementsbuilder$3207             elementsbuilder
     00001CA5  A$elementsbuilder$3208             elementsbuilder
     00001CA6  A$elementsbuilder$3209             elementsbuilder
     00001CA7  A$elementsbuilder$3210             elementsbuilder
     00001CA8  A$elementsbuilder$3211             elementsbuilder
     00001CAB  A$elementsbuilder$3212             elementsbuilder
     00001CAC  A$elementsbuilder$3213             elementsbuilder
ASxxxx Linker V03.00 + NoICE + sdld,  page 96.
Hexadecimal  [32-Bits]

Area                                    Addr        Size        Decimal Bytes (Attributes)
--------------------------------        ----        ----        ------- ----- ------------
_CODE                               00000200    00003D11 =       15633. bytes (REL,CON)

      Value  Global                              Global Defined In Module
      -----  --------------------------------   ------------------------
     00001CAE  A$elementsbuilder$3217             elementsbuilder
     00001CAE  C$elementsbuilder.c$433$1_0$215    elementsbuilder
     00001CB1  A$elementsbuilder$3218             elementsbuilder
     00001CB2  A$elementsbuilder$3219             elementsbuilder
     00001CB4  A$elementsbuilder$3223             elementsbuilder
     00001CB4  C$elementsbuilder.c$434$1_0$215    elementsbuilder
     00001CB7  A$elementsbuilder$3224             elementsbuilder
     00001CB8  A$elementsbuilder$3225             elementsbuilder
     00001CBA  A$elementsbuilder$3229             elementsbuilder
     00001CBA  C$elementsbuilder.c$436$1_0$215    elementsbuilder
     00001CBD  A$elementsbuilder$3230             elementsbuilder
     00001CBE  A$elementsbuilder$3231             elementsbuilder
     00001CBF  A$elementsbuilder$3232             elementsbuilder
     00001CC1  A$elementsbuilder$3233             elementsbuilder
     00001CC2  A$elementsbuilder$3237             elementsbuilder
     00001CC2  C$elementsbuilder.c$438$1_0$215    elementsbuilder
     00001CC4  A$elementsbuilder$3238             elementsbuilder
     00001CC5  A$elementsbuilder$3242             elementsbuilder
     00001CC5  C$elementsbuilder.c$439$1_0$215    elementsbuilder
     00001CC6  A$elementsbuilder$3245             elementsbuilder
     00001CC7  A$elementsbuilder$3248             elementsbuilder
     00001CC8  A$elementsbuilder$3249             elementsbuilder
     00001CCA  A$elementsbuilder$3253             elementsbuilder
     00001CCA  C$elementsbuilder.c$440$1_0$215    elementsbuilder
     00001CCB  A$elementsbuilder$3256             elementsbuilder
     00001CCC  A$elementsbuilder$3259             elementsbuilder
     00001CCD  A$elementsbuilder$3260             elementsbuilder
     00001CCE  A$elementsbuilder$3261             elementsbuilder
     00001CD0  A$elementsbuilder$3265             elementsbuilder
     00001CD0  C$elementsbuilder.c$441$1_0$215    elementsbuilder
     00001CD1  A$elementsbuilder$3268             elementsbuilder
     00001CD2  A$elementsbuilder$3271             elementsbuilder
     00001CD3  A$elementsbuilder$3272             elementsbuilder
     00001CD4  A$elementsbuilder$3273             elementsbuilder
     00001CD5  A$elementsbuilder$3274             elementsbuilder
     00001CD7  A$elementsbuilder$3278             elementsbuilder
     00001CD7  C$elementsbuilder.c$442$1_0$215    elementsbuilder
     00001CDA  A$elementsbuilder$3279             elementsbuilder
     00001CDB  A$elementsbuilder$3280             elementsbuilder
     00001CDD  A$elementsbuilder$3284             elementsbuilder
     00001CDD  C$elementsbuilder.c$444$1_0$215    elementsbuilder
     00001CE0  A$elementsbuilder$3285             elementsbuilder
     00001CE1  A$elementsbuilder$3286             elementsbuilder
     00001CE3  A$elementsbuilder$3290             elementsbuilder
     00001CE3  C$elementsbuilder.c$445$1_0$215    elementsbuilder
     00001CE6  A$elementsbuilder$3291             elementsbuilder
     00001CE7  A$elementsbuilder$3292             elementsbuilder
     00001CE9  A$elementsbuilder$3296             elementsbuilder
     00001CE9  C$elementsbuilder.c$446$1_0$215    elementsbuilder
     00001CEC  A$elementsbuilder$3297             elementsbuilder
     00001CED  A$elementsbuilder$3298             elementsbuilder
ASxxxx Linker V03.00 + NoICE + sdld,  page 97.
Hexadecimal  [32-Bits]

Area                                    Addr        Size        Decimal Bytes (Attributes)
--------------------------------        ----        ----        ------- ----- ------------
_CODE                               00000200    00003D11 =       15633. bytes (REL,CON)

      Value  Global                              Global Defined In Module
      -----  --------------------------------   ------------------------
     00001CEF  A$elementsbuilder$3302             elementsbuilder
     00001CEF  C$elementsbuilder.c$447$1_0$215    elementsbuilder
     00001CF2  A$elementsbuilder$3303             elementsbuilder
     00001CF3  A$elementsbuilder$3304             elementsbuilder
     00001CF5  A$elementsbuilder$3308             elementsbuilder
     00001CF5  C$elementsbuilder.c$448$1_0$215    elementsbuilder
     00001CF8  A$elementsbuilder$3309             elementsbuilder
     00001CF9  A$elementsbuilder$3310             elementsbuilder
     00001CFB  A$elementsbuilder$3318             elementsbuilder
     00001CFB  C$elementsbuilder.c$449$1_0$215    elementsbuilder
     00001CFB  XG$setExplosionData$0$0            elementsbuilder
     00001CFC  A$elementsbuilder$3328             elementsbuilder
     00001CFC  C$elementsbuilder.c$453$1_0$217    elementsbuilder
     00001CFC  G$moveBullets$0$0                  elementsbuilder
     00001CFC  _moveBullets                       elementsbuilder
     00001CFE  A$elementsbuilder$3332             elementsbuilder
     00001CFE  C$elementsbuilder.c$459$3_0$219    elementsbuilder
     00001D00  A$elementsbuilder$3333             elementsbuilder
     00001D01  A$elementsbuilder$3334             elementsbuilder
     00001D02  A$elementsbuilder$3335             elementsbuilder
     00001D04  A$elementsbuilder$3336             elementsbuilder
     00001D05  A$elementsbuilder$3337             elementsbuilder
     00001D06  A$elementsbuilder$3338             elementsbuilder
     00001D09  A$elementsbuilder$3340             elementsbuilder
     00001D0A  A$elementsbuilder$3341             elementsbuilder
     00001D0C  A$elementsbuilder$3342             elementsbuilder
     00001D0D  A$elementsbuilder$3343             elementsbuilder
     00001D0E  A$elementsbuilder$3344             elementsbuilder
     00001D0F  A$elementsbuilder$3345             elementsbuilder
     00001D10  A$elementsbuilder$3346             elementsbuilder
     00001D12  A$elementsbuilder$3347             elementsbuilder
     00001D14  A$elementsbuilder$3348             elementsbuilder
     00001D16  A$elementsbuilder$3349             elementsbuilder
     00001D17  A$elementsbuilder$3350             elementsbuilder
     00001D18  A$elementsbuilder$3351             elementsbuilder
     00001D19  A$elementsbuilder$3352             elementsbuilder
     00001D1A  A$elementsbuilder$3353             elementsbuilder
     00001D1B  A$elementsbuilder$3354             elementsbuilder
     00001D1C  A$elementsbuilder$3355             elementsbuilder
     00001D1D  A$elementsbuilder$3356             elementsbuilder
     00001D1E  A$elementsbuilder$3357             elementsbuilder
     00001D1F  A$elementsbuilder$3358             elementsbuilder
     00001D21  A$elementsbuilder$3363             elementsbuilder
     00001D21  C$elementsbuilder.c$463$3_1$222    elementsbuilder
     00001D23  A$elementsbuilder$3364             elementsbuilder
     00001D24  A$elementsbuilder$3365             elementsbuilder
     00001D25  A$elementsbuilder$3366             elementsbuilder
     00001D27  A$elementsbuilder$3367             elementsbuilder
     00001D28  A$elementsbuilder$3368             elementsbuilder
     00001D29  A$elementsbuilder$3369             elementsbuilder
     00001D2C  A$elementsbuilder$3371             elementsbuilder
ASxxxx Linker V03.00 + NoICE + sdld,  page 98.
Hexadecimal  [32-Bits]

Area                                    Addr        Size        Decimal Bytes (Attributes)
--------------------------------        ----        ----        ------- ----- ------------
_CODE                               00000200    00003D11 =       15633. bytes (REL,CON)

      Value  Global                              Global Defined In Module
      -----  --------------------------------   ------------------------
     00001D2D  A$elementsbuilder$3372             elementsbuilder
     00001D2F  A$elementsbuilder$3373             elementsbuilder
     00001D30  A$elementsbuilder$3374             elementsbuilder
     00001D31  A$elementsbuilder$3375             elementsbuilder
     00001D32  A$elementsbuilder$3376             elementsbuilder
     00001D33  A$elementsbuilder$3377             elementsbuilder
     00001D35  A$elementsbuilder$3378             elementsbuilder
     00001D37  A$elementsbuilder$3379             elementsbuilder
     00001D39  A$elementsbuilder$3380             elementsbuilder
     00001D3A  A$elementsbuilder$3381             elementsbuilder
     00001D3B  A$elementsbuilder$3382             elementsbuilder
     00001D3C  A$elementsbuilder$3383             elementsbuilder
     00001D3D  A$elementsbuilder$3384             elementsbuilder
     00001D3E  A$elementsbuilder$3385             elementsbuilder
     00001D3F  A$elementsbuilder$3386             elementsbuilder
     00001D40  A$elementsbuilder$3387             elementsbuilder
     00001D41  A$elementsbuilder$3388             elementsbuilder
     00001D42  A$elementsbuilder$3389             elementsbuilder
     00001D44  A$elementsbuilder$3394             elementsbuilder
     00001D44  C$elementsbuilder.c$466$9_2$231    elementsbuilder
     00001D46  A$elementsbuilder$3395             elementsbuilder
     00001D47  A$elementsbuilder$3396             elementsbuilder
     00001D49  A$elementsbuilder$3397             elementsbuilder
     00001D4A  A$elementsbuilder$3398             elementsbuilder
     00001D4C  A$elementsbuilder$3399             elementsbuilder
     00001D4D  A$elementsbuilder$3400             elementsbuilder
     00001D4F  A$elementsbuilder$3401             elementsbuilder
     00001D50  A$elementsbuilder$3402             elementsbuilder
     00001D52  A$elementsbuilder$3403             elementsbuilder
     00001D53  A$elementsbuilder$3404             elementsbuilder
     00001D55  A$elementsbuilder$3405             elementsbuilder
     00001D56  A$elementsbuilder$3406             elementsbuilder
     00001D58  A$elementsbuilder$3407             elementsbuilder
     00001D59  A$elementsbuilder$3408             elementsbuilder
     00001D5B  A$elementsbuilder$3409             elementsbuilder
     00001D5C  A$elementsbuilder$3410             elementsbuilder
     00001D5E  A$elementsbuilder$3411             elementsbuilder
     00001D5F  A$elementsbuilder$3412             elementsbuilder
     00001D61  A$elementsbuilder$3413             elementsbuilder
     00001D62  A$elementsbuilder$3414             elementsbuilder
     00001D64  A$elementsbuilder$3415             elementsbuilder
     00001D65  A$elementsbuilder$3416             elementsbuilder
     00001D67  A$elementsbuilder$3417             elementsbuilder
     00001D68  A$elementsbuilder$3418             elementsbuilder
     00001D6A  A$elementsbuilder$3419             elementsbuilder
     00001D6B  A$elementsbuilder$3420             elementsbuilder
     00001D6C  A$elementsbuilder$3421             elementsbuilder
     00001D6D  A$elementsbuilder$3422             elementsbuilder
     00001D6E  A$elementsbuilder$3423             elementsbuilder
     00001D70  A$elementsbuilder$3424             elementsbuilder
     00001D71  A$elementsbuilder$3425             elementsbuilder
ASxxxx Linker V03.00 + NoICE + sdld,  page 99.
Hexadecimal  [32-Bits]

Area                                    Addr        Size        Decimal Bytes (Attributes)
--------------------------------        ----        ----        ------- ----- ------------
_CODE                               00000200    00003D11 =       15633. bytes (REL,CON)

      Value  Global                              Global Defined In Module
      -----  --------------------------------   ------------------------
     00001D72  A$elementsbuilder$3426             elementsbuilder
     00001D73  A$elementsbuilder$3428             elementsbuilder
     00001D75  A$elementsbuilder$3429             elementsbuilder
     00001D76  A$elementsbuilder$3430             elementsbuilder
     00001D78  A$elementsbuilder$3431             elementsbuilder
     00001D79  A$elementsbuilder$3432             elementsbuilder
     00001D7B  A$elementsbuilder$3433             elementsbuilder
     00001D7C  A$elementsbuilder$3434             elementsbuilder
     00001D7E  A$elementsbuilder$3435             elementsbuilder
     00001D80  A$elementsbuilder$3436             elementsbuilder
     00001D82  A$elementsbuilder$3437             elementsbuilder
     00001D84  A$elementsbuilder$3438             elementsbuilder
     00001D86  A$elementsbuilder$3439             elementsbuilder
     00001D87  A$elementsbuilder$3440             elementsbuilder
     00001D89  A$elementsbuilder$3442             elementsbuilder
     00001D8B  A$elementsbuilder$3443             elementsbuilder
     00001D8D  A$elementsbuilder$3444             elementsbuilder
     00001D8E  A$elementsbuilder$3446             elementsbuilder
     00001D91  A$elementsbuilder$3450             elementsbuilder
     00001D91  C$elementsbuilder.c$467$2_1$217    elementsbuilder
     00001D93  A$elementsbuilder$3451             elementsbuilder
     00001D94  A$elementsbuilder$3452             elementsbuilder
     00001D95  A$elementsbuilder$3453             elementsbuilder
     00001D96  A$elementsbuilder$3454             elementsbuilder
     00001D97  A$elementsbuilder$3455             elementsbuilder
     00001D98  A$elementsbuilder$3456             elementsbuilder
     00001D99  A$elementsbuilder$3457             elementsbuilder
     00001D9A  A$elementsbuilder$3458             elementsbuilder
     00001D9B  A$elementsbuilder$3459             elementsbuilder
     00001D9C  A$elementsbuilder$3460             elementsbuilder
     00001D9D  A$elementsbuilder$3461             elementsbuilder
     00001D9E  A$elementsbuilder$3462             elementsbuilder
     00001D9F  A$elementsbuilder$3463             elementsbuilder
     00001DA0  A$elementsbuilder$3464             elementsbuilder
     00001DA2  A$elementsbuilder$3465             elementsbuilder
     00001DA3  A$elementsbuilder$3466             elementsbuilder
     00001DA4  A$elementsbuilder$3467             elementsbuilder
     00001DA5  A$elementsbuilder$3468             elementsbuilder
     00001DA7  A$elementsbuilder$3469             elementsbuilder
     00001DA8  A$elementsbuilder$3470             elementsbuilder
     00001DA9  A$elementsbuilder$3471             elementsbuilder
     00001DAA  A$elementsbuilder$3472             elementsbuilder
     00001DAB  A$elementsbuilder$3473             elementsbuilder
     00001DAE  A$elementsbuilder$3474             elementsbuilder
     00001DAF  A$elementsbuilder$3475             elementsbuilder
     00001DB0  A$elementsbuilder$3476             elementsbuilder
     00001DB1  A$elementsbuilder$3477             elementsbuilder
     00001DB2  A$elementsbuilder$3478             elementsbuilder
     00001DB3  A$elementsbuilder$3479             elementsbuilder
     00001DB4  A$elementsbuilder$3480             elementsbuilder
     00001DB7  A$elementsbuilder$3481             elementsbuilder
ASxxxx Linker V03.00 + NoICE + sdld,  page 100.
Hexadecimal  [32-Bits]

Area                                    Addr        Size        Decimal Bytes (Attributes)
--------------------------------        ----        ----        ------- ----- ------------
_CODE                               00000200    00003D11 =       15633. bytes (REL,CON)

      Value  Global                              Global Defined In Module
      -----  --------------------------------   ------------------------
     00001DB8  A$elementsbuilder$3482             elementsbuilder
     00001DB9  A$elementsbuilder$3483             elementsbuilder
     00001DBA  A$elementsbuilder$3484             elementsbuilder
     00001DBB  A$elementsbuilder$3485             elementsbuilder
     00001DBD  A$elementsbuilder$3486             elementsbuilder
     00001DBE  A$elementsbuilder$3487             elementsbuilder
     00001DBF  A$elementsbuilder$3488             elementsbuilder
     00001DC2  A$elementsbuilder$3492             elementsbuilder
     00001DC2  C$elementsbuilder.c$468$2_1$217    elementsbuilder
     00001DC3  A$elementsbuilder$3493             elementsbuilder
     00001DC4  A$elementsbuilder$3494             elementsbuilder
     00001DC7  A$elementsbuilder$3495             elementsbuilder
     00001DC8  A$elementsbuilder$3496             elementsbuilder
     00001DC9  A$elementsbuilder$3497             elementsbuilder
     00001DCA  A$elementsbuilder$3498             elementsbuilder
     00001DCB  A$elementsbuilder$3499             elementsbuilder
     00001DCD  A$elementsbuilder$3500             elementsbuilder
     00001DCF  A$elementsbuilder$3501             elementsbuilder
     00001DD1  A$elementsbuilder$3502             elementsbuilder
     00001DD4  A$elementsbuilder$3507             elementsbuilder
     00001DD4  C$elementsbuilder.c$471$5_1$226    elementsbuilder
     00001DD5  A$elementsbuilder$3508             elementsbuilder
     00001DD6  A$elementsbuilder$3509             elementsbuilder
     00001DD9  A$elementsbuilder$3510             elementsbuilder
     00001DDA  A$elementsbuilder$3511             elementsbuilder
     00001DDB  A$elementsbuilder$3512             elementsbuilder
     00001DDC  A$elementsbuilder$3513             elementsbuilder
     00001DDE  A$elementsbuilder$3514             elementsbuilder
     00001DDF  A$elementsbuilder$3515             elementsbuilder
     00001DE0  A$elementsbuilder$3516             elementsbuilder
     00001DE1  A$elementsbuilder$3517             elementsbuilder
     00001DE3  A$elementsbuilder$3518             elementsbuilder
     00001DE4  A$elementsbuilder$3519             elementsbuilder
     00001DE5  A$elementsbuilder$3520             elementsbuilder
     00001DE6  A$elementsbuilder$3521             elementsbuilder
     00001DE7  A$elementsbuilder$3522             elementsbuilder
     00001DE8  A$elementsbuilder$3523             elementsbuilder
     00001DEA  A$elementsbuilder$3524             elementsbuilder
     00001DEB  A$elementsbuilder$3525             elementsbuilder
     00001DEC  A$elementsbuilder$3526             elementsbuilder
     00001DED  A$elementsbuilder$3527             elementsbuilder
     00001DF0  A$elementsbuilder$3528             elementsbuilder
     00001DF1  A$elementsbuilder$3529             elementsbuilder
     00001DF2  A$elementsbuilder$3530             elementsbuilder
     00001DF3  A$elementsbuilder$3531             elementsbuilder
     00001DF4  A$elementsbuilder$3532             elementsbuilder
     00001DF6  A$elementsbuilder$3533             elementsbuilder
     00001DF7  A$elementsbuilder$3534             elementsbuilder
     00001DF9  A$elementsbuilder$3535             elementsbuilder
     00001DFA  A$elementsbuilder$3536             elementsbuilder
     00001DFB  A$elementsbuilder$3537             elementsbuilder
ASxxxx Linker V03.00 + NoICE + sdld,  page 101.
Hexadecimal  [32-Bits]

Area                                    Addr        Size        Decimal Bytes (Attributes)
--------------------------------        ----        ----        ------- ----- ------------
_CODE                               00000200    00003D11 =       15633. bytes (REL,CON)

      Value  Global                              Global Defined In Module
      -----  --------------------------------   ------------------------
     00001DFC  A$elementsbuilder$3538             elementsbuilder
     00001DFD  A$elementsbuilder$3539             elementsbuilder
     00001DFE  A$elementsbuilder$3540             elementsbuilder
     00001DFF  A$elementsbuilder$3544             elementsbuilder
     00001DFF  C$elementsbuilder.c$473$5_2$227    elementsbuilder
     00001E01  A$elementsbuilder$3545             elementsbuilder
     00001E02  A$elementsbuilder$3546             elementsbuilder
     00001E04  A$elementsbuilder$3547             elementsbuilder
     00001E05  A$elementsbuilder$3548             elementsbuilder
     00001E06  A$elementsbuilder$3549             elementsbuilder
     00001E07  A$elementsbuilder$3550             elementsbuilder
     00001E08  A$elementsbuilder$3551             elementsbuilder
     00001E09  A$elementsbuilder$3552             elementsbuilder
     00001E0A  A$elementsbuilder$3553             elementsbuilder
     00001E0B  A$elementsbuilder$3554             elementsbuilder
     00001E0C  A$elementsbuilder$3555             elementsbuilder
     00001E0F  A$elementsbuilder$3556             elementsbuilder
     00001E11  A$elementsbuilder$3557             elementsbuilder
     00001E12  A$elementsbuilder$3558             elementsbuilder
     00001E14  A$elementsbuilder$3562             elementsbuilder
     00001E15  A$elementsbuilder$3563             elementsbuilder
     00001E16  A$elementsbuilder$3564             elementsbuilder
     00001E17  A$elementsbuilder$3565             elementsbuilder
     00001E18  A$elementsbuilder$3569             elementsbuilder
     00001E18  C$elementsbuilder.c$475$5_2$227    elementsbuilder
     00001E19  A$elementsbuilder$3570             elementsbuilder
     00001E1A  A$elementsbuilder$3571             elementsbuilder
     00001E1B  A$elementsbuilder$3572             elementsbuilder
     00001E1C  A$elementsbuilder$3573             elementsbuilder
     00001E1E  A$elementsbuilder$3574             elementsbuilder
     00001E21  A$elementsbuilder$3578             elementsbuilder
     00001E21  C$elementsbuilder.c$481$6_2$228    elementsbuilder
     00001E23  A$elementsbuilder$3579             elementsbuilder
     00001E24  A$elementsbuilder$3580             elementsbuilder
     00001E25  A$elementsbuilder$3581             elementsbuilder
     00001E28  A$elementsbuilder$3585             elementsbuilder
     00001E28  C$elementsbuilder.c$482$6_2$228    elementsbuilder
     00001E29  A$elementsbuilder$3586             elementsbuilder
     00001E2B  A$elementsbuilder$3587             elementsbuilder
     00001E2C  A$elementsbuilder$3588             elementsbuilder
     00001E2D  A$elementsbuilder$3589             elementsbuilder
     00001E2E  A$elementsbuilder$3590             elementsbuilder
     00001E2F  A$elementsbuilder$3591             elementsbuilder
     00001E30  A$elementsbuilder$3592             elementsbuilder
     00001E31  A$elementsbuilder$3593             elementsbuilder
     00001E32  A$elementsbuilder$3594             elementsbuilder
     00001E33  A$elementsbuilder$3595             elementsbuilder
     00001E34  A$elementsbuilder$3596             elementsbuilder
     00001E35  A$elementsbuilder$3597             elementsbuilder
     00001E37  A$elementsbuilder$3598             elementsbuilder
     00001E38  A$elementsbuilder$3599             elementsbuilder
ASxxxx Linker V03.00 + NoICE + sdld,  page 102.
Hexadecimal  [32-Bits]

Area                                    Addr        Size        Decimal Bytes (Attributes)
--------------------------------        ----        ----        ------- ----- ------------
_CODE                               00000200    00003D11 =       15633. bytes (REL,CON)

      Value  Global                              Global Defined In Module
      -----  --------------------------------   ------------------------
     00001E39  A$elementsbuilder$3600             elementsbuilder
     00001E3A  A$elementsbuilder$3601             elementsbuilder
     00001E3C  A$elementsbuilder$3602             elementsbuilder
     00001E3D  A$elementsbuilder$3603             elementsbuilder
     00001E3E  A$elementsbuilder$3604             elementsbuilder
     00001E3F  A$elementsbuilder$3605             elementsbuilder
     00001E40  A$elementsbuilder$3606             elementsbuilder
     00001E43  A$elementsbuilder$3607             elementsbuilder
     00001E44  A$elementsbuilder$3608             elementsbuilder
     00001E45  A$elementsbuilder$3609             elementsbuilder
     00001E46  A$elementsbuilder$3610             elementsbuilder
     00001E48  A$elementsbuilder$3611             elementsbuilder
     00001E49  A$elementsbuilder$3612             elementsbuilder
     00001E4A  A$elementsbuilder$3613             elementsbuilder
     00001E4B  A$elementsbuilder$3614             elementsbuilder
     00001E4D  A$elementsbuilder$3615             elementsbuilder
     00001E4E  A$elementsbuilder$3616             elementsbuilder
     00001E4F  A$elementsbuilder$3617             elementsbuilder
     00001E50  A$elementsbuilder$3618             elementsbuilder
     00001E51  A$elementsbuilder$3619             elementsbuilder
     00001E54  A$elementsbuilder$3620             elementsbuilder
     00001E55  A$elementsbuilder$3621             elementsbuilder
     00001E56  A$elementsbuilder$3622             elementsbuilder
     00001E57  A$elementsbuilder$3623             elementsbuilder
     00001E58  A$elementsbuilder$3624             elementsbuilder
     00001E59  A$elementsbuilder$3625             elementsbuilder
     00001E5A  A$elementsbuilder$3626             elementsbuilder
     00001E5B  A$elementsbuilder$3627             elementsbuilder
     00001E5D  A$elementsbuilder$3628             elementsbuilder
     00001E60  A$elementsbuilder$3632             elementsbuilder
     00001E60  C$elementsbuilder.c$483$6_2$228    elementsbuilder
     00001E62  A$elementsbuilder$3633             elementsbuilder
     00001E65  A$elementsbuilder$3637             elementsbuilder
     00001E65  C$elementsbuilder.c$484$6_2$228    elementsbuilder
     00001E67  A$elementsbuilder$3638             elementsbuilder
     00001E6A  A$elementsbuilder$3642             elementsbuilder
     00001E6A  C$elementsbuilder.c$487$8_2$229    elementsbuilder
     00001E6C  A$elementsbuilder$3643             elementsbuilder
     00001E6E  A$elementsbuilder$3647             elementsbuilder
     00001E6E  C$elementsbuilder.c$488$2_1$217    elementsbuilder
     00001E6F  A$elementsbuilder$3648             elementsbuilder
     00001E71  A$elementsbuilder$3649             elementsbuilder
     00001E72  A$elementsbuilder$3650             elementsbuilder
     00001E73  A$elementsbuilder$3652             elementsbuilder
     00001E75  A$elementsbuilder$3653             elementsbuilder
     00001E76  A$elementsbuilder$3654             elementsbuilder
     00001E78  A$elementsbuilder$3655             elementsbuilder
     00001E79  A$elementsbuilder$3656             elementsbuilder
     00001E7B  A$elementsbuilder$3657             elementsbuilder
     00001E7D  A$elementsbuilder$3658             elementsbuilder
     00001E7E  A$elementsbuilder$3659             elementsbuilder
ASxxxx Linker V03.00 + NoICE + sdld,  page 103.
Hexadecimal  [32-Bits]

Area                                    Addr        Size        Decimal Bytes (Attributes)
--------------------------------        ----        ----        ------- ----- ------------
_CODE                               00000200    00003D11 =       15633. bytes (REL,CON)

      Value  Global                              Global Defined In Module
      -----  --------------------------------   ------------------------
     00001E7F  A$elementsbuilder$3660             elementsbuilder
     00001E81  A$elementsbuilder$3661             elementsbuilder
     00001E82  A$elementsbuilder$3662             elementsbuilder
     00001E83  A$elementsbuilder$3663             elementsbuilder
     00001E84  A$elementsbuilder$3664             elementsbuilder
     00001E85  A$elementsbuilder$3665             elementsbuilder
     00001E86  A$elementsbuilder$3666             elementsbuilder
     00001E87  A$elementsbuilder$3667             elementsbuilder
     00001E88  A$elementsbuilder$3668             elementsbuilder
     00001E89  A$elementsbuilder$3669             elementsbuilder
     00001E8B  A$elementsbuilder$3670             elementsbuilder
     00001E8D  A$elementsbuilder$3671             elementsbuilder
     00001E8F  A$elementsbuilder$3672             elementsbuilder
     00001E91  A$elementsbuilder$3673             elementsbuilder
     00001E92  A$elementsbuilder$3674             elementsbuilder
     00001E94  A$elementsbuilder$3676             elementsbuilder
     00001E96  A$elementsbuilder$3677             elementsbuilder
     00001E98  A$elementsbuilder$3678             elementsbuilder
     00001E99  A$elementsbuilder$3680             elementsbuilder
     00001E9B  A$elementsbuilder$3684             elementsbuilder
     00001E9B  C$elementsbuilder.c$489$9_2$231    elementsbuilder
     00001E9D  A$elementsbuilder$3685             elementsbuilder
     00001E9E  A$elementsbuilder$3686             elementsbuilder
     00001E9F  A$elementsbuilder$3687             elementsbuilder
     00001EA0  A$elementsbuilder$3688             elementsbuilder
     00001EA2  A$elementsbuilder$3689             elementsbuilder
     00001EA3  A$elementsbuilder$3690             elementsbuilder
     00001EA4  A$elementsbuilder$3691             elementsbuilder
     00001EA5  A$elementsbuilder$3692             elementsbuilder
     00001EA6  A$elementsbuilder$3693             elementsbuilder
     00001EA7  A$elementsbuilder$3694             elementsbuilder
     00001EA8  A$elementsbuilder$3695             elementsbuilder
     00001EA9  A$elementsbuilder$3696             elementsbuilder
     00001EAA  A$elementsbuilder$3697             elementsbuilder
     00001EAC  A$elementsbuilder$3698             elementsbuilder
     00001EAD  A$elementsbuilder$3699             elementsbuilder
     00001EAE  A$elementsbuilder$3700             elementsbuilder
     00001EB0  A$elementsbuilder$3704             elementsbuilder
     00001EB0  C$elementsbuilder.c$490$10_2$232   elementsbuilder
     00001EB2  A$elementsbuilder$3705             elementsbuilder
     00001EB4  A$elementsbuilder$3710             elementsbuilder
     00001EB4  C$elementsbuilder.c$488$8_2$230    elementsbuilder
     00001EB6  A$elementsbuilder$3711             elementsbuilder
     00001EB7  A$elementsbuilder$3712             elementsbuilder
     00001EB9  A$elementsbuilder$3713             elementsbuilder
     00001EBA  A$elementsbuilder$3714             elementsbuilder
     00001EBB  A$elementsbuilder$3715             elementsbuilder
     00001EBD  A$elementsbuilder$3720             elementsbuilder
     00001EBD  C$elementsbuilder.c$494$7_2$229    elementsbuilder
     00001EBF  A$elementsbuilder$3721             elementsbuilder
     00001EC0  A$elementsbuilder$3722             elementsbuilder
ASxxxx Linker V03.00 + NoICE + sdld,  page 104.
Hexadecimal  [32-Bits]

Area                                    Addr        Size        Decimal Bytes (Attributes)
--------------------------------        ----        ----        ------- ----- ------------
_CODE                               00000200    00003D11 =       15633. bytes (REL,CON)

      Value  Global                              Global Defined In Module
      -----  --------------------------------   ------------------------
     00001EC1  A$elementsbuilder$3723             elementsbuilder
     00001EC3  A$elementsbuilder$3727             elementsbuilder
     00001EC3  C$elementsbuilder.c$496$2_1$217    elementsbuilder
     00001EC5  A$elementsbuilder$3728             elementsbuilder
     00001EC6  A$elementsbuilder$3729             elementsbuilder
     00001EC7  A$elementsbuilder$3730             elementsbuilder
     00001EC8  A$elementsbuilder$3731             elementsbuilder
     00001EC9  A$elementsbuilder$3732             elementsbuilder
     00001ECA  A$elementsbuilder$3733             elementsbuilder
     00001ECC  A$elementsbuilder$3734             elementsbuilder
     00001ECE  A$elementsbuilder$3738             elementsbuilder
     00001ECE  C$elementsbuilder.c$497$8_2$233    elementsbuilder
     00001ECF  A$elementsbuilder$3739             elementsbuilder
     00001ED0  A$elementsbuilder$3740             elementsbuilder
     00001ED1  A$elementsbuilder$3741             elementsbuilder
     00001ED2  A$elementsbuilder$3742             elementsbuilder
     00001ED4  A$elementsbuilder$3743             elementsbuilder
     00001ED6  A$elementsbuilder$3747             elementsbuilder
     00001ED6  C$elementsbuilder.c$498$8_2$233    elementsbuilder
     00001ED8  A$elementsbuilder$3748             elementsbuilder
     00001ED9  A$elementsbuilder$3749             elementsbuilder
     00001EDB  A$elementsbuilder$3754             elementsbuilder
     00001EDB  C$elementsbuilder.c$499$8_2$233    elementsbuilder
     00001EDD  A$elementsbuilder$3755             elementsbuilder
     00001EDE  A$elementsbuilder$3756             elementsbuilder
     00001EE0  A$elementsbuilder$3757             elementsbuilder
     00001EE2  A$elementsbuilder$3761             elementsbuilder
     00001EE2  C$elementsbuilder.c$500$8_2$233    elementsbuilder
     00001EE4  A$elementsbuilder$3762             elementsbuilder
     00001EE5  A$elementsbuilder$3763             elementsbuilder
     00001EE7  A$elementsbuilder$3767             elementsbuilder
     00001EE7  C$elementsbuilder.c$501$8_2$233    elementsbuilder
     00001EE8  A$elementsbuilder$3768             elementsbuilder
     00001EE9  A$elementsbuilder$3769             elementsbuilder
     00001EEA  A$elementsbuilder$3770             elementsbuilder
     00001EEC  A$elementsbuilder$3771             elementsbuilder
     00001EEE  A$elementsbuilder$3776             elementsbuilder
     00001EEE  C$elementsbuilder.c$502$9_2$234    elementsbuilder
     00001EF1  A$elementsbuilder$3777             elementsbuilder
     00001EF2  A$elementsbuilder$3778             elementsbuilder
     00001EF3  A$elementsbuilder$3779             elementsbuilder
     00001EF4  A$elementsbuilder$3784             elementsbuilder
     00001EF4  C$elementsbuilder.c$504$8_2$233    elementsbuilder
     00001EF6  A$elementsbuilder$3785             elementsbuilder
     00001EF7  A$elementsbuilder$3786             elementsbuilder
     00001EF8  A$elementsbuilder$3787             elementsbuilder
     00001EF9  A$elementsbuilder$3788             elementsbuilder
     00001EFC  A$elementsbuilder$3789             elementsbuilder
     00001EFD  A$elementsbuilder$3794             elementsbuilder
     00001EFD  C$elementsbuilder.c$508$6_2$228    elementsbuilder
     00001EFF  A$elementsbuilder$3795             elementsbuilder
ASxxxx Linker V03.00 + NoICE + sdld,  page 105.
Hexadecimal  [32-Bits]

Area                                    Addr        Size        Decimal Bytes (Attributes)
--------------------------------        ----        ----        ------- ----- ------------
_CODE                               00000200    00003D11 =       15633. bytes (REL,CON)

      Value  Global                              Global Defined In Module
      -----  --------------------------------   ------------------------
     00001F00  A$elementsbuilder$3796             elementsbuilder
     00001F01  A$elementsbuilder$3797             elementsbuilder
     00001F02  A$elementsbuilder$3798             elementsbuilder
     00001F05  A$elementsbuilder$3799             elementsbuilder
     00001F06  A$elementsbuilder$3800             elementsbuilder
     00001F09  A$elementsbuilder$3805             elementsbuilder
     00001F09  C$elementsbuilder.c$512$6_2$235    elementsbuilder
     00001F0B  A$elementsbuilder$3806             elementsbuilder
     00001F0C  A$elementsbuilder$3807             elementsbuilder
     00001F0D  A$elementsbuilder$3808             elementsbuilder
     00001F0E  A$elementsbuilder$3809             elementsbuilder
     00001F0F  A$elementsbuilder$3810             elementsbuilder
     00001F11  A$elementsbuilder$3811             elementsbuilder
     00001F12  A$elementsbuilder$3812             elementsbuilder
     00001F14  A$elementsbuilder$3813             elementsbuilder
     00001F15  A$elementsbuilder$3814             elementsbuilder
     00001F16  A$elementsbuilder$3815             elementsbuilder
     00001F17  A$elementsbuilder$3816             elementsbuilder
     00001F18  A$elementsbuilder$3817             elementsbuilder
     00001F19  A$elementsbuilder$3818             elementsbuilder
     00001F1A  A$elementsbuilder$3819             elementsbuilder
     00001F1C  A$elementsbuilder$3820             elementsbuilder
     00001F1D  A$elementsbuilder$3821             elementsbuilder
     00001F1E  A$elementsbuilder$3825             elementsbuilder
     00001F1E  C$elementsbuilder.c$513$6_2$235    elementsbuilder
     00001F1F  A$elementsbuilder$3826             elementsbuilder
     00001F20  A$elementsbuilder$3827             elementsbuilder
     00001F21  A$elementsbuilder$3828             elementsbuilder
     00001F22  A$elementsbuilder$3829             elementsbuilder
     00001F23  A$elementsbuilder$3830             elementsbuilder
     00001F26  A$elementsbuilder$3831             elementsbuilder
     00001F27  A$elementsbuilder$3832             elementsbuilder
     00001F28  A$elementsbuilder$3833             elementsbuilder
     00001F29  A$elementsbuilder$3834             elementsbuilder
     00001F2A  A$elementsbuilder$3835             elementsbuilder
     00001F2C  A$elementsbuilder$3836             elementsbuilder
     00001F2D  A$elementsbuilder$3837             elementsbuilder
     00001F2F  A$elementsbuilder$3838             elementsbuilder
     00001F30  A$elementsbuilder$3839             elementsbuilder
     00001F31  A$elementsbuilder$3840             elementsbuilder
     00001F34  A$elementsbuilder$3841             elementsbuilder
     00001F35  A$elementsbuilder$3842             elementsbuilder
     00001F36  A$elementsbuilder$3843             elementsbuilder
     00001F37  A$elementsbuilder$3844             elementsbuilder
     00001F39  A$elementsbuilder$3845             elementsbuilder
     00001F3A  A$elementsbuilder$3846             elementsbuilder
     00001F3B  A$elementsbuilder$3847             elementsbuilder
     00001F3C  A$elementsbuilder$3848             elementsbuilder
     00001F3E  A$elementsbuilder$3849             elementsbuilder
     00001F3F  A$elementsbuilder$3850             elementsbuilder
     00001F40  A$elementsbuilder$3851             elementsbuilder
ASxxxx Linker V03.00 + NoICE + sdld,  page 106.
Hexadecimal  [32-Bits]

Area                                    Addr        Size        Decimal Bytes (Attributes)
--------------------------------        ----        ----        ------- ----- ------------
_CODE                               00000200    00003D11 =       15633. bytes (REL,CON)

      Value  Global                              Global Defined In Module
      -----  --------------------------------   ------------------------
     00001F41  A$elementsbuilder$3852             elementsbuilder
     00001F42  A$elementsbuilder$3853             elementsbuilder
     00001F43  A$elementsbuilder$3854             elementsbuilder
     00001F44  A$elementsbuilder$3855             elementsbuilder
     00001F45  A$elementsbuilder$3856             elementsbuilder
     00001F46  A$elementsbuilder$3857             elementsbuilder
     00001F48  A$elementsbuilder$3858             elementsbuilder
     00001F4A  A$elementsbuilder$3859             elementsbuilder
     00001F4B  A$elementsbuilder$3860             elementsbuilder
     00001F4C  A$elementsbuilder$3861             elementsbuilder
     00001F4D  A$elementsbuilder$3862             elementsbuilder
     00001F4E  A$elementsbuilder$3863             elementsbuilder
     00001F4F  A$elementsbuilder$3864             elementsbuilder
     00001F50  A$elementsbuilder$3865             elementsbuilder
     00001F51  A$elementsbuilder$3866             elementsbuilder
     00001F52  A$elementsbuilder$3867             elementsbuilder
     00001F53  A$elementsbuilder$3868             elementsbuilder
     00001F54  A$elementsbuilder$3869             elementsbuilder
     00001F55  A$elementsbuilder$3870             elementsbuilder
     00001F56  A$elementsbuilder$3871             elementsbuilder
     00001F58  A$elementsbuilder$3872             elementsbuilder
     00001F59  A$elementsbuilder$3873             elementsbuilder
     00001F5A  A$elementsbuilder$3874             elementsbuilder
     00001F5B  A$elementsbuilder$3875             elementsbuilder
     00001F5C  A$elementsbuilder$3876             elementsbuilder
     00001F5F  A$elementsbuilder$3877             elementsbuilder
     00001F61  A$elementsbuilder$3878             elementsbuilder
     00001F63  A$elementsbuilder$3879             elementsbuilder
     00001F64  A$elementsbuilder$3880             elementsbuilder
     00001F65  A$elementsbuilder$3881             elementsbuilder
     00001F66  A$elementsbuilder$3882             elementsbuilder
     00001F68  A$elementsbuilder$3883             elementsbuilder
     00001F69  A$elementsbuilder$3884             elementsbuilder
     00001F6A  A$elementsbuilder$3885             elementsbuilder
     00001F6B  A$elementsbuilder$3886             elementsbuilder
     00001F6D  A$elementsbuilder$3887             elementsbuilder
     00001F6E  A$elementsbuilder$3888             elementsbuilder
     00001F6F  A$elementsbuilder$3892             elementsbuilder
     00001F6F  C$elementsbuilder.c$516$6_2$235    elementsbuilder
     00001F70  A$elementsbuilder$3893             elementsbuilder
     00001F71  A$elementsbuilder$3894             elementsbuilder
     00001F72  A$elementsbuilder$3895             elementsbuilder
     00001F73  A$elementsbuilder$3896             elementsbuilder
     00001F76  A$elementsbuilder$3897             elementsbuilder
     00001F77  A$elementsbuilder$3898             elementsbuilder
     00001F78  A$elementsbuilder$3899             elementsbuilder
     00001F79  A$elementsbuilder$3900             elementsbuilder
     00001F7B  A$elementsbuilder$3901             elementsbuilder
     00001F7C  A$elementsbuilder$3902             elementsbuilder
     00001F7D  A$elementsbuilder$3903             elementsbuilder
     00001F7E  A$elementsbuilder$3904             elementsbuilder
ASxxxx Linker V03.00 + NoICE + sdld,  page 107.
Hexadecimal  [32-Bits]

Area                                    Addr        Size        Decimal Bytes (Attributes)
--------------------------------        ----        ----        ------- ----- ------------
_CODE                               00000200    00003D11 =       15633. bytes (REL,CON)

      Value  Global                              Global Defined In Module
      -----  --------------------------------   ------------------------
     00001F80  A$elementsbuilder$3905             elementsbuilder
     00001F81  A$elementsbuilder$3906             elementsbuilder
     00001F82  A$elementsbuilder$3907             elementsbuilder
     00001F83  A$elementsbuilder$3908             elementsbuilder
     00001F84  A$elementsbuilder$3909             elementsbuilder
     00001F85  A$elementsbuilder$3910             elementsbuilder
     00001F86  A$elementsbuilder$3911             elementsbuilder
     00001F87  A$elementsbuilder$3912             elementsbuilder
     00001F88  A$elementsbuilder$3913             elementsbuilder
     00001F8B  A$elementsbuilder$3914             elementsbuilder
     00001F8C  A$elementsbuilder$3915             elementsbuilder
     00001F8D  A$elementsbuilder$3916             elementsbuilder
     00001F8E  A$elementsbuilder$3917             elementsbuilder
     00001F90  A$elementsbuilder$3921             elementsbuilder
     00001F90  C$elementsbuilder.c$521$7_2$236    elementsbuilder
     00001F92  A$elementsbuilder$3922             elementsbuilder
     00001F93  A$elementsbuilder$3923             elementsbuilder
     00001F94  A$elementsbuilder$3924             elementsbuilder
     00001F97  A$elementsbuilder$3925             elementsbuilder
     00001F98  A$elementsbuilder$3929             elementsbuilder
     00001F98  C$elementsbuilder.c$522$7_2$236    elementsbuilder
     00001F9A  A$elementsbuilder$3930             elementsbuilder
     00001F9B  A$elementsbuilder$3931             elementsbuilder
     00001F9C  A$elementsbuilder$3932             elementsbuilder
     00001F9D  A$elementsbuilder$3933             elementsbuilder
     00001FA0  A$elementsbuilder$3934             elementsbuilder
     00001FA1  A$elementsbuilder$3935             elementsbuilder
     00001FA3  A$elementsbuilder$3940             elementsbuilder
     00001FA3  C$elementsbuilder.c$525$6_2$235    elementsbuilder
     00001FA5  A$elementsbuilder$3941             elementsbuilder
     00001FA6  A$elementsbuilder$3942             elementsbuilder
     00001FA7  A$elementsbuilder$3943             elementsbuilder
     00001FA8  A$elementsbuilder$3944             elementsbuilder
     00001FA9  A$elementsbuilder$3945             elementsbuilder
     00001FAB  A$elementsbuilder$3946             elementsbuilder
     00001FAC  A$elementsbuilder$3947             elementsbuilder
     00001FAE  A$elementsbuilder$3948             elementsbuilder
     00001FAF  A$elementsbuilder$3949             elementsbuilder
     00001FB1  A$elementsbuilder$3950             elementsbuilder
     00001FB2  A$elementsbuilder$3951             elementsbuilder
     00001FB4  A$elementsbuilder$3952             elementsbuilder
     00001FB6  A$elementsbuilder$3957             elementsbuilder
     00001FB6  C$elementsbuilder.c$530$7_2$237    elementsbuilder
     00001FB8  A$elementsbuilder$3958             elementsbuilder
     00001FB9  A$elementsbuilder$3959             elementsbuilder
     00001FBA  A$elementsbuilder$3960             elementsbuilder
     00001FBB  A$elementsbuilder$3961             elementsbuilder
     00001FBD  A$elementsbuilder$3962             elementsbuilder
     00001FBE  A$elementsbuilder$3963             elementsbuilder
     00001FC0  A$elementsbuilder$3964             elementsbuilder
     00001FC1  A$elementsbuilder$3965             elementsbuilder
ASxxxx Linker V03.00 + NoICE + sdld,  page 108.
Hexadecimal  [32-Bits]

Area                                    Addr        Size        Decimal Bytes (Attributes)
--------------------------------        ----        ----        ------- ----- ------------
_CODE                               00000200    00003D11 =       15633. bytes (REL,CON)

      Value  Global                              Global Defined In Module
      -----  --------------------------------   ------------------------
     00001FC2  A$elementsbuilder$3966             elementsbuilder
     00001FC3  A$elementsbuilder$3967             elementsbuilder
     00001FC5  A$elementsbuilder$3968             elementsbuilder
     00001FC6  A$elementsbuilder$3969             elementsbuilder
     00001FC7  A$elementsbuilder$3973             elementsbuilder
     00001FC7  C$elementsbuilder.c$531$7_2$237    elementsbuilder
     00001FC9  A$elementsbuilder$3974             elementsbuilder
     00001FCA  A$elementsbuilder$3975             elementsbuilder
     00001FCC  A$elementsbuilder$3980             elementsbuilder
     00001FCC  C$elementsbuilder.c$536$7_2$238    elementsbuilder
     00001FCE  A$elementsbuilder$3981             elementsbuilder
     00001FCF  A$elementsbuilder$3982             elementsbuilder
     00001FD0  A$elementsbuilder$3983             elementsbuilder
     00001FD1  A$elementsbuilder$3984             elementsbuilder
     00001FD3  A$elementsbuilder$3985             elementsbuilder
     00001FD4  A$elementsbuilder$3986             elementsbuilder
     00001FD6  A$elementsbuilder$3987             elementsbuilder
     00001FD7  A$elementsbuilder$3988             elementsbuilder
     00001FD8  A$elementsbuilder$3989             elementsbuilder
     00001FD9  A$elementsbuilder$3990             elementsbuilder
     00001FDB  A$elementsbuilder$3991             elementsbuilder
     00001FDC  A$elementsbuilder$3992             elementsbuilder
     00001FDD  A$elementsbuilder$3996             elementsbuilder
     00001FDD  C$elementsbuilder.c$537$7_2$238    elementsbuilder
     00001FDF  A$elementsbuilder$3997             elementsbuilder
     00001FE0  A$elementsbuilder$4002             elementsbuilder
     00001FE0  C$elementsbuilder.c$466$2_1$223    elementsbuilder
     00001FE2  A$elementsbuilder$4003             elementsbuilder
     00001FE3  A$elementsbuilder$4004             elementsbuilder
     00001FE6  A$elementsbuilder$4005             elementsbuilder
     00001FE7  A$elementsbuilder$4006             elementsbuilder
     00001FE8  A$elementsbuilder$4007             elementsbuilder
     00001FEB  A$elementsbuilder$4009             elementsbuilder
     00001FED  A$elementsbuilder$4010             elementsbuilder
     00001FEE  A$elementsbuilder$4011             elementsbuilder
     00001FF0  A$elementsbuilder$4012             elementsbuilder
     00001FF1  A$elementsbuilder$4013             elementsbuilder
     00001FF2  A$elementsbuilder$4014             elementsbuilder
     00001FF3  A$elementsbuilder$4015             elementsbuilder
     00001FF4  A$elementsbuilder$4019             elementsbuilder
     00001FF4  C$elementsbuilder.c$545$3_1$240    elementsbuilder
     00001FF6  A$elementsbuilder$4020             elementsbuilder
     00001FF7  A$elementsbuilder$4021             elementsbuilder
     00001FF9  A$elementsbuilder$4022             elementsbuilder
     00001FFA  A$elementsbuilder$4023             elementsbuilder
     00001FFC  A$elementsbuilder$4024             elementsbuilder
     00001FFD  A$elementsbuilder$4025             elementsbuilder
     00001FFF  A$elementsbuilder$4026             elementsbuilder
     00002000  A$elementsbuilder$4027             elementsbuilder
     00002001  A$elementsbuilder$4028             elementsbuilder
     00002002  A$elementsbuilder$4029             elementsbuilder
ASxxxx Linker V03.00 + NoICE + sdld,  page 109.
Hexadecimal  [32-Bits]

Area                                    Addr        Size        Decimal Bytes (Attributes)
--------------------------------        ----        ----        ------- ----- ------------
_CODE                               00000200    00003D11 =       15633. bytes (REL,CON)

      Value  Global                              Global Defined In Module
      -----  --------------------------------   ------------------------
     00002003  A$elementsbuilder$4031             elementsbuilder
     00002005  A$elementsbuilder$4032             elementsbuilder
     00002006  A$elementsbuilder$4033             elementsbuilder
     00002007  A$elementsbuilder$4034             elementsbuilder
     00002008  A$elementsbuilder$4035             elementsbuilder
     0000200A  A$elementsbuilder$4036             elementsbuilder
     0000200B  A$elementsbuilder$4037             elementsbuilder
     0000200C  A$elementsbuilder$4038             elementsbuilder
     0000200D  A$elementsbuilder$4039             elementsbuilder
     0000200E  A$elementsbuilder$4040             elementsbuilder
     0000200F  A$elementsbuilder$4041             elementsbuilder
     00002010  A$elementsbuilder$4042             elementsbuilder
     00002012  A$elementsbuilder$4043             elementsbuilder
     00002014  A$elementsbuilder$4044             elementsbuilder
     00002016  A$elementsbuilder$4045             elementsbuilder
     00002018  A$elementsbuilder$4046             elementsbuilder
     00002019  A$elementsbuilder$4047             elementsbuilder
     0000201B  A$elementsbuilder$4049             elementsbuilder
     0000201D  A$elementsbuilder$4050             elementsbuilder
     0000201F  A$elementsbuilder$4051             elementsbuilder
     00002020  A$elementsbuilder$4053             elementsbuilder
     00002022  A$elementsbuilder$4057             elementsbuilder
     00002022  C$elementsbuilder.c$546$3_1$240    elementsbuilder
     00002024  A$elementsbuilder$4058             elementsbuilder
     00002025  A$elementsbuilder$4059             elementsbuilder
     00002026  A$elementsbuilder$4060             elementsbuilder
     00002027  A$elementsbuilder$4061             elementsbuilder
     00002028  A$elementsbuilder$4062             elementsbuilder
     00002029  A$elementsbuilder$4063             elementsbuilder
     0000202A  A$elementsbuilder$4064             elementsbuilder
     0000202B  A$elementsbuilder$4065             elementsbuilder
     0000202C  A$elementsbuilder$4066             elementsbuilder
     0000202D  A$elementsbuilder$4067             elementsbuilder
     0000202E  A$elementsbuilder$4068             elementsbuilder
     0000202F  A$elementsbuilder$4069             elementsbuilder
     00002030  A$elementsbuilder$4070             elementsbuilder
     00002032  A$elementsbuilder$4071             elementsbuilder
     00002033  A$elementsbuilder$4072             elementsbuilder
     00002034  A$elementsbuilder$4073             elementsbuilder
     00002035  A$elementsbuilder$4074             elementsbuilder
     00002036  A$elementsbuilder$4075             elementsbuilder
     00002037  A$elementsbuilder$4076             elementsbuilder
     00002038  A$elementsbuilder$4077             elementsbuilder
     00002039  A$elementsbuilder$4078             elementsbuilder
     0000203A  A$elementsbuilder$4079             elementsbuilder
     0000203D  A$elementsbuilder$4080             elementsbuilder
     0000203E  A$elementsbuilder$4081             elementsbuilder
     00002041  A$elementsbuilder$4082             elementsbuilder
     00002042  A$elementsbuilder$4083             elementsbuilder
     00002043  A$elementsbuilder$4084             elementsbuilder
     00002045  A$elementsbuilder$4085             elementsbuilder
ASxxxx Linker V03.00 + NoICE + sdld,  page 110.
Hexadecimal  [32-Bits]

Area                                    Addr        Size        Decimal Bytes (Attributes)
--------------------------------        ----        ----        ------- ----- ------------
_CODE                               00000200    00003D11 =       15633. bytes (REL,CON)

      Value  Global                              Global Defined In Module
      -----  --------------------------------   ------------------------
     00002046  A$elementsbuilder$4086             elementsbuilder
     00002047  A$elementsbuilder$4087             elementsbuilder
     0000204A  A$elementsbuilder$4088             elementsbuilder
     0000204B  A$elementsbuilder$4089             elementsbuilder
     0000204C  A$elementsbuilder$4093             elementsbuilder
     0000204C  C$elementsbuilder.c$547$3_1$240    elementsbuilder
     0000204D  A$elementsbuilder$4094             elementsbuilder
     0000204E  A$elementsbuilder$4095             elementsbuilder
     00002050  A$elementsbuilder$4096             elementsbuilder
     00002051  A$elementsbuilder$4097             elementsbuilder
     00002052  A$elementsbuilder$4098             elementsbuilder
     00002053  A$elementsbuilder$4099             elementsbuilder
     00002054  A$elementsbuilder$4100             elementsbuilder
     00002055  A$elementsbuilder$4101             elementsbuilder
     00002056  A$elementsbuilder$4102             elementsbuilder
     00002057  A$elementsbuilder$4103             elementsbuilder
     00002058  A$elementsbuilder$4104             elementsbuilder
     00002059  A$elementsbuilder$4105             elementsbuilder
     0000205B  A$elementsbuilder$4106             elementsbuilder
     0000205C  A$elementsbuilder$4107             elementsbuilder
     0000205D  A$elementsbuilder$4108             elementsbuilder
     0000205F  A$elementsbuilder$4109             elementsbuilder
     00002060  A$elementsbuilder$4110             elementsbuilder
     00002063  A$elementsbuilder$4111             elementsbuilder
     00002064  A$elementsbuilder$4112             elementsbuilder
     00002065  A$elementsbuilder$4113             elementsbuilder
     00002067  A$elementsbuilder$4114             elementsbuilder
     00002068  A$elementsbuilder$4118             elementsbuilder
     00002068  C$elementsbuilder.c$548$3_1$240    elementsbuilder
     00002069  A$elementsbuilder$4119             elementsbuilder
     0000206A  A$elementsbuilder$4120             elementsbuilder
     0000206D  A$elementsbuilder$4121             elementsbuilder
     0000206E  A$elementsbuilder$4122             elementsbuilder
     0000206F  A$elementsbuilder$4126             elementsbuilder
     0000206F  C$elementsbuilder.c$549$3_1$240    elementsbuilder
     00002070  A$elementsbuilder$4127             elementsbuilder
     00002071  A$elementsbuilder$4128             elementsbuilder
     00002073  A$elementsbuilder$4129             elementsbuilder
     00002074  A$elementsbuilder$4130             elementsbuilder
     00002075  A$elementsbuilder$4131             elementsbuilder
     00002076  A$elementsbuilder$4132             elementsbuilder
     00002077  A$elementsbuilder$4133             elementsbuilder
     00002078  A$elementsbuilder$4134             elementsbuilder
     00002079  A$elementsbuilder$4135             elementsbuilder
     0000207A  A$elementsbuilder$4136             elementsbuilder
     0000207B  A$elementsbuilder$4137             elementsbuilder
     0000207E  A$elementsbuilder$4138             elementsbuilder
     0000207F  A$elementsbuilder$4139             elementsbuilder
     00002082  A$elementsbuilder$4140             elementsbuilder
     00002083  A$elementsbuilder$4141             elementsbuilder
     00002084  A$elementsbuilder$4142             elementsbuilder
ASxxxx Linker V03.00 + NoICE + sdld,  page 111.
Hexadecimal  [32-Bits]

Area                                    Addr        Size        Decimal Bytes (Attributes)
--------------------------------        ----        ----        ------- ----- ------------
_CODE                               00000200    00003D11 =       15633. bytes (REL,CON)

      Value  Global                              Global Defined In Module
      -----  --------------------------------   ------------------------
     00002085  A$elementsbuilder$4143             elementsbuilder
     00002087  A$elementsbuilder$4144             elementsbuilder
     00002088  A$elementsbuilder$4145             elementsbuilder
     00002089  A$elementsbuilder$4149             elementsbuilder
     00002089  C$elementsbuilder.c$545$2_1$239    elementsbuilder
     0000208B  A$elementsbuilder$4150             elementsbuilder
     0000208C  A$elementsbuilder$4151             elementsbuilder
     0000208F  A$elementsbuilder$4152             elementsbuilder
     00002090  A$elementsbuilder$4153             elementsbuilder
     00002091  A$elementsbuilder$4154             elementsbuilder
     00002094  A$elementsbuilder$4159             elementsbuilder
     00002094  C$elementsbuilder.c$552$3_1$242    elementsbuilder
     00002096  A$elementsbuilder$4160             elementsbuilder
     00002097  A$elementsbuilder$4161             elementsbuilder
     00002099  A$elementsbuilder$4162             elementsbuilder
     0000209A  A$elementsbuilder$4163             elementsbuilder
     0000209C  A$elementsbuilder$4164             elementsbuilder
     0000209D  A$elementsbuilder$4165             elementsbuilder
     0000209F  A$elementsbuilder$4166             elementsbuilder
     000020A0  A$elementsbuilder$4167             elementsbuilder
     000020A3  A$elementsbuilder$4169             elementsbuilder
     000020A5  A$elementsbuilder$4170             elementsbuilder
     000020A6  A$elementsbuilder$4171             elementsbuilder
     000020A8  A$elementsbuilder$4172             elementsbuilder
     000020A9  A$elementsbuilder$4173             elementsbuilder
     000020AA  A$elementsbuilder$4174             elementsbuilder
     000020AB  A$elementsbuilder$4175             elementsbuilder
     000020AC  A$elementsbuilder$4176             elementsbuilder
     000020AD  A$elementsbuilder$4177             elementsbuilder
     000020AE  A$elementsbuilder$4178             elementsbuilder
     000020AF  A$elementsbuilder$4179             elementsbuilder
     000020B0  A$elementsbuilder$4180             elementsbuilder
     000020B1  A$elementsbuilder$4181             elementsbuilder
     000020B2  A$elementsbuilder$4182             elementsbuilder
     000020B4  A$elementsbuilder$4183             elementsbuilder
     000020B6  A$elementsbuilder$4184             elementsbuilder
     000020B8  A$elementsbuilder$4185             elementsbuilder
     000020BA  A$elementsbuilder$4186             elementsbuilder
     000020BB  A$elementsbuilder$4187             elementsbuilder
     000020BD  A$elementsbuilder$4189             elementsbuilder
     000020BF  A$elementsbuilder$4190             elementsbuilder
     000020C1  A$elementsbuilder$4191             elementsbuilder
     000020C2  A$elementsbuilder$4193             elementsbuilder
     000020C4  A$elementsbuilder$4197             elementsbuilder
     000020C4  C$elementsbuilder.c$553$3_1$242    elementsbuilder
     000020C6  A$elementsbuilder$4198             elementsbuilder
     000020C7  A$elementsbuilder$4199             elementsbuilder
     000020C8  A$elementsbuilder$4200             elementsbuilder
     000020C9  A$elementsbuilder$4201             elementsbuilder
     000020CA  A$elementsbuilder$4202             elementsbuilder
     000020CB  A$elementsbuilder$4203             elementsbuilder
ASxxxx Linker V03.00 + NoICE + sdld,  page 112.
Hexadecimal  [32-Bits]

Area                                    Addr        Size        Decimal Bytes (Attributes)
--------------------------------        ----        ----        ------- ----- ------------
_CODE                               00000200    00003D11 =       15633. bytes (REL,CON)

      Value  Global                              Global Defined In Module
      -----  --------------------------------   ------------------------
     000020CC  A$elementsbuilder$4204             elementsbuilder
     000020CD  A$elementsbuilder$4205             elementsbuilder
     000020CE  A$elementsbuilder$4206             elementsbuilder
     000020CF  A$elementsbuilder$4207             elementsbuilder
     000020D0  A$elementsbuilder$4208             elementsbuilder
     000020D3  A$elementsbuilder$4209             elementsbuilder
     000020D4  A$elementsbuilder$4210             elementsbuilder
     000020D5  A$elementsbuilder$4214             elementsbuilder
     000020D5  C$elementsbuilder.c$552$2_1$241    elementsbuilder
     000020D6  A$elementsbuilder$4215             elementsbuilder
     000020D8  A$elementsbuilder$4220             elementsbuilder
     000020DA  A$elementsbuilder$4225             elementsbuilder
     000020DA  C$elementsbuilder.c$555$2_1$217    elementsbuilder
     000020DA  XG$moveBullets$0$0                 elementsbuilder
     000020DB  A$elementsbuilder$4235             elementsbuilder
     000020DB  C$elementsbuilder.c$569$2_1$244    elementsbuilder
     000020DB  G$createShootInternal$0$0          elementsbuilder
     000020DB  _createShootInternal               elementsbuilder
     000020DD  A$elementsbuilder$4239             elementsbuilder
     000020DD  C$elementsbuilder.c$580$1_0$244    elementsbuilder
     000020DF  A$elementsbuilder$4240             elementsbuilder
     000020E0  A$elementsbuilder$4241             elementsbuilder
     000020E2  A$elementsbuilder$4242             elementsbuilder
     000020E3  A$elementsbuilder$4243             elementsbuilder
     000020E4  A$elementsbuilder$4244             elementsbuilder
     000020E5  A$elementsbuilder$4245             elementsbuilder
     000020E6  A$elementsbuilder$4246             elementsbuilder
     000020E7  A$elementsbuilder$4247             elementsbuilder
     000020E8  A$elementsbuilder$4248             elementsbuilder
     000020E9  A$elementsbuilder$4249             elementsbuilder
     000020EA  A$elementsbuilder$4250             elementsbuilder
     000020ED  A$elementsbuilder$4251             elementsbuilder
     000020EE  A$elementsbuilder$4252             elementsbuilder
     000020EF  A$elementsbuilder$4253             elementsbuilder
     000020F0  A$elementsbuilder$4254             elementsbuilder
     000020F3  A$elementsbuilder$4255             elementsbuilder
     000020F4  A$elementsbuilder$4256             elementsbuilder
     000020F6  A$elementsbuilder$4260             elementsbuilder
     000020F6  C$elementsbuilder.c$582$1_0$244    elementsbuilder
     000020F9  A$elementsbuilder$4261             elementsbuilder
     000020FA  A$elementsbuilder$4262             elementsbuilder
     000020FB  A$elementsbuilder$4263             elementsbuilder
     000020FC  A$elementsbuilder$4264             elementsbuilder
     000020FE  A$elementsbuilder$4265             elementsbuilder
     000020FF  A$elementsbuilder$4266             elementsbuilder
     00002101  A$elementsbuilder$4267             elementsbuilder
     00002102  A$elementsbuilder$4268             elementsbuilder
     00002104  A$elementsbuilder$4269             elementsbuilder
     00002105  A$elementsbuilder$4270             elementsbuilder
     00002106  A$elementsbuilder$4274             elementsbuilder
     00002106  C$elementsbuilder.c$583$1_0$244    elementsbuilder
ASxxxx Linker V03.00 + NoICE + sdld,  page 113.
Hexadecimal  [32-Bits]

Area                                    Addr        Size        Decimal Bytes (Attributes)
--------------------------------        ----        ----        ------- ----- ------------
_CODE                               00000200    00003D11 =       15633. bytes (REL,CON)

      Value  Global                              Global Defined In Module
      -----  --------------------------------   ------------------------
     00002109  A$elementsbuilder$4275             elementsbuilder
     0000210A  A$elementsbuilder$4276             elementsbuilder
     0000210B  A$elementsbuilder$4277             elementsbuilder
     0000210C  A$elementsbuilder$4278             elementsbuilder
     0000210E  A$elementsbuilder$4279             elementsbuilder
     0000210F  A$elementsbuilder$4280             elementsbuilder
     00002110  A$elementsbuilder$4284             elementsbuilder
     00002110  C$elementsbuilder.c$584$1_0$244    elementsbuilder
     00002113  A$elementsbuilder$4285             elementsbuilder
     00002114  A$elementsbuilder$4286             elementsbuilder
     00002115  A$elementsbuilder$4287             elementsbuilder
     00002116  A$elementsbuilder$4288             elementsbuilder
     00002118  A$elementsbuilder$4289             elementsbuilder
     00002119  A$elementsbuilder$4290             elementsbuilder
     0000211B  A$elementsbuilder$4291             elementsbuilder
     0000211C  A$elementsbuilder$4294             elementsbuilder
     0000211D  A$elementsbuilder$4295             elementsbuilder
     0000211E  A$elementsbuilder$4299             elementsbuilder
     0000211E  C$elementsbuilder.c$586$1_0$244    elementsbuilder
     00002121  A$elementsbuilder$4300             elementsbuilder
     00002122  A$elementsbuilder$4301             elementsbuilder
     00002124  A$elementsbuilder$4305             elementsbuilder
     00002124  C$elementsbuilder.c$587$1_0$244    elementsbuilder
     00002127  A$elementsbuilder$4306             elementsbuilder
     00002128  A$elementsbuilder$4307             elementsbuilder
     0000212A  A$elementsbuilder$4311             elementsbuilder
     0000212A  C$elementsbuilder.c$588$1_0$244    elementsbuilder
     0000212D  A$elementsbuilder$4312             elementsbuilder
     0000212E  A$elementsbuilder$4313             elementsbuilder
     0000212F  A$elementsbuilder$4314             elementsbuilder
     00002130  A$elementsbuilder$4315             elementsbuilder
     00002132  A$elementsbuilder$4316             elementsbuilder
     00002133  A$elementsbuilder$4317             elementsbuilder
     00002134  A$elementsbuilder$4321             elementsbuilder
     00002134  C$elementsbuilder.c$589$1_0$244    elementsbuilder
     00002137  A$elementsbuilder$4322             elementsbuilder
     00002138  A$elementsbuilder$4323             elementsbuilder
     00002139  A$elementsbuilder$4324             elementsbuilder
     0000213A  A$elementsbuilder$4325             elementsbuilder
     0000213C  A$elementsbuilder$4326             elementsbuilder
     0000213D  A$elementsbuilder$4327             elementsbuilder
     0000213E  A$elementsbuilder$4328             elementsbuilder
     0000213F  A$elementsbuilder$4329             elementsbuilder
     00002141  A$elementsbuilder$4330             elementsbuilder
     00002142  A$elementsbuilder$4331             elementsbuilder
     00002143  A$elementsbuilder$4332             elementsbuilder
     00002144  A$elementsbuilder$4333             elementsbuilder
     00002145  A$elementsbuilder$4334             elementsbuilder
     00002147  A$elementsbuilder$4335             elementsbuilder
     00002148  A$elementsbuilder$4336             elementsbuilder
     00002149  A$elementsbuilder$4340             elementsbuilder
ASxxxx Linker V03.00 + NoICE + sdld,  page 114.
Hexadecimal  [32-Bits]

Area                                    Addr        Size        Decimal Bytes (Attributes)
--------------------------------        ----        ----        ------- ----- ------------
_CODE                               00000200    00003D11 =       15633. bytes (REL,CON)

      Value  Global                              Global Defined In Module
      -----  --------------------------------   ------------------------
     00002149  C$elementsbuilder.c$591$1_0$244    elementsbuilder
     0000214C  A$elementsbuilder$4341             elementsbuilder
     0000214D  A$elementsbuilder$4342             elementsbuilder
     0000214F  A$elementsbuilder$4346             elementsbuilder
     0000214F  C$elementsbuilder.c$592$1_0$244    elementsbuilder
     00002152  A$elementsbuilder$4347             elementsbuilder
     00002153  A$elementsbuilder$4348             elementsbuilder
     00002155  A$elementsbuilder$4352             elementsbuilder
     00002155  C$elementsbuilder.c$593$1_0$244    elementsbuilder
     00002158  A$elementsbuilder$4353             elementsbuilder
     00002159  A$elementsbuilder$4354             elementsbuilder
     0000215A  A$elementsbuilder$4355             elementsbuilder
     0000215B  A$elementsbuilder$4356             elementsbuilder
     0000215D  A$elementsbuilder$4357             elementsbuilder
     0000215E  A$elementsbuilder$4358             elementsbuilder
     0000215F  A$elementsbuilder$4362             elementsbuilder
     0000215F  C$elementsbuilder.c$595$1_0$244    elementsbuilder
     00002162  A$elementsbuilder$4363             elementsbuilder
     00002163  A$elementsbuilder$4364             elementsbuilder
     00002164  A$elementsbuilder$4365             elementsbuilder
     00002165  A$elementsbuilder$4366             elementsbuilder
     00002167  A$elementsbuilder$4367             elementsbuilder
     00002168  A$elementsbuilder$4368             elementsbuilder
     00002169  A$elementsbuilder$4372             elementsbuilder
     00002169  C$elementsbuilder.c$597$1_0$244    elementsbuilder
     0000216C  A$elementsbuilder$4373             elementsbuilder
     0000216D  A$elementsbuilder$4374             elementsbuilder
     0000216F  A$elementsbuilder$4378             elementsbuilder
     0000216F  C$elementsbuilder.c$598$1_0$244    elementsbuilder
     00002172  A$elementsbuilder$4379             elementsbuilder
     00002173  A$elementsbuilder$4380             elementsbuilder
     00002175  A$elementsbuilder$4384             elementsbuilder
     00002177  A$elementsbuilder$4385             elementsbuilder
     00002178  A$elementsbuilder$4386             elementsbuilder
     00002179  A$elementsbuilder$4387             elementsbuilder
     0000217A  A$elementsbuilder$4388             elementsbuilder
     0000217B  A$elementsbuilder$4389             elementsbuilder
     0000217D  A$elementsbuilder$4390             elementsbuilder
     0000217E  A$elementsbuilder$4394             elementsbuilder
     0000217E  C$elementsbuilder.c$602$1_0$244    elementsbuilder
     0000217F  A$elementsbuilder$4395             elementsbuilder
     00002180  A$elementsbuilder$4396             elementsbuilder
     00002181  A$elementsbuilder$4400             elementsbuilder
     00002181  C$elementsbuilder.c$603$1_0$244    elementsbuilder
     00002184  A$elementsbuilder$4401             elementsbuilder
     00002185  A$elementsbuilder$4402             elementsbuilder
     00002186  A$elementsbuilder$4403             elementsbuilder
     00002187  A$elementsbuilder$4404             elementsbuilder
     00002189  A$elementsbuilder$4405             elementsbuilder
     0000218A  A$elementsbuilder$4406             elementsbuilder
     0000218B  A$elementsbuilder$4407             elementsbuilder
ASxxxx Linker V03.00 + NoICE + sdld,  page 115.
Hexadecimal  [32-Bits]

Area                                    Addr        Size        Decimal Bytes (Attributes)
--------------------------------        ----        ----        ------- ----- ------------
_CODE                               00000200    00003D11 =       15633. bytes (REL,CON)

      Value  Global                              Global Defined In Module
      -----  --------------------------------   ------------------------
     0000218C  A$elementsbuilder$4408             elementsbuilder
     0000218E  A$elementsbuilder$4409             elementsbuilder
     0000218F  A$elementsbuilder$4413             elementsbuilder
     0000218F  C$elementsbuilder.c$604$1_0$244    elementsbuilder
     00002192  A$elementsbuilder$4414             elementsbuilder
     00002193  A$elementsbuilder$4415             elementsbuilder
     00002194  A$elementsbuilder$4416             elementsbuilder
     00002195  A$elementsbuilder$4417             elementsbuilder
     00002197  A$elementsbuilder$4418             elementsbuilder
     00002198  A$elementsbuilder$4419             elementsbuilder
     00002199  A$elementsbuilder$4420             elementsbuilder
     0000219A  A$elementsbuilder$4421             elementsbuilder
     0000219C  A$elementsbuilder$4422             elementsbuilder
     0000219D  A$elementsbuilder$4426             elementsbuilder
     0000219D  C$elementsbuilder.c$605$1_0$244    elementsbuilder
     000021A0  A$elementsbuilder$4427             elementsbuilder
     000021A1  A$elementsbuilder$4428             elementsbuilder
     000021A2  A$elementsbuilder$4429             elementsbuilder
     000021A3  A$elementsbuilder$4430             elementsbuilder
     000021A5  A$elementsbuilder$4431             elementsbuilder
     000021A6  A$elementsbuilder$4432             elementsbuilder
     000021A7  A$elementsbuilder$4433             elementsbuilder
     000021A8  A$elementsbuilder$4434             elementsbuilder
     000021AA  A$elementsbuilder$4435             elementsbuilder
     000021AB  A$elementsbuilder$4439             elementsbuilder
     000021AB  C$elementsbuilder.c$600$1_0$244    elementsbuilder
     000021AD  A$elementsbuilder$4440             elementsbuilder
     000021AE  A$elementsbuilder$4441             elementsbuilder
     000021B0  A$elementsbuilder$4442             elementsbuilder
     000021B2  A$elementsbuilder$4446             elementsbuilder
     000021B2  C$elementsbuilder.c$601$2_0$245    elementsbuilder
     000021B4  A$elementsbuilder$4447             elementsbuilder
     000021B5  A$elementsbuilder$4451             elementsbuilder
     000021B5  C$elementsbuilder.c$602$2_0$245    elementsbuilder
     000021B7  A$elementsbuilder$4452             elementsbuilder
     000021B8  A$elementsbuilder$4456             elementsbuilder
     000021B8  C$elementsbuilder.c$603$2_0$245    elementsbuilder
     000021BA  A$elementsbuilder$4457             elementsbuilder
     000021BB  A$elementsbuilder$4458             elementsbuilder
     000021BC  A$elementsbuilder$4459             elementsbuilder
     000021BD  A$elementsbuilder$4460             elementsbuilder
     000021BF  A$elementsbuilder$4464             elementsbuilder
     000021BF  C$elementsbuilder.c$604$2_0$245    elementsbuilder
     000021C1  A$elementsbuilder$4465             elementsbuilder
     000021C2  A$elementsbuilder$4466             elementsbuilder
     000021C3  A$elementsbuilder$4467             elementsbuilder
     000021C4  A$elementsbuilder$4468             elementsbuilder
     000021C6  A$elementsbuilder$4472             elementsbuilder
     000021C6  C$elementsbuilder.c$605$2_0$245    elementsbuilder
     000021C8  A$elementsbuilder$4473             elementsbuilder
     000021C9  A$elementsbuilder$4474             elementsbuilder
ASxxxx Linker V03.00 + NoICE + sdld,  page 116.
Hexadecimal  [32-Bits]

Area                                    Addr        Size        Decimal Bytes (Attributes)
--------------------------------        ----        ----        ------- ----- ------------
_CODE                               00000200    00003D11 =       15633. bytes (REL,CON)

      Value  Global                              Global Defined In Module
      -----  --------------------------------   ------------------------
     000021CA  A$elementsbuilder$4475             elementsbuilder
     000021CB  A$elementsbuilder$4476             elementsbuilder
     000021CD  A$elementsbuilder$4477             elementsbuilder
     000021CF  A$elementsbuilder$4482             elementsbuilder
     000021CF  C$elementsbuilder.c$607$1_0$244    elementsbuilder
     000021D1  A$elementsbuilder$4483             elementsbuilder
     000021D2  A$elementsbuilder$4484             elementsbuilder
     000021D4  A$elementsbuilder$4485             elementsbuilder
     000021D6  A$elementsbuilder$4486             elementsbuilder
     000021D8  A$elementsbuilder$4487             elementsbuilder
     000021D9  A$elementsbuilder$4488             elementsbuilder
     000021DB  A$elementsbuilder$4489             elementsbuilder
     000021DD  A$elementsbuilder$4490             elementsbuilder
     000021DF  A$elementsbuilder$4491             elementsbuilder
     000021E0  A$elementsbuilder$4492             elementsbuilder
     000021E2  A$elementsbuilder$4493             elementsbuilder
     000021E4  A$elementsbuilder$4498             elementsbuilder
     000021E4  C$elementsbuilder.c$608$2_0$246    elementsbuilder
     000021E6  A$elementsbuilder$4499             elementsbuilder
     000021E7  A$elementsbuilder$4503             elementsbuilder
     000021E7  C$elementsbuilder.c$609$2_0$246    elementsbuilder
     000021E9  A$elementsbuilder$4504             elementsbuilder
     000021EA  A$elementsbuilder$4508             elementsbuilder
     000021EA  C$elementsbuilder.c$610$2_0$246    elementsbuilder
     000021EC  A$elementsbuilder$4509             elementsbuilder
     000021ED  A$elementsbuilder$4510             elementsbuilder
     000021EE  A$elementsbuilder$4511             elementsbuilder
     000021EF  A$elementsbuilder$4512             elementsbuilder
     000021F1  A$elementsbuilder$4516             elementsbuilder
     000021F1  C$elementsbuilder.c$611$2_0$246    elementsbuilder
     000021F3  A$elementsbuilder$4517             elementsbuilder
     000021F4  A$elementsbuilder$4518             elementsbuilder
     000021F5  A$elementsbuilder$4519             elementsbuilder
     000021F6  A$elementsbuilder$4520             elementsbuilder
     000021F8  A$elementsbuilder$4524             elementsbuilder
     000021F8  C$elementsbuilder.c$612$2_0$246    elementsbuilder
     000021FA  A$elementsbuilder$4525             elementsbuilder
     000021FB  A$elementsbuilder$4526             elementsbuilder
     000021FC  A$elementsbuilder$4527             elementsbuilder
     000021FD  A$elementsbuilder$4528             elementsbuilder
     000021FF  A$elementsbuilder$4533             elementsbuilder
     00002201  A$elementsbuilder$4538             elementsbuilder
     00002201  C$elementsbuilder.c$616$1_0$244    elementsbuilder
     00002201  XG$createShootInternal$0$0         elementsbuilder
     00002202  A$elementsbuilder$4548             elementsbuilder
     00002202  C$elementsbuilder.c$619$1_0$248    elementsbuilder
     00002202  G$createShootElement$0$0           elementsbuilder
     00002202  _createShootElement                elementsbuilder
     00002203  A$elementsbuilder$4549             elementsbuilder
     00002204  A$elementsbuilder$4553             elementsbuilder
     00002204  C$elementsbuilder.c$624$3_0$250    elementsbuilder
ASxxxx Linker V03.00 + NoICE + sdld,  page 117.
Hexadecimal  [32-Bits]

Area                                    Addr        Size        Decimal Bytes (Attributes)
--------------------------------        ----        ----        ------- ----- ------------
_CODE                               00000200    00003D11 =       15633. bytes (REL,CON)

      Value  Global                              Global Defined In Module
      -----  --------------------------------   ------------------------
     00002207  A$elementsbuilder$4554             elementsbuilder
     00002209  A$elementsbuilder$4555             elementsbuilder
     0000220B  A$elementsbuilder$4560             elementsbuilder
     0000220B  C$elementsbuilder.c$625$3_0$250    elementsbuilder
     0000220D  A$elementsbuilder$4561             elementsbuilder
     0000220E  A$elementsbuilder$4562             elementsbuilder
     00002210  A$elementsbuilder$4563             elementsbuilder
     00002211  A$elementsbuilder$4564             elementsbuilder
     00002212  A$elementsbuilder$4565             elementsbuilder
     00002213  A$elementsbuilder$4566             elementsbuilder
     00002214  A$elementsbuilder$4567             elementsbuilder
     00002215  A$elementsbuilder$4568             elementsbuilder
     00002216  A$elementsbuilder$4569             elementsbuilder
     00002217  A$elementsbuilder$4570             elementsbuilder
     00002218  A$elementsbuilder$4571             elementsbuilder
     00002219  A$elementsbuilder$4572             elementsbuilder
     0000221C  A$elementsbuilder$4573             elementsbuilder
     0000221D  A$elementsbuilder$4574             elementsbuilder
     0000221E  A$elementsbuilder$4575             elementsbuilder
     0000221F  A$elementsbuilder$4576             elementsbuilder
     00002221  A$elementsbuilder$4580             elementsbuilder
     00002221  C$elementsbuilder.c$624$2_0$249    elementsbuilder
     00002223  A$elementsbuilder$4581             elementsbuilder
     00002224  A$elementsbuilder$4582             elementsbuilder
     00002225  A$elementsbuilder$4583             elementsbuilder
     00002227  A$elementsbuilder$4584             elementsbuilder
     00002229  A$elementsbuilder$4586             elementsbuilder
     0000222B  A$elementsbuilder$4587             elementsbuilder
     0000222C  A$elementsbuilder$4591             elementsbuilder
     0000222C  C$elementsbuilder.c$631$1_0$248    elementsbuilder
     0000222D  A$elementsbuilder$4592             elementsbuilder
     0000222E  A$elementsbuilder$4593             elementsbuilder
     00002230  A$elementsbuilder$4594             elementsbuilder
     00002232  A$elementsbuilder$4595             elementsbuilder
     00002234  A$elementsbuilder$4596             elementsbuilder
     00002236  A$elementsbuilder$4600             elementsbuilder
     00002236  C$elementsbuilder.c$632$2_0$252    elementsbuilder
     00002237  A$elementsbuilder$4601             elementsbuilder
     00002239  A$elementsbuilder$4602             elementsbuilder
     0000223A  A$elementsbuilder$4603             elementsbuilder
     0000223B  A$elementsbuilder$4604             elementsbuilder
     0000223C  A$elementsbuilder$4605             elementsbuilder
     0000223D  A$elementsbuilder$4606             elementsbuilder
     0000223E  A$elementsbuilder$4607             elementsbuilder
     0000223F  A$elementsbuilder$4608             elementsbuilder
     00002240  A$elementsbuilder$4609             elementsbuilder
     00002241  A$elementsbuilder$4610             elementsbuilder
     00002242  A$elementsbuilder$4611             elementsbuilder
     00002245  A$elementsbuilder$4612             elementsbuilder
     00002246  A$elementsbuilder$4613             elementsbuilder
     00002247  A$elementsbuilder$4617             elementsbuilder
ASxxxx Linker V03.00 + NoICE + sdld,  page 118.
Hexadecimal  [32-Bits]

Area                                    Addr        Size        Decimal Bytes (Attributes)
--------------------------------        ----        ----        ------- ----- ------------
_CODE                               00000200    00003D11 =       15633. bytes (REL,CON)

      Value  Global                              Global Defined In Module
      -----  --------------------------------   ------------------------
     00002247  C$elementsbuilder.c$633$2_0$252    elementsbuilder
     00002248  A$elementsbuilder$4618             elementsbuilder
     00002249  A$elementsbuilder$4619             elementsbuilder
     0000224B  A$elementsbuilder$4623             elementsbuilder
     0000224B  C$elementsbuilder.c$634$3_0$253    elementsbuilder
     0000224D  A$elementsbuilder$4624             elementsbuilder
     0000224E  A$elementsbuilder$4625             elementsbuilder
     00002250  A$elementsbuilder$4626             elementsbuilder
     00002251  A$elementsbuilder$4627             elementsbuilder
     00002252  A$elementsbuilder$4628             elementsbuilder
     00002253  A$elementsbuilder$4629             elementsbuilder
     00002254  A$elementsbuilder$4630             elementsbuilder
     00002255  A$elementsbuilder$4631             elementsbuilder
     00002256  A$elementsbuilder$4632             elementsbuilder
     00002257  A$elementsbuilder$4633             elementsbuilder
     00002258  A$elementsbuilder$4634             elementsbuilder
     00002259  A$elementsbuilder$4635             elementsbuilder
     0000225A  A$elementsbuilder$4636             elementsbuilder
     0000225D  A$elementsbuilder$4637             elementsbuilder
     0000225E  A$elementsbuilder$4638             elementsbuilder
     0000225F  A$elementsbuilder$4639             elementsbuilder
     00002261  A$elementsbuilder$4640             elementsbuilder
     00002262  A$elementsbuilder$4645             elementsbuilder
     00002262  C$elementsbuilder.c$637$2_0$252    elementsbuilder
     00002264  A$elementsbuilder$4646             elementsbuilder
     00002265  A$elementsbuilder$4647             elementsbuilder
     00002267  A$elementsbuilder$4651             elementsbuilder
     00002267  C$elementsbuilder.c$639$3_0$254    elementsbuilder
     00002268  A$elementsbuilder$4652             elementsbuilder
     00002269  A$elementsbuilder$4653             elementsbuilder
     0000226A  A$elementsbuilder$4654             elementsbuilder
     0000226B  A$elementsbuilder$4655             elementsbuilder
     0000226C  A$elementsbuilder$4656             elementsbuilder
     0000226E  A$elementsbuilder$4657             elementsbuilder
     0000226F  A$elementsbuilder$4658             elementsbuilder
     00002270  A$elementsbuilder$4659             elementsbuilder
     00002271  A$elementsbuilder$4660             elementsbuilder
     00002272  A$elementsbuilder$4661             elementsbuilder
     00002273  A$elementsbuilder$4662             elementsbuilder
     00002274  A$elementsbuilder$4663             elementsbuilder
     00002275  A$elementsbuilder$4664             elementsbuilder
     00002276  A$elementsbuilder$4665             elementsbuilder
     00002277  A$elementsbuilder$4666             elementsbuilder
     00002278  A$elementsbuilder$4667             elementsbuilder
     00002279  A$elementsbuilder$4668             elementsbuilder
     0000227A  A$elementsbuilder$4669             elementsbuilder
     0000227B  A$elementsbuilder$4670             elementsbuilder
     0000227C  A$elementsbuilder$4671             elementsbuilder
     0000227D  A$elementsbuilder$4672             elementsbuilder
     0000227E  A$elementsbuilder$4673             elementsbuilder
     0000227F  A$elementsbuilder$4674             elementsbuilder
ASxxxx Linker V03.00 + NoICE + sdld,  page 119.
Hexadecimal  [32-Bits]

Area                                    Addr        Size        Decimal Bytes (Attributes)
--------------------------------        ----        ----        ------- ----- ------------
_CODE                               00000200    00003D11 =       15633. bytes (REL,CON)

      Value  Global                              Global Defined In Module
      -----  --------------------------------   ------------------------
     00002280  A$elementsbuilder$4675             elementsbuilder
     00002281  A$elementsbuilder$4676             elementsbuilder
     00002282  A$elementsbuilder$4677             elementsbuilder
     00002283  A$elementsbuilder$4678             elementsbuilder
     00002284  A$elementsbuilder$4679             elementsbuilder
     00002285  A$elementsbuilder$4680             elementsbuilder
     00002287  A$elementsbuilder$4681             elementsbuilder
     00002288  A$elementsbuilder$4682             elementsbuilder
     00002289  A$elementsbuilder$4683             elementsbuilder
     0000228A  A$elementsbuilder$4684             elementsbuilder
     0000228B  A$elementsbuilder$4685             elementsbuilder
     0000228D  A$elementsbuilder$4686             elementsbuilder
     0000228E  A$elementsbuilder$4687             elementsbuilder
     0000228F  A$elementsbuilder$4688             elementsbuilder
     00002290  A$elementsbuilder$4689             elementsbuilder
     00002293  A$elementsbuilder$4690             elementsbuilder
     00002295  A$elementsbuilder$4695             elementsbuilder
     00002296  A$elementsbuilder$4696             elementsbuilder
     00002297  A$elementsbuilder$4701             elementsbuilder
     00002297  C$elementsbuilder.c$653$1_0$248    elementsbuilder
     00002297  XG$createShootElement$0$0          elementsbuilder
     00002298  A$elementsbuilder$4711             elementsbuilder
     00002298  C$elementsbuilder.c$656$1_0$257    elementsbuilder
     00002298  G$createShoot$0$0                  elementsbuilder
     00002298  _createShoot                       elementsbuilder
     0000229A  A$elementsbuilder$4715             elementsbuilder
     0000229D  A$elementsbuilder$4716             elementsbuilder
     0000229F  A$elementsbuilder$4717             elementsbuilder
     000022A0  A$elementsbuilder$4730             elementsbuilder
     000022A0  C$elementsbuilder.c$663$1_0$257    elementsbuilder
     000022A0  C$elementsbuilder.c$674$1_0$257    elementsbuilder
     000022A3  A$elementsbuilder$4731             elementsbuilder
     000022A5  A$elementsbuilder$4732             elementsbuilder
     000022A6  A$elementsbuilder$4736             elementsbuilder
     000022A9  A$elementsbuilder$4737             elementsbuilder
     000022AB  A$elementsbuilder$4738             elementsbuilder
     000022AC  A$elementsbuilder$4742             elementsbuilder
     000022AC  C$elementsbuilder.c$672$1_0$257    elementsbuilder
     000022AF  A$elementsbuilder$4746             elementsbuilder
     000022AF  C$elementsbuilder.c$662$1_0$257    elementsbuilder
     000022B1  A$elementsbuilder$4747             elementsbuilder
     000022B2  A$elementsbuilder$4748             elementsbuilder
     000022B4  A$elementsbuilder$4752             elementsbuilder
     000022B4  C$elementsbuilder.c$661$1_0$257    elementsbuilder
     000022B5  A$elementsbuilder$4753             elementsbuilder
     000022B7  A$elementsbuilder$4754             elementsbuilder
     000022BA  A$elementsbuilder$4755             elementsbuilder
     000022BB  A$elementsbuilder$4756             elementsbuilder
     000022BC  A$elementsbuilder$4757             elementsbuilder
     000022BD  A$elementsbuilder$4761             elementsbuilder
     000022BD  C$elementsbuilder.c$658$1_0$257    elementsbuilder
ASxxxx Linker V03.00 + NoICE + sdld,  page 120.
Hexadecimal  [32-Bits]

Area                                    Addr        Size        Decimal Bytes (Attributes)
--------------------------------        ----        ----        ------- ----- ------------
_CODE                               00000200    00003D11 =       15633. bytes (REL,CON)

      Value  Global                              Global Defined In Module
      -----  --------------------------------   ------------------------
     000022BF  A$elementsbuilder$4762             elementsbuilder
     000022C0  A$elementsbuilder$4763             elementsbuilder
     000022C2  A$elementsbuilder$4764             elementsbuilder
     000022C4  A$elementsbuilder$4768             elementsbuilder
     000022C4  C$elementsbuilder.c$662$2_0$258    elementsbuilder
     000022C5  A$elementsbuilder$4769             elementsbuilder
     000022C6  A$elementsbuilder$4770             elementsbuilder
     000022C7  A$elementsbuilder$4771             elementsbuilder
     000022C8  A$elementsbuilder$4775             elementsbuilder
     000022C8  C$elementsbuilder.c$661$2_0$258    elementsbuilder
     000022CB  A$elementsbuilder$4776             elementsbuilder
     000022CC  A$elementsbuilder$4777             elementsbuilder
     000022CE  A$elementsbuilder$4778             elementsbuilder
     000022CF  A$elementsbuilder$4779             elementsbuilder
     000022D0  A$elementsbuilder$4780             elementsbuilder
     000022D2  A$elementsbuilder$4781             elementsbuilder
     000022D3  A$elementsbuilder$4782             elementsbuilder
     000022D4  A$elementsbuilder$4785             elementsbuilder
     000022D5  A$elementsbuilder$4788             elementsbuilder
     000022D6  A$elementsbuilder$4789             elementsbuilder
     000022D8  A$elementsbuilder$4790             elementsbuilder
     000022D9  A$elementsbuilder$4791             elementsbuilder
     000022DA  A$elementsbuilder$4792             elementsbuilder
     000022DB  A$elementsbuilder$4793             elementsbuilder
     000022DC  A$elementsbuilder$4794             elementsbuilder
     000022DD  A$elementsbuilder$4795             elementsbuilder
     000022E0  A$elementsbuilder$4796             elementsbuilder
     000022E2  A$elementsbuilder$4797             elementsbuilder
     000022E5  A$elementsbuilder$4802             elementsbuilder
     000022E5  C$elementsbuilder.c$673$1_0$257    elementsbuilder
     000022E6  A$elementsbuilder$4803             elementsbuilder
     000022E7  A$elementsbuilder$4807             elementsbuilder
     000022E7  C$elementsbuilder.c$669$1_0$257    elementsbuilder
     000022E9  A$elementsbuilder$4808             elementsbuilder
     000022EA  A$elementsbuilder$4809             elementsbuilder
     000022EC  A$elementsbuilder$4810             elementsbuilder
     000022EE  A$elementsbuilder$4814             elementsbuilder
     000022EE  C$elementsbuilder.c$672$2_0$259    elementsbuilder
     000022F1  A$elementsbuilder$4815             elementsbuilder
     000022F2  A$elementsbuilder$4816             elementsbuilder
     000022F4  A$elementsbuilder$4817             elementsbuilder
     000022F5  A$elementsbuilder$4818             elementsbuilder
     000022F6  A$elementsbuilder$4819             elementsbuilder
     000022F8  A$elementsbuilder$4820             elementsbuilder
     000022F9  A$elementsbuilder$4821             elementsbuilder
     000022FA  A$elementsbuilder$4824             elementsbuilder
     000022FB  A$elementsbuilder$4827             elementsbuilder
     000022FC  A$elementsbuilder$4828             elementsbuilder
     000022FE  A$elementsbuilder$4829             elementsbuilder
     000022FF  A$elementsbuilder$4830             elementsbuilder
     00002300  A$elementsbuilder$4831             elementsbuilder
ASxxxx Linker V03.00 + NoICE + sdld,  page 121.
Hexadecimal  [32-Bits]

Area                                    Addr        Size        Decimal Bytes (Attributes)
--------------------------------        ----        ----        ------- ----- ------------
_CODE                               00000200    00003D11 =       15633. bytes (REL,CON)

      Value  Global                              Global Defined In Module
      -----  --------------------------------   ------------------------
     00002301  A$elementsbuilder$4832             elementsbuilder
     00002302  A$elementsbuilder$4833             elementsbuilder
     00002303  A$elementsbuilder$4834             elementsbuilder
     00002306  A$elementsbuilder$4835             elementsbuilder
     00002308  A$elementsbuilder$4839             elementsbuilder
     00002308  C$elementsbuilder.c$684$2_0$259    elementsbuilder
     0000230B  A$elementsbuilder$4840             elementsbuilder
     0000230D  A$elementsbuilder$4841             elementsbuilder
     0000230E  A$elementsbuilder$4845             elementsbuilder
     0000230E  C$elementsbuilder.c$683$2_0$259    elementsbuilder
     00002311  A$elementsbuilder$4846             elementsbuilder
     00002313  A$elementsbuilder$4847             elementsbuilder
     00002315  A$elementsbuilder$4848             elementsbuilder
     00002316  A$elementsbuilder$4849             elementsbuilder
     00002318  A$elementsbuilder$4850             elementsbuilder
     00002319  A$elementsbuilder$4855             elementsbuilder
     00002319  C$elementsbuilder.c$682$2_0$259    elementsbuilder
     0000231C  A$elementsbuilder$4856             elementsbuilder
     0000231E  A$elementsbuilder$4857             elementsbuilder
     00002320  A$elementsbuilder$4858             elementsbuilder
     00002321  A$elementsbuilder$4859             elementsbuilder
     00002323  A$elementsbuilder$4860             elementsbuilder
     00002324  A$elementsbuilder$4862             elementsbuilder
     00002327  A$elementsbuilder$4863             elementsbuilder
     00002328  A$elementsbuilder$4864             elementsbuilder
     0000232A  A$elementsbuilder$4865             elementsbuilder
     0000232B  A$elementsbuilder$4866             elementsbuilder
     0000232C  A$elementsbuilder$4867             elementsbuilder
     0000232E  A$elementsbuilder$4868             elementsbuilder
     0000232F  A$elementsbuilder$4869             elementsbuilder
     00002330  A$elementsbuilder$4872             elementsbuilder
     00002331  A$elementsbuilder$4875             elementsbuilder
     00002332  A$elementsbuilder$4876             elementsbuilder
     00002334  A$elementsbuilder$4877             elementsbuilder
     00002335  A$elementsbuilder$4878             elementsbuilder
     00002336  A$elementsbuilder$4879             elementsbuilder
     00002337  A$elementsbuilder$4880             elementsbuilder
     00002338  A$elementsbuilder$4881             elementsbuilder
     00002339  A$elementsbuilder$4882             elementsbuilder
     0000233C  A$elementsbuilder$4883             elementsbuilder
     0000233E  A$elementsbuilder$4884             elementsbuilder
     00002341  A$elementsbuilder$4889             elementsbuilder
     00002341  C$elementsbuilder.c$692$1_0$257    elementsbuilder
     00002343  A$elementsbuilder$4890             elementsbuilder
     00002344  A$elementsbuilder$4891             elementsbuilder
     00002346  A$elementsbuilder$4892             elementsbuilder
     00002349  A$elementsbuilder$4896             elementsbuilder
     00002349  C$elementsbuilder.c$696$2_0$260    elementsbuilder
     0000234C  A$elementsbuilder$4897             elementsbuilder
     0000234D  A$elementsbuilder$4898             elementsbuilder
     0000234F  A$elementsbuilder$4899             elementsbuilder
ASxxxx Linker V03.00 + NoICE + sdld,  page 122.
Hexadecimal  [32-Bits]

Area                                    Addr        Size        Decimal Bytes (Attributes)
--------------------------------        ----        ----        ------- ----- ------------
_CODE                               00000200    00003D11 =       15633. bytes (REL,CON)

      Value  Global                              Global Defined In Module
      -----  --------------------------------   ------------------------
     00002350  A$elementsbuilder$4900             elementsbuilder
     00002351  A$elementsbuilder$4901             elementsbuilder
     00002353  A$elementsbuilder$4902             elementsbuilder
     00002354  A$elementsbuilder$4903             elementsbuilder
     00002355  A$elementsbuilder$4906             elementsbuilder
     00002356  A$elementsbuilder$4909             elementsbuilder
     00002357  A$elementsbuilder$4910             elementsbuilder
     00002359  A$elementsbuilder$4911             elementsbuilder
     0000235A  A$elementsbuilder$4912             elementsbuilder
     0000235B  A$elementsbuilder$4913             elementsbuilder
     0000235C  A$elementsbuilder$4914             elementsbuilder
     0000235D  A$elementsbuilder$4915             elementsbuilder
     0000235E  A$elementsbuilder$4916             elementsbuilder
     00002361  A$elementsbuilder$4917             elementsbuilder
     00002363  A$elementsbuilder$4921             elementsbuilder
     00002363  C$elementsbuilder.c$708$2_0$260    elementsbuilder
     00002366  A$elementsbuilder$4922             elementsbuilder
     00002368  A$elementsbuilder$4923             elementsbuilder
     00002369  A$elementsbuilder$4927             elementsbuilder
     00002369  C$elementsbuilder.c$707$2_0$260    elementsbuilder
     0000236C  A$elementsbuilder$4928             elementsbuilder
     0000236D  A$elementsbuilder$4929             elementsbuilder
     0000236F  A$elementsbuilder$4930             elementsbuilder
     00002370  A$elementsbuilder$4931             elementsbuilder
     00002371  A$elementsbuilder$4932             elementsbuilder
     00002372  A$elementsbuilder$4933             elementsbuilder
     00002373  A$elementsbuilder$4937             elementsbuilder
     00002373  C$elementsbuilder.c$706$2_0$260    elementsbuilder
     00002376  A$elementsbuilder$4938             elementsbuilder
     00002378  A$elementsbuilder$4939             elementsbuilder
     0000237A  A$elementsbuilder$4940             elementsbuilder
     0000237B  A$elementsbuilder$4941             elementsbuilder
     0000237D  A$elementsbuilder$4942             elementsbuilder
     0000237E  A$elementsbuilder$4944             elementsbuilder
     00002381  A$elementsbuilder$4945             elementsbuilder
     00002382  A$elementsbuilder$4946             elementsbuilder
     00002384  A$elementsbuilder$4947             elementsbuilder
     00002385  A$elementsbuilder$4948             elementsbuilder
     00002386  A$elementsbuilder$4949             elementsbuilder
     00002388  A$elementsbuilder$4950             elementsbuilder
     00002389  A$elementsbuilder$4951             elementsbuilder
     0000238A  A$elementsbuilder$4954             elementsbuilder
     0000238B  A$elementsbuilder$4957             elementsbuilder
     0000238C  A$elementsbuilder$4958             elementsbuilder
     0000238E  A$elementsbuilder$4959             elementsbuilder
     0000238F  A$elementsbuilder$4960             elementsbuilder
     00002390  A$elementsbuilder$4961             elementsbuilder
     00002391  A$elementsbuilder$4962             elementsbuilder
     00002392  A$elementsbuilder$4963             elementsbuilder
     00002393  A$elementsbuilder$4964             elementsbuilder
     00002396  A$elementsbuilder$4965             elementsbuilder
ASxxxx Linker V03.00 + NoICE + sdld,  page 123.
Hexadecimal  [32-Bits]

Area                                    Addr        Size        Decimal Bytes (Attributes)
--------------------------------        ----        ----        ------- ----- ------------
_CODE                               00000200    00003D11 =       15633. bytes (REL,CON)

      Value  Global                              Global Defined In Module
      -----  --------------------------------   ------------------------
     00002398  A$elementsbuilder$4969             elementsbuilder
     00002398  C$elementsbuilder.c$718$2_0$260    elementsbuilder
     0000239B  A$elementsbuilder$4970             elementsbuilder
     0000239D  A$elementsbuilder$4971             elementsbuilder
     0000239E  A$elementsbuilder$4975             elementsbuilder
     0000239E  C$elementsbuilder.c$717$2_0$260    elementsbuilder
     000023A1  A$elementsbuilder$4976             elementsbuilder
     000023A3  A$elementsbuilder$4977             elementsbuilder
     000023A5  A$elementsbuilder$4978             elementsbuilder
     000023A6  A$elementsbuilder$4979             elementsbuilder
     000023A8  A$elementsbuilder$4980             elementsbuilder
     000023A9  A$elementsbuilder$4985             elementsbuilder
     000023A9  C$elementsbuilder.c$716$2_0$260    elementsbuilder
     000023AC  A$elementsbuilder$4986             elementsbuilder
     000023AE  A$elementsbuilder$4987             elementsbuilder
     000023B0  A$elementsbuilder$4988             elementsbuilder
     000023B1  A$elementsbuilder$4989             elementsbuilder
     000023B3  A$elementsbuilder$4990             elementsbuilder
     000023B4  A$elementsbuilder$4992             elementsbuilder
     000023B7  A$elementsbuilder$4993             elementsbuilder
     000023B8  A$elementsbuilder$4994             elementsbuilder
     000023BA  A$elementsbuilder$4995             elementsbuilder
     000023BB  A$elementsbuilder$4996             elementsbuilder
     000023BC  A$elementsbuilder$4997             elementsbuilder
     000023BE  A$elementsbuilder$4998             elementsbuilder
     000023BF  A$elementsbuilder$4999             elementsbuilder
     000023C0  A$elementsbuilder$5002             elementsbuilder
     000023C1  A$elementsbuilder$5005             elementsbuilder
     000023C2  A$elementsbuilder$5006             elementsbuilder
     000023C4  A$elementsbuilder$5007             elementsbuilder
     000023C5  A$elementsbuilder$5008             elementsbuilder
     000023C6  A$elementsbuilder$5009             elementsbuilder
     000023C7  A$elementsbuilder$5010             elementsbuilder
     000023C8  A$elementsbuilder$5011             elementsbuilder
     000023C9  A$elementsbuilder$5012             elementsbuilder
     000023CC  A$elementsbuilder$5013             elementsbuilder
     000023CE  A$elementsbuilder$5014             elementsbuilder
     000023D0  A$elementsbuilder$5019             elementsbuilder
     000023D0  C$elementsbuilder.c$729$2_0$261    elementsbuilder
     000023D2  A$elementsbuilder$5020             elementsbuilder
     000023D3  A$elementsbuilder$5021             elementsbuilder
     000023D5  A$elementsbuilder$5025             elementsbuilder
     000023D5  C$elementsbuilder.c$728$2_0$261    elementsbuilder
     000023D8  A$elementsbuilder$5026             elementsbuilder
     000023D9  A$elementsbuilder$5027             elementsbuilder
     000023DB  A$elementsbuilder$5028             elementsbuilder
     000023DC  A$elementsbuilder$5029             elementsbuilder
     000023DD  A$elementsbuilder$5030             elementsbuilder
     000023DF  A$elementsbuilder$5031             elementsbuilder
     000023E0  A$elementsbuilder$5032             elementsbuilder
     000023E1  A$elementsbuilder$5035             elementsbuilder
ASxxxx Linker V03.00 + NoICE + sdld,  page 124.
Hexadecimal  [32-Bits]

Area                                    Addr        Size        Decimal Bytes (Attributes)
--------------------------------        ----        ----        ------- ----- ------------
_CODE                               00000200    00003D11 =       15633. bytes (REL,CON)

      Value  Global                              Global Defined In Module
      -----  --------------------------------   ------------------------
     000023E2  A$elementsbuilder$5038             elementsbuilder
     000023E3  A$elementsbuilder$5039             elementsbuilder
     000023E5  A$elementsbuilder$5040             elementsbuilder
     000023E6  A$elementsbuilder$5041             elementsbuilder
     000023E7  A$elementsbuilder$5042             elementsbuilder
     000023E8  A$elementsbuilder$5043             elementsbuilder
     000023E9  A$elementsbuilder$5044             elementsbuilder
     000023EA  A$elementsbuilder$5045             elementsbuilder
     000023ED  A$elementsbuilder$5046             elementsbuilder
     000023EF  A$elementsbuilder$5051             elementsbuilder
     000023F1  A$elementsbuilder$5056             elementsbuilder
     000023F1  C$elementsbuilder.c$737$1_0$257    elementsbuilder
     000023F1  XG$createShoot$0$0                 elementsbuilder
     000023F2  A$elementsbuilder$5069             elementsbuilder
     000023F2  C$elementsbuilder.c$741$1_0$263    elementsbuilder
     000023F2  C$elementsbuilder.c$742$1_0$263    elementsbuilder
     000023F2  G$timeCreateShoot$0$0              elementsbuilder
     000023F2  _timeCreateShoot                   elementsbuilder
     000023F5  A$elementsbuilder$5070             elementsbuilder
     000023F6  A$elementsbuilder$5071             elementsbuilder
     000023F8  A$elementsbuilder$5072             elementsbuilder
     000023FA  A$elementsbuilder$5076             elementsbuilder
     000023FA  C$elementsbuilder.c$744$2_0$264    elementsbuilder
     000023FB  A$elementsbuilder$5077             elementsbuilder
     000023FC  A$elementsbuilder$5082             elementsbuilder
     000023FC  C$elementsbuilder.c$747$2_0$265    elementsbuilder
     000023FE  A$elementsbuilder$5083             elementsbuilder
     000023FF  A$elementsbuilder$5084             elementsbuilder
     00002400  A$elementsbuilder$5085             elementsbuilder
     00002403  A$elementsbuilder$5086             elementsbuilder
     00002404  A$elementsbuilder$5090             elementsbuilder
     00002404  C$elementsbuilder.c$748$2_0$265    elementsbuilder
     00002406  A$elementsbuilder$5091             elementsbuilder
     00002407  A$elementsbuilder$5092             elementsbuilder
     00002408  A$elementsbuilder$5093             elementsbuilder
     00002409  A$elementsbuilder$5094             elementsbuilder
     0000240A  A$elementsbuilder$5095             elementsbuilder
     0000240D  A$elementsbuilder$5096             elementsbuilder
     0000240E  A$elementsbuilder$5100             elementsbuilder
     0000240E  C$elementsbuilder.c$749$2_0$265    elementsbuilder
     00002411  A$elementsbuilder$5101             elementsbuilder
     00002413  A$elementsbuilder$5109             elementsbuilder
     00002413  C$elementsbuilder.c$751$1_0$263    elementsbuilder
     00002413  XG$timeCreateShoot$0$0             elementsbuilder
     00002414  A$elementsbuilder$5119             elementsbuilder
     00002414  C$elementsbuilder.c$755$1_0$268    elementsbuilder
     00002414  G$clear_world_tiles$0$0            elementsbuilder
     00002414  _clear_world_tiles                 elementsbuilder
     00002416  A$elementsbuilder$5123             elementsbuilder
     00002416  C$elementsbuilder.c$757$2_0$268    elementsbuilder
     00002418  A$elementsbuilder$5124             elementsbuilder
ASxxxx Linker V03.00 + NoICE + sdld,  page 125.
Hexadecimal  [32-Bits]

Area                                    Addr        Size        Decimal Bytes (Attributes)
--------------------------------        ----        ----        ------- ----- ------------
_CODE                               00000200    00003D11 =       15633. bytes (REL,CON)

      Value  Global                              Global Defined In Module
      -----  --------------------------------   ------------------------
     0000241A  A$elementsbuilder$5128             elementsbuilder
     0000241A  C$elementsbuilder.c$759$2_0$268    elementsbuilder
     0000241C  A$elementsbuilder$5132             elementsbuilder
     0000241F  A$elementsbuilder$5133             elementsbuilder
     00002420  A$elementsbuilder$5135             elementsbuilder
     00002421  A$elementsbuilder$5136             elementsbuilder
     00002423  A$elementsbuilder$5137             elementsbuilder
     00002424  A$elementsbuilder$5138             elementsbuilder
     00002425  A$elementsbuilder$5139             elementsbuilder
     00002426  A$elementsbuilder$5140             elementsbuilder
     00002427  A$elementsbuilder$5141             elementsbuilder
     00002429  A$elementsbuilder$5142             elementsbuilder
     0000242C  A$elementsbuilder$5143             elementsbuilder
     0000242E  A$elementsbuilder$5144             elementsbuilder
     0000242F  A$elementsbuilder$5145             elementsbuilder
     00002430  A$elementsbuilder$5146             elementsbuilder
     00002433  A$elementsbuilder$5150             elementsbuilder
     00002433  C$elementsbuilder.c$762$2_0$268    elementsbuilder
     00002434  A$elementsbuilder$5151             elementsbuilder
     00002435  A$elementsbuilder$5152             elementsbuilder
     00002436  A$elementsbuilder$5153             elementsbuilder
     00002437  A$elementsbuilder$5154             elementsbuilder
     00002438  A$elementsbuilder$5156             elementsbuilder
     0000243A  A$elementsbuilder$5157             elementsbuilder
     0000243B  A$elementsbuilder$5158             elementsbuilder
     0000243D  A$elementsbuilder$5159             elementsbuilder
     0000243E  A$elementsbuilder$5160             elementsbuilder
     00002440  A$elementsbuilder$5161             elementsbuilder
     00002441  A$elementsbuilder$5162             elementsbuilder
     00002443  A$elementsbuilder$5163             elementsbuilder
     00002445  A$elementsbuilder$5164             elementsbuilder
     00002447  A$elementsbuilder$5165             elementsbuilder
     00002449  A$elementsbuilder$5166             elementsbuilder
     0000244B  A$elementsbuilder$5167             elementsbuilder
     0000244C  A$elementsbuilder$5168             elementsbuilder
     0000244E  A$elementsbuilder$5170             elementsbuilder
     00002450  A$elementsbuilder$5171             elementsbuilder
     00002452  A$elementsbuilder$5172             elementsbuilder
     00002453  A$elementsbuilder$5174             elementsbuilder
     00002456  A$elementsbuilder$5175             elementsbuilder
     00002458  A$elementsbuilder$5176             elementsbuilder
     00002459  A$elementsbuilder$5177             elementsbuilder
     0000245A  A$elementsbuilder$5178             elementsbuilder
     0000245D  A$elementsbuilder$5182             elementsbuilder
     0000245D  C$elementsbuilder.c$763$5_0$271    elementsbuilder
     0000245E  A$elementsbuilder$5183             elementsbuilder
     0000245F  A$elementsbuilder$5184             elementsbuilder
     00002460  A$elementsbuilder$5185             elementsbuilder
     00002462  A$elementsbuilder$5186             elementsbuilder
     00002463  A$elementsbuilder$5187             elementsbuilder
     00002465  A$elementsbuilder$5188             elementsbuilder
ASxxxx Linker V03.00 + NoICE + sdld,  page 126.
Hexadecimal  [32-Bits]

Area                                    Addr        Size        Decimal Bytes (Attributes)
--------------------------------        ----        ----        ------- ----- ------------
_CODE                               00000200    00003D11 =       15633. bytes (REL,CON)

      Value  Global                              Global Defined In Module
      -----  --------------------------------   ------------------------
     00002466  A$elementsbuilder$5189             elementsbuilder
     00002468  A$elementsbuilder$5190             elementsbuilder
     00002469  A$elementsbuilder$5191             elementsbuilder
     0000246A  A$elementsbuilder$5192             elementsbuilder
     0000246B  A$elementsbuilder$5193             elementsbuilder
     0000246D  A$elementsbuilder$5194             elementsbuilder
     0000246E  A$elementsbuilder$5195             elementsbuilder
     0000246F  A$elementsbuilder$5196             elementsbuilder
     00002470  A$elementsbuilder$5197             elementsbuilder
     00002473  A$elementsbuilder$5198             elementsbuilder
     00002474  A$elementsbuilder$5202             elementsbuilder
     00002474  C$elementsbuilder.c$764$5_0$271    elementsbuilder
     00002476  A$elementsbuilder$5203             elementsbuilder
     00002477  A$elementsbuilder$5204             elementsbuilder
     00002478  A$elementsbuilder$5205             elementsbuilder
     0000247A  A$elementsbuilder$5209             elementsbuilder
     0000247A  C$elementsbuilder.c$765$6_0$272    elementsbuilder
     0000247C  A$elementsbuilder$5210             elementsbuilder
     0000247D  A$elementsbuilder$5211             elementsbuilder
     0000247E  A$elementsbuilder$5212             elementsbuilder
     00002480  A$elementsbuilder$5213             elementsbuilder
     00002481  A$elementsbuilder$5214             elementsbuilder
     00002482  A$elementsbuilder$5215             elementsbuilder
     00002483  A$elementsbuilder$5216             elementsbuilder
     00002484  A$elementsbuilder$5217             elementsbuilder
     00002485  A$elementsbuilder$5218             elementsbuilder
     00002486  A$elementsbuilder$5219             elementsbuilder
     00002487  A$elementsbuilder$5220             elementsbuilder
     00002488  A$elementsbuilder$5221             elementsbuilder
     00002489  A$elementsbuilder$5222             elementsbuilder
     0000248C  A$elementsbuilder$5223             elementsbuilder
     0000248D  A$elementsbuilder$5224             elementsbuilder
     0000248E  A$elementsbuilder$5225             elementsbuilder
     0000248F  A$elementsbuilder$5226             elementsbuilder
     00002490  A$elementsbuilder$5227             elementsbuilder
     00002492  A$elementsbuilder$5228             elementsbuilder
     00002493  A$elementsbuilder$5229             elementsbuilder
     00002494  A$elementsbuilder$5230             elementsbuilder
     00002495  A$elementsbuilder$5231             elementsbuilder
     00002498  A$elementsbuilder$5232             elementsbuilder
     0000249A  A$elementsbuilder$5236             elementsbuilder
     0000249A  C$elementsbuilder.c$766$6_0$272    elementsbuilder
     0000249C  A$elementsbuilder$5237             elementsbuilder
     0000249D  A$elementsbuilder$5238             elementsbuilder
     0000249E  A$elementsbuilder$5239             elementsbuilder
     0000249F  A$elementsbuilder$5240             elementsbuilder
     000024A1  A$elementsbuilder$5241             elementsbuilder
     000024A2  A$elementsbuilder$5242             elementsbuilder
     000024A3  A$elementsbuilder$5243             elementsbuilder
     000024A4  A$elementsbuilder$5244             elementsbuilder
     000024A5  A$elementsbuilder$5245             elementsbuilder
ASxxxx Linker V03.00 + NoICE + sdld,  page 127.
Hexadecimal  [32-Bits]

Area                                    Addr        Size        Decimal Bytes (Attributes)
--------------------------------        ----        ----        ------- ----- ------------
_CODE                               00000200    00003D11 =       15633. bytes (REL,CON)

      Value  Global                              Global Defined In Module
      -----  --------------------------------   ------------------------
     000024A6  A$elementsbuilder$5246             elementsbuilder
     000024A9  A$elementsbuilder$5247             elementsbuilder
     000024AA  A$elementsbuilder$5248             elementsbuilder
     000024AB  A$elementsbuilder$5249             elementsbuilder
     000024AC  A$elementsbuilder$5250             elementsbuilder
     000024AD  A$elementsbuilder$5251             elementsbuilder
     000024AE  A$elementsbuilder$5252             elementsbuilder
     000024B1  A$elementsbuilder$5253             elementsbuilder
     000024B3  A$elementsbuilder$5257             elementsbuilder
     000024B3  C$elementsbuilder.c$767$6_0$272    elementsbuilder
     000024B5  A$elementsbuilder$5258             elementsbuilder
     000024B6  A$elementsbuilder$5259             elementsbuilder
     000024B7  A$elementsbuilder$5260             elementsbuilder
     000024B8  A$elementsbuilder$5261             elementsbuilder
     000024B9  A$elementsbuilder$5262             elementsbuilder
     000024BA  A$elementsbuilder$5263             elementsbuilder
     000024BB  A$elementsbuilder$5264             elementsbuilder
     000024BC  A$elementsbuilder$5265             elementsbuilder
     000024BD  A$elementsbuilder$5266             elementsbuilder
     000024BE  A$elementsbuilder$5267             elementsbuilder
     000024C1  A$elementsbuilder$5268             elementsbuilder
     000024C2  A$elementsbuilder$5269             elementsbuilder
     000024C4  A$elementsbuilder$5270             elementsbuilder
     000024C5  A$elementsbuilder$5271             elementsbuilder
     000024C6  A$elementsbuilder$5272             elementsbuilder
     000024C7  A$elementsbuilder$5273             elementsbuilder
     000024C9  A$elementsbuilder$5274             elementsbuilder
     000024CA  A$elementsbuilder$5275             elementsbuilder
     000024CB  A$elementsbuilder$5276             elementsbuilder
     000024CC  A$elementsbuilder$5277             elementsbuilder
     000024CF  A$elementsbuilder$5278             elementsbuilder
     000024D1  A$elementsbuilder$5282             elementsbuilder
     000024D1  C$elementsbuilder.c$768$6_0$272    elementsbuilder
     000024D3  A$elementsbuilder$5283             elementsbuilder
     000024D4  A$elementsbuilder$5284             elementsbuilder
     000024D5  A$elementsbuilder$5285             elementsbuilder
     000024D6  A$elementsbuilder$5286             elementsbuilder
     000024D7  A$elementsbuilder$5287             elementsbuilder
     000024D8  A$elementsbuilder$5288             elementsbuilder
     000024DB  A$elementsbuilder$5289             elementsbuilder
     000024DC  A$elementsbuilder$5290             elementsbuilder
     000024DD  A$elementsbuilder$5291             elementsbuilder
     000024DE  A$elementsbuilder$5292             elementsbuilder
     000024DF  A$elementsbuilder$5293             elementsbuilder
     000024E0  A$elementsbuilder$5294             elementsbuilder
     000024E3  A$elementsbuilder$5295             elementsbuilder
     000024E5  A$elementsbuilder$5299             elementsbuilder
     000024E5  C$elementsbuilder.c$769$6_0$272    elementsbuilder
     000024E6  A$elementsbuilder$5300             elementsbuilder
     000024E8  A$elementsbuilder$5301             elementsbuilder
     000024E9  A$elementsbuilder$5302             elementsbuilder
ASxxxx Linker V03.00 + NoICE + sdld,  page 128.
Hexadecimal  [32-Bits]

Area                                    Addr        Size        Decimal Bytes (Attributes)
--------------------------------        ----        ----        ------- ----- ------------
_CODE                               00000200    00003D11 =       15633. bytes (REL,CON)

      Value  Global                              Global Defined In Module
      -----  --------------------------------   ------------------------
     000024EA  A$elementsbuilder$5303             elementsbuilder
     000024ED  A$elementsbuilder$5304             elementsbuilder
     000024EE  A$elementsbuilder$5305             elementsbuilder
     000024EF  A$elementsbuilder$5309             elementsbuilder
     000024EF  C$elementsbuilder.c$770$6_0$272    elementsbuilder
     000024F1  A$elementsbuilder$5310             elementsbuilder
     000024F3  A$elementsbuilder$5315             elementsbuilder
     000024F3  C$elementsbuilder.c$762$4_0$270    elementsbuilder
     000024F5  A$elementsbuilder$5316             elementsbuilder
     000024F6  A$elementsbuilder$5317             elementsbuilder
     000024F9  A$elementsbuilder$5318             elementsbuilder
     000024FA  A$elementsbuilder$5319             elementsbuilder
     000024FB  A$elementsbuilder$5320             elementsbuilder
     000024FE  A$elementsbuilder$5325             elementsbuilder
     000024FE  C$elementsbuilder.c$761$2_0$268    elementsbuilder
     000024FF  A$elementsbuilder$5326             elementsbuilder
     00002502  A$elementsbuilder$5331             elementsbuilder
     00002504  A$elementsbuilder$5336             elementsbuilder
     00002504  C$elementsbuilder.c$774$2_0$268    elementsbuilder
     00002504  XG$clear_world_tiles$0$0           elementsbuilder
     00002505  A$elementsbuilder$5349             elementsbuilder
     00002505  C$elementsbuilder.c$779$2_0$274    elementsbuilder
     00002505  C$elementsbuilder.c$781$1_0$274    elementsbuilder
     00002505  G$processBonusTilesBackground$0$   elementsbuilder
     00002505  _processBonusTilesBackground       elementsbuilder
     00002507  A$elementsbuilder$5350             elementsbuilder
     00002508  A$elementsbuilder$5351             elementsbuilder
     0000250A  A$elementsbuilder$5352             elementsbuilder
     0000250B  A$elementsbuilder$5353             elementsbuilder
     0000250E  A$elementsbuilder$5354             elementsbuilder
     0000250F  A$elementsbuilder$5355             elementsbuilder
     00002512  A$elementsbuilder$5356             elementsbuilder
     00002514  A$elementsbuilder$5360             elementsbuilder
     00002514  C$elementsbuilder.c$783$1_0$274    elementsbuilder
     00002516  A$elementsbuilder$5361             elementsbuilder
     00002517  A$elementsbuilder$5362             elementsbuilder
     00002519  A$elementsbuilder$5363             elementsbuilder
     0000251B  A$elementsbuilder$5364             elementsbuilder
     0000251D  A$elementsbuilder$5365             elementsbuilder
     0000251E  A$elementsbuilder$5366             elementsbuilder
     00002520  A$elementsbuilder$5367             elementsbuilder
     00002522  A$elementsbuilder$5368             elementsbuilder
     00002524  A$elementsbuilder$5369             elementsbuilder
     00002525  A$elementsbuilder$5370             elementsbuilder
     00002527  A$elementsbuilder$5371             elementsbuilder
     00002529  A$elementsbuilder$5372             elementsbuilder
     0000252B  A$elementsbuilder$5373             elementsbuilder
     0000252C  A$elementsbuilder$5374             elementsbuilder
     0000252E  A$elementsbuilder$5375             elementsbuilder
     00002530  A$elementsbuilder$5380             elementsbuilder
     00002530  C$elementsbuilder.c$784$2_0$275    elementsbuilder
ASxxxx Linker V03.00 + NoICE + sdld,  page 129.
Hexadecimal  [32-Bits]

Area                                    Addr        Size        Decimal Bytes (Attributes)
--------------------------------        ----        ----        ------- ----- ------------
_CODE                               00000200    00003D11 =       15633. bytes (REL,CON)

      Value  Global                              Global Defined In Module
      -----  --------------------------------   ------------------------
     00002533  A$elementsbuilder$5381             elementsbuilder
     00002535  A$elementsbuilder$5385             elementsbuilder
     00002535  C$elementsbuilder.c$785$2_0$275    elementsbuilder
     00002538  A$elementsbuilder$5386             elementsbuilder
     00002539  A$elementsbuilder$5387             elementsbuilder
     0000253C  A$elementsbuilder$5388             elementsbuilder
     0000253D  A$elementsbuilder$5389             elementsbuilder
     00002540  A$elementsbuilder$5390             elementsbuilder
     00002542  A$elementsbuilder$5394             elementsbuilder
     00002542  C$elementsbuilder.c$786$2_0$275    elementsbuilder
     00002544  A$elementsbuilder$5395             elementsbuilder
     00002545  A$elementsbuilder$5400             elementsbuilder
     00002545  C$elementsbuilder.c$788$1_0$274    elementsbuilder
     00002547  A$elementsbuilder$5401             elementsbuilder
     00002548  A$elementsbuilder$5402             elementsbuilder
     0000254A  A$elementsbuilder$5403             elementsbuilder
     0000254C  A$elementsbuilder$5404             elementsbuilder
     0000254E  A$elementsbuilder$5405             elementsbuilder
     0000254F  A$elementsbuilder$5406             elementsbuilder
     00002551  A$elementsbuilder$5407             elementsbuilder
     00002553  A$elementsbuilder$5408             elementsbuilder
     00002555  A$elementsbuilder$5409             elementsbuilder
     00002556  A$elementsbuilder$5410             elementsbuilder
     00002558  A$elementsbuilder$5411             elementsbuilder
     0000255A  A$elementsbuilder$5412             elementsbuilder
     0000255C  A$elementsbuilder$5413             elementsbuilder
     0000255D  A$elementsbuilder$5414             elementsbuilder
     0000255F  A$elementsbuilder$5415             elementsbuilder
     00002561  A$elementsbuilder$5420             elementsbuilder
     00002561  C$elementsbuilder.c$789$2_0$276    elementsbuilder
     00002564  A$elementsbuilder$5421             elementsbuilder
     00002566  A$elementsbuilder$5425             elementsbuilder
     00002566  C$elementsbuilder.c$790$2_0$276    elementsbuilder
     00002569  A$elementsbuilder$5426             elementsbuilder
     0000256A  A$elementsbuilder$5427             elementsbuilder
     0000256D  A$elementsbuilder$5428             elementsbuilder
     0000256E  A$elementsbuilder$5429             elementsbuilder
     00002571  A$elementsbuilder$5430             elementsbuilder
     00002573  A$elementsbuilder$5434             elementsbuilder
     00002573  C$elementsbuilder.c$791$2_0$276    elementsbuilder
     00002575  A$elementsbuilder$5435             elementsbuilder
     00002576  A$elementsbuilder$5440             elementsbuilder
     00002576  C$elementsbuilder.c$793$1_0$274    elementsbuilder
     00002578  A$elementsbuilder$5441             elementsbuilder
     00002579  A$elementsbuilder$5442             elementsbuilder
     0000257B  A$elementsbuilder$5443             elementsbuilder
     0000257D  A$elementsbuilder$5444             elementsbuilder
     0000257F  A$elementsbuilder$5445             elementsbuilder
     00002580  A$elementsbuilder$5446             elementsbuilder
     00002582  A$elementsbuilder$5447             elementsbuilder
     00002584  A$elementsbuilder$5448             elementsbuilder
ASxxxx Linker V03.00 + NoICE + sdld,  page 130.
Hexadecimal  [32-Bits]

Area                                    Addr        Size        Decimal Bytes (Attributes)
--------------------------------        ----        ----        ------- ----- ------------
_CODE                               00000200    00003D11 =       15633. bytes (REL,CON)

      Value  Global                              Global Defined In Module
      -----  --------------------------------   ------------------------
     00002586  A$elementsbuilder$5449             elementsbuilder
     00002587  A$elementsbuilder$5450             elementsbuilder
     00002589  A$elementsbuilder$5451             elementsbuilder
     0000258B  A$elementsbuilder$5452             elementsbuilder
     0000258D  A$elementsbuilder$5453             elementsbuilder
     0000258E  A$elementsbuilder$5454             elementsbuilder
     00002590  A$elementsbuilder$5455             elementsbuilder
     00002592  A$elementsbuilder$5460             elementsbuilder
     00002592  C$elementsbuilder.c$794$2_0$277    elementsbuilder
     00002595  A$elementsbuilder$5461             elementsbuilder
     00002597  A$elementsbuilder$5465             elementsbuilder
     00002597  C$elementsbuilder.c$795$2_0$277    elementsbuilder
     0000259A  A$elementsbuilder$5466             elementsbuilder
     0000259B  A$elementsbuilder$5467             elementsbuilder
     0000259E  A$elementsbuilder$5468             elementsbuilder
     0000259F  A$elementsbuilder$5469             elementsbuilder
     000025A2  A$elementsbuilder$5470             elementsbuilder
     000025A4  A$elementsbuilder$5474             elementsbuilder
     000025A4  C$elementsbuilder.c$796$2_0$277    elementsbuilder
     000025A6  A$elementsbuilder$5475             elementsbuilder
     000025A7  A$elementsbuilder$5480             elementsbuilder
     000025A7  C$elementsbuilder.c$798$1_0$274    elementsbuilder
     000025A9  A$elementsbuilder$5481             elementsbuilder
     000025AA  A$elementsbuilder$5482             elementsbuilder
     000025AC  A$elementsbuilder$5483             elementsbuilder
     000025AE  A$elementsbuilder$5484             elementsbuilder
     000025B0  A$elementsbuilder$5485             elementsbuilder
     000025B1  A$elementsbuilder$5486             elementsbuilder
     000025B3  A$elementsbuilder$5487             elementsbuilder
     000025B5  A$elementsbuilder$5488             elementsbuilder
     000025B7  A$elementsbuilder$5489             elementsbuilder
     000025B8  A$elementsbuilder$5490             elementsbuilder
     000025BA  A$elementsbuilder$5491             elementsbuilder
     000025BC  A$elementsbuilder$5492             elementsbuilder
     000025BE  A$elementsbuilder$5493             elementsbuilder
     000025BF  A$elementsbuilder$5494             elementsbuilder
     000025C1  A$elementsbuilder$5495             elementsbuilder
     000025C3  A$elementsbuilder$5500             elementsbuilder
     000025C3  C$elementsbuilder.c$799$2_0$278    elementsbuilder
     000025C6  A$elementsbuilder$5501             elementsbuilder
     000025C8  A$elementsbuilder$5505             elementsbuilder
     000025C8  C$elementsbuilder.c$800$2_0$278    elementsbuilder
     000025CB  A$elementsbuilder$5506             elementsbuilder
     000025CC  A$elementsbuilder$5507             elementsbuilder
     000025CF  A$elementsbuilder$5508             elementsbuilder
     000025D0  A$elementsbuilder$5509             elementsbuilder
     000025D3  A$elementsbuilder$5510             elementsbuilder
     000025D5  A$elementsbuilder$5514             elementsbuilder
     000025D5  C$elementsbuilder.c$801$2_0$278    elementsbuilder
     000025D7  A$elementsbuilder$5515             elementsbuilder
     000025D8  A$elementsbuilder$5520             elementsbuilder
ASxxxx Linker V03.00 + NoICE + sdld,  page 131.
Hexadecimal  [32-Bits]

Area                                    Addr        Size        Decimal Bytes (Attributes)
--------------------------------        ----        ----        ------- ----- ------------
_CODE                               00000200    00003D11 =       15633. bytes (REL,CON)

      Value  Global                              Global Defined In Module
      -----  --------------------------------   ------------------------
     000025D8  C$elementsbuilder.c$804$1_0$274    elementsbuilder
     000025DA  A$elementsbuilder$5521             elementsbuilder
     000025DB  A$elementsbuilder$5529             elementsbuilder
     000025DB  C$elementsbuilder.c$805$1_0$274    elementsbuilder
     000025DB  XG$processBonusTilesBackground$0   elementsbuilder
     000025DC  Felementsbuilder$__str_2$0_0$0     elementsbuilder
     000025E4  A$elementsbuilder$5543             elementsbuilder
     000025E4  C$elementsbuilder.c$809$1_0$280    elementsbuilder
     000025E4  G$actionPlayer$0$0                 elementsbuilder
     000025E4  _actionPlayer                      elementsbuilder
     000025E6  A$elementsbuilder$5547             elementsbuilder
     000025E6  C$elementsbuilder.c$811$1_0$280    elementsbuilder
     000025E9  A$elementsbuilder$5548             elementsbuilder
     000025EB  A$elementsbuilder$5549             elementsbuilder
     000025EC  A$elementsbuilder$5550             elementsbuilder
     000025EE  A$elementsbuilder$5551             elementsbuilder
     000025EF  A$elementsbuilder$5552             elementsbuilder
     000025F0  A$elementsbuilder$5553             elementsbuilder
     000025F1  A$elementsbuilder$5554             elementsbuilder
     000025F2  A$elementsbuilder$5555             elementsbuilder
     000025F3  A$elementsbuilder$5556             elementsbuilder
     000025F4  A$elementsbuilder$5557             elementsbuilder
     000025F6  A$elementsbuilder$5558             elementsbuilder
     000025F7  A$elementsbuilder$5559             elementsbuilder
     000025F8  A$elementsbuilder$5560             elementsbuilder
     000025F9  A$elementsbuilder$5564             elementsbuilder
     000025F9  C$elementsbuilder.c$812$1_0$280    elementsbuilder
     000025FC  A$elementsbuilder$5565             elementsbuilder
     000025FD  A$elementsbuilder$5566             elementsbuilder
     000025FE  A$elementsbuilder$5567             elementsbuilder
     000025FF  A$elementsbuilder$5568             elementsbuilder
     00002601  A$elementsbuilder$5572             elementsbuilder
     00002601  C$elementsbuilder.c$814$1_0$280    elementsbuilder
     00002602  A$elementsbuilder$5573             elementsbuilder
     00002604  A$elementsbuilder$5577             elementsbuilder
     00002604  C$elementsbuilder.c$815$1_0$280    elementsbuilder
     00002605  A$elementsbuilder$5578             elementsbuilder
     00002607  A$elementsbuilder$5582             elementsbuilder
     00002607  C$elementsbuilder.c$817$1_0$280    elementsbuilder
     00002608  A$elementsbuilder$5583             elementsbuilder
     0000260A  A$elementsbuilder$5587             elementsbuilder
     0000260D  A$elementsbuilder$5594             elementsbuilder
     0000260D  C$elementsbuilder.c$819$1_0$280    elementsbuilder
     0000260D  C$elementsbuilder.c$820$1_0$280    elementsbuilder
     0000260F  A$elementsbuilder$5595             elementsbuilder
     00002611  A$elementsbuilder$5596             elementsbuilder
     00002614  A$elementsbuilder$5597             elementsbuilder
     00002615  A$elementsbuilder$5599             elementsbuilder
     00002617  A$elementsbuilder$5600             elementsbuilder
     00002618  A$elementsbuilder$5601             elementsbuilder
     0000261A  A$elementsbuilder$5605             elementsbuilder
ASxxxx Linker V03.00 + NoICE + sdld,  page 132.
Hexadecimal  [32-Bits]

Area                                    Addr        Size        Decimal Bytes (Attributes)
--------------------------------        ----        ----        ------- ----- ------------
_CODE                               00000200    00003D11 =       15633. bytes (REL,CON)

      Value  Global                              Global Defined In Module
      -----  --------------------------------   ------------------------
     0000261A  C$elementsbuilder.c$820$2_0$281    elementsbuilder
     0000261D  A$elementsbuilder$5606             elementsbuilder
     0000261F  A$elementsbuilder$5607             elementsbuilder
     00002620  A$elementsbuilder$5608             elementsbuilder
     00002621  A$elementsbuilder$5609             elementsbuilder
     00002623  A$elementsbuilder$5610             elementsbuilder
     00002624  A$elementsbuilder$5611             elementsbuilder
     00002625  A$elementsbuilder$5612             elementsbuilder
     00002627  A$elementsbuilder$5613             elementsbuilder
     00002628  A$elementsbuilder$5617             elementsbuilder
     00002628  C$elementsbuilder.c$821$2_1$282    elementsbuilder
     0000262A  A$elementsbuilder$5618             elementsbuilder
     0000262B  A$elementsbuilder$5619             elementsbuilder
     0000262D  A$elementsbuilder$5620             elementsbuilder
     0000262F  A$elementsbuilder$5621             elementsbuilder
     00002630  A$elementsbuilder$5622             elementsbuilder
     00002631  A$elementsbuilder$5623             elementsbuilder
     00002632  A$elementsbuilder$5624             elementsbuilder
     00002633  A$elementsbuilder$5625             elementsbuilder
     00002634  A$elementsbuilder$5626             elementsbuilder
     00002635  A$elementsbuilder$5627             elementsbuilder
     00002636  A$elementsbuilder$5628             elementsbuilder
     00002637  A$elementsbuilder$5629             elementsbuilder
     00002638  A$elementsbuilder$5630             elementsbuilder
     00002639  A$elementsbuilder$5631             elementsbuilder
     0000263A  A$elementsbuilder$5632             elementsbuilder
     0000263B  A$elementsbuilder$5633             elementsbuilder
     0000263D  A$elementsbuilder$5634             elementsbuilder
     0000263E  A$elementsbuilder$5635             elementsbuilder
     0000263F  A$elementsbuilder$5636             elementsbuilder
     00002640  A$elementsbuilder$5637             elementsbuilder
     00002642  A$elementsbuilder$5638             elementsbuilder
     00002643  A$elementsbuilder$5639             elementsbuilder
     00002644  A$elementsbuilder$5640             elementsbuilder
     00002645  A$elementsbuilder$5641             elementsbuilder
     00002646  A$elementsbuilder$5642             elementsbuilder
     00002648  A$elementsbuilder$5643             elementsbuilder
     00002649  A$elementsbuilder$5644             elementsbuilder
     0000264A  A$elementsbuilder$5645             elementsbuilder
     0000264B  A$elementsbuilder$5646             elementsbuilder
     0000264C  A$elementsbuilder$5647             elementsbuilder
     0000264F  A$elementsbuilder$5648             elementsbuilder
     00002651  A$elementsbuilder$5649             elementsbuilder
     00002652  A$elementsbuilder$5653             elementsbuilder
     00002652  C$elementsbuilder.c$823$2_1$282    elementsbuilder
     00002653  A$elementsbuilder$5654             elementsbuilder
     00002654  A$elementsbuilder$5655             elementsbuilder
     00002655  A$elementsbuilder$5656             elementsbuilder
     00002656  A$elementsbuilder$5657             elementsbuilder
     00002657  A$elementsbuilder$5658             elementsbuilder
     00002658  A$elementsbuilder$5659             elementsbuilder
ASxxxx Linker V03.00 + NoICE + sdld,  page 133.
Hexadecimal  [32-Bits]

Area                                    Addr        Size        Decimal Bytes (Attributes)
--------------------------------        ----        ----        ------- ----- ------------
_CODE                               00000200    00003D11 =       15633. bytes (REL,CON)

      Value  Global                              Global Defined In Module
      -----  --------------------------------   ------------------------
     00002659  A$elementsbuilder$5660             elementsbuilder
     0000265A  A$elementsbuilder$5661             elementsbuilder
     0000265D  A$elementsbuilder$5662             elementsbuilder
     0000265E  A$elementsbuilder$5663             elementsbuilder
     0000265F  A$elementsbuilder$5664             elementsbuilder
     00002661  A$elementsbuilder$5665             elementsbuilder
     00002662  A$elementsbuilder$5670             elementsbuilder
     00002662  C$elementsbuilder.c$827$1_0$280    elementsbuilder
     00002665  A$elementsbuilder$5671             elementsbuilder
     00002667  A$elementsbuilder$5672             elementsbuilder
     00002669  A$elementsbuilder$5673             elementsbuilder
     0000266C  A$elementsbuilder$5674             elementsbuilder
     0000266E  A$elementsbuilder$5675             elementsbuilder
     0000266F  A$elementsbuilder$5676             elementsbuilder
     00002671  A$elementsbuilder$5677             elementsbuilder
     00002674  A$elementsbuilder$5678             elementsbuilder
     00002676  A$elementsbuilder$5679             elementsbuilder
     00002677  A$elementsbuilder$5680             elementsbuilder
     00002678  A$elementsbuilder$5681             elementsbuilder
     00002679  A$elementsbuilder$5682             elementsbuilder
     0000267B  A$elementsbuilder$5683             elementsbuilder
     0000267C  A$elementsbuilder$5684             elementsbuilder
     0000267D  A$elementsbuilder$5685             elementsbuilder
     0000267E  A$elementsbuilder$5686             elementsbuilder
     0000267F  A$elementsbuilder$5687             elementsbuilder
     00002680  A$elementsbuilder$5688             elementsbuilder
     00002681  A$elementsbuilder$5689             elementsbuilder
     00002683  A$elementsbuilder$5690             elementsbuilder
     00002684  A$elementsbuilder$5691             elementsbuilder
     00002685  A$elementsbuilder$5692             elementsbuilder
     00002686  A$elementsbuilder$5693             elementsbuilder
     00002688  A$elementsbuilder$5694             elementsbuilder
     00002689  A$elementsbuilder$5695             elementsbuilder
     0000268A  A$elementsbuilder$5696             elementsbuilder
     0000268C  A$elementsbuilder$5697             elementsbuilder
     0000268D  A$elementsbuilder$5698             elementsbuilder
     0000268F  A$elementsbuilder$5699             elementsbuilder
     00002690  A$elementsbuilder$5700             elementsbuilder
     00002692  A$elementsbuilder$5701             elementsbuilder
     00002694  A$elementsbuilder$5702             elementsbuilder
     00002696  A$elementsbuilder$5703             elementsbuilder
     00002698  A$elementsbuilder$5704             elementsbuilder
     0000269A  A$elementsbuilder$5705             elementsbuilder
     0000269B  A$elementsbuilder$5706             elementsbuilder
     0000269D  A$elementsbuilder$5708             elementsbuilder
     0000269F  A$elementsbuilder$5709             elementsbuilder
     000026A1  A$elementsbuilder$5710             elementsbuilder
     000026A2  A$elementsbuilder$5712             elementsbuilder
     000026A4  A$elementsbuilder$5716             elementsbuilder
     000026A4  C$elementsbuilder.c$828$2_0$283    elementsbuilder
     000026A7  A$elementsbuilder$5717             elementsbuilder
ASxxxx Linker V03.00 + NoICE + sdld,  page 134.
Hexadecimal  [32-Bits]

Area                                    Addr        Size        Decimal Bytes (Attributes)
--------------------------------        ----        ----        ------- ----- ------------
_CODE                               00000200    00003D11 =       15633. bytes (REL,CON)

      Value  Global                              Global Defined In Module
      -----  --------------------------------   ------------------------
     000026A9  A$elementsbuilder$5718             elementsbuilder
     000026AA  A$elementsbuilder$5722             elementsbuilder
     000026AA  C$elementsbuilder.c$829$2_1$284    elementsbuilder
     000026AC  A$elementsbuilder$5723             elementsbuilder
     000026AD  A$elementsbuilder$5724             elementsbuilder
     000026AE  A$elementsbuilder$5725             elementsbuilder
     000026B0  A$elementsbuilder$5726             elementsbuilder
     000026B2  A$elementsbuilder$5727             elementsbuilder
     000026B3  A$elementsbuilder$5728             elementsbuilder
     000026B5  A$elementsbuilder$5729             elementsbuilder
     000026B6  A$elementsbuilder$5730             elementsbuilder
     000026B7  A$elementsbuilder$5731             elementsbuilder
     000026B8  A$elementsbuilder$5732             elementsbuilder
     000026B9  A$elementsbuilder$5733             elementsbuilder
     000026BA  A$elementsbuilder$5734             elementsbuilder
     000026BB  A$elementsbuilder$5735             elementsbuilder
     000026BD  A$elementsbuilder$5736             elementsbuilder
     000026BE  A$elementsbuilder$5737             elementsbuilder
     000026BF  A$elementsbuilder$5740             elementsbuilder
     000026C0  A$elementsbuilder$5743             elementsbuilder
     000026C1  A$elementsbuilder$5744             elementsbuilder
     000026C3  A$elementsbuilder$5745             elementsbuilder
     000026C4  A$elementsbuilder$5746             elementsbuilder
     000026C5  A$elementsbuilder$5749             elementsbuilder
     000026C6  A$elementsbuilder$5752             elementsbuilder
     000026C7  A$elementsbuilder$5753             elementsbuilder
     000026C8  A$elementsbuilder$5754             elementsbuilder
     000026CB  A$elementsbuilder$5755             elementsbuilder
     000026CD  A$elementsbuilder$5756             elementsbuilder
     000026CE  A$elementsbuilder$5760             elementsbuilder
     000026CE  C$elementsbuilder.c$831$2_1$284    elementsbuilder
     000026CF  A$elementsbuilder$5761             elementsbuilder
     000026D0  A$elementsbuilder$5762             elementsbuilder
     000026D1  A$elementsbuilder$5763             elementsbuilder
     000026D2  A$elementsbuilder$5764             elementsbuilder
     000026D3  A$elementsbuilder$5765             elementsbuilder
     000026D4  A$elementsbuilder$5766             elementsbuilder
     000026D5  A$elementsbuilder$5767             elementsbuilder
     000026D6  A$elementsbuilder$5768             elementsbuilder
     000026D9  A$elementsbuilder$5769             elementsbuilder
     000026DA  A$elementsbuilder$5770             elementsbuilder
     000026DB  A$elementsbuilder$5771             elementsbuilder
     000026DD  A$elementsbuilder$5772             elementsbuilder
     000026DE  A$elementsbuilder$5777             elementsbuilder
     000026DE  C$elementsbuilder.c$835$1_0$280    elementsbuilder
     000026E1  A$elementsbuilder$5778             elementsbuilder
     000026E3  A$elementsbuilder$5779             elementsbuilder
     000026E5  A$elementsbuilder$5780             elementsbuilder
     000026E6  A$elementsbuilder$5781             elementsbuilder
     000026E7  A$elementsbuilder$5782             elementsbuilder
     000026E9  A$elementsbuilder$5783             elementsbuilder
ASxxxx Linker V03.00 + NoICE + sdld,  page 135.
Hexadecimal  [32-Bits]

Area                                    Addr        Size        Decimal Bytes (Attributes)
--------------------------------        ----        ----        ------- ----- ------------
_CODE                               00000200    00003D11 =       15633. bytes (REL,CON)

      Value  Global                              Global Defined In Module
      -----  --------------------------------   ------------------------
     000026EA  A$elementsbuilder$5784             elementsbuilder
     000026EC  A$elementsbuilder$5788             elementsbuilder
     000026EC  C$elementsbuilder.c$836$2_0$285    elementsbuilder
     000026EF  A$elementsbuilder$5789             elementsbuilder
     000026F1  A$elementsbuilder$5790             elementsbuilder
     000026F2  A$elementsbuilder$5791             elementsbuilder
     000026F3  A$elementsbuilder$5792             elementsbuilder
     000026F5  A$elementsbuilder$5793             elementsbuilder
     000026F6  A$elementsbuilder$5794             elementsbuilder
     000026F7  A$elementsbuilder$5795             elementsbuilder
     000026F9  A$elementsbuilder$5796             elementsbuilder
     000026FA  A$elementsbuilder$5800             elementsbuilder
     000026FA  C$elementsbuilder.c$837$2_1$286    elementsbuilder
     000026FC  A$elementsbuilder$5801             elementsbuilder
     000026FD  A$elementsbuilder$5802             elementsbuilder
     000026FF  A$elementsbuilder$5803             elementsbuilder
     00002701  A$elementsbuilder$5804             elementsbuilder
     00002702  A$elementsbuilder$5805             elementsbuilder
     00002703  A$elementsbuilder$5806             elementsbuilder
     00002705  A$elementsbuilder$5807             elementsbuilder
     00002706  A$elementsbuilder$5808             elementsbuilder
     00002707  A$elementsbuilder$5809             elementsbuilder
     00002708  A$elementsbuilder$5810             elementsbuilder
     0000270A  A$elementsbuilder$5811             elementsbuilder
     0000270B  A$elementsbuilder$5812             elementsbuilder
     0000270C  A$elementsbuilder$5813             elementsbuilder
     0000270D  A$elementsbuilder$5814             elementsbuilder
     0000270E  A$elementsbuilder$5815             elementsbuilder
     0000270F  A$elementsbuilder$5816             elementsbuilder
     00002710  A$elementsbuilder$5817             elementsbuilder
     00002711  A$elementsbuilder$5818             elementsbuilder
     00002712  A$elementsbuilder$5819             elementsbuilder
     00002714  A$elementsbuilder$5820             elementsbuilder
     00002715  A$elementsbuilder$5821             elementsbuilder
     00002716  A$elementsbuilder$5822             elementsbuilder
     00002717  A$elementsbuilder$5823             elementsbuilder
     00002718  A$elementsbuilder$5824             elementsbuilder
     00002719  A$elementsbuilder$5825             elementsbuilder
     0000271A  A$elementsbuilder$5826             elementsbuilder
     0000271B  A$elementsbuilder$5827             elementsbuilder
     0000271D  A$elementsbuilder$5828             elementsbuilder
     0000271E  A$elementsbuilder$5829             elementsbuilder
     0000271F  A$elementsbuilder$5830             elementsbuilder
     00002720  A$elementsbuilder$5831             elementsbuilder
     00002721  A$elementsbuilder$5832             elementsbuilder
     00002724  A$elementsbuilder$5833             elementsbuilder
     00002726  A$elementsbuilder$5834             elementsbuilder
     00002727  A$elementsbuilder$5838             elementsbuilder
     00002727  C$elementsbuilder.c$839$2_1$286    elementsbuilder
     00002728  A$elementsbuilder$5839             elementsbuilder
     00002729  A$elementsbuilder$5840             elementsbuilder
ASxxxx Linker V03.00 + NoICE + sdld,  page 136.
Hexadecimal  [32-Bits]

Area                                    Addr        Size        Decimal Bytes (Attributes)
--------------------------------        ----        ----        ------- ----- ------------
_CODE                               00000200    00003D11 =       15633. bytes (REL,CON)

      Value  Global                              Global Defined In Module
      -----  --------------------------------   ------------------------
     0000272A  A$elementsbuilder$5841             elementsbuilder
     0000272B  A$elementsbuilder$5842             elementsbuilder
     0000272C  A$elementsbuilder$5843             elementsbuilder
     0000272D  A$elementsbuilder$5844             elementsbuilder
     0000272E  A$elementsbuilder$5845             elementsbuilder
     0000272F  A$elementsbuilder$5846             elementsbuilder
     00002732  A$elementsbuilder$5847             elementsbuilder
     00002733  A$elementsbuilder$5848             elementsbuilder
     00002734  A$elementsbuilder$5849             elementsbuilder
     00002736  A$elementsbuilder$5850             elementsbuilder
     00002737  A$elementsbuilder$5855             elementsbuilder
     00002737  C$elementsbuilder.c$843$1_0$280    elementsbuilder
     0000273A  A$elementsbuilder$5856             elementsbuilder
     0000273C  A$elementsbuilder$5857             elementsbuilder
     0000273E  A$elementsbuilder$5858             elementsbuilder
     0000273F  A$elementsbuilder$5859             elementsbuilder
     00002741  A$elementsbuilder$5860             elementsbuilder
     00002742  A$elementsbuilder$5861             elementsbuilder
     00002744  A$elementsbuilder$5862             elementsbuilder
     00002747  A$elementsbuilder$5863             elementsbuilder
     00002749  A$elementsbuilder$5864             elementsbuilder
     0000274A  A$elementsbuilder$5865             elementsbuilder
     0000274B  A$elementsbuilder$5866             elementsbuilder
     0000274C  A$elementsbuilder$5867             elementsbuilder
     0000274E  A$elementsbuilder$5868             elementsbuilder
     0000274F  A$elementsbuilder$5869             elementsbuilder
     00002750  A$elementsbuilder$5870             elementsbuilder
     00002751  A$elementsbuilder$5871             elementsbuilder
     00002752  A$elementsbuilder$5872             elementsbuilder
     00002753  A$elementsbuilder$5873             elementsbuilder
     00002754  A$elementsbuilder$5874             elementsbuilder
     00002756  A$elementsbuilder$5875             elementsbuilder
     00002757  A$elementsbuilder$5876             elementsbuilder
     00002758  A$elementsbuilder$5877             elementsbuilder
     00002759  A$elementsbuilder$5878             elementsbuilder
     0000275B  A$elementsbuilder$5879             elementsbuilder
     0000275C  A$elementsbuilder$5880             elementsbuilder
     0000275D  A$elementsbuilder$5881             elementsbuilder
     0000275F  A$elementsbuilder$5882             elementsbuilder
     00002760  A$elementsbuilder$5883             elementsbuilder
     00002762  A$elementsbuilder$5884             elementsbuilder
     00002763  A$elementsbuilder$5885             elementsbuilder
     00002765  A$elementsbuilder$5886             elementsbuilder
     00002767  A$elementsbuilder$5887             elementsbuilder
     00002769  A$elementsbuilder$5888             elementsbuilder
     0000276B  A$elementsbuilder$5889             elementsbuilder
     0000276D  A$elementsbuilder$5890             elementsbuilder
     0000276E  A$elementsbuilder$5891             elementsbuilder
     00002770  A$elementsbuilder$5893             elementsbuilder
     00002772  A$elementsbuilder$5894             elementsbuilder
     00002774  A$elementsbuilder$5895             elementsbuilder
ASxxxx Linker V03.00 + NoICE + sdld,  page 137.
Hexadecimal  [32-Bits]

Area                                    Addr        Size        Decimal Bytes (Attributes)
--------------------------------        ----        ----        ------- ----- ------------
_CODE                               00000200    00003D11 =       15633. bytes (REL,CON)

      Value  Global                              Global Defined In Module
      -----  --------------------------------   ------------------------
     00002775  A$elementsbuilder$5897             elementsbuilder
     00002777  A$elementsbuilder$5901             elementsbuilder
     00002777  C$elementsbuilder.c$844$2_0$287    elementsbuilder
     0000277A  A$elementsbuilder$5902             elementsbuilder
     0000277C  A$elementsbuilder$5903             elementsbuilder
     0000277D  A$elementsbuilder$5907             elementsbuilder
     0000277D  C$elementsbuilder.c$845$2_1$288    elementsbuilder
     0000277F  A$elementsbuilder$5908             elementsbuilder
     00002780  A$elementsbuilder$5909             elementsbuilder
     00002781  A$elementsbuilder$5910             elementsbuilder
     00002783  A$elementsbuilder$5911             elementsbuilder
     00002785  A$elementsbuilder$5912             elementsbuilder
     00002786  A$elementsbuilder$5913             elementsbuilder
     00002788  A$elementsbuilder$5914             elementsbuilder
     0000278A  A$elementsbuilder$5915             elementsbuilder
     0000278B  A$elementsbuilder$5916             elementsbuilder
     0000278C  A$elementsbuilder$5917             elementsbuilder
     0000278D  A$elementsbuilder$5918             elementsbuilder
     0000278E  A$elementsbuilder$5919             elementsbuilder
     0000278F  A$elementsbuilder$5920             elementsbuilder
     00002790  A$elementsbuilder$5921             elementsbuilder
     00002791  A$elementsbuilder$5922             elementsbuilder
     00002793  A$elementsbuilder$5923             elementsbuilder
     00002794  A$elementsbuilder$5924             elementsbuilder
     00002795  A$elementsbuilder$5927             elementsbuilder
     00002796  A$elementsbuilder$5930             elementsbuilder
     00002797  A$elementsbuilder$5931             elementsbuilder
     00002798  A$elementsbuilder$5932             elementsbuilder
     0000279A  A$elementsbuilder$5933             elementsbuilder
     0000279B  A$elementsbuilder$5934             elementsbuilder
     0000279C  A$elementsbuilder$5935             elementsbuilder
     0000279D  A$elementsbuilder$5936             elementsbuilder
     0000279E  A$elementsbuilder$5937             elementsbuilder
     000027A1  A$elementsbuilder$5938             elementsbuilder
     000027A3  A$elementsbuilder$5939             elementsbuilder
     000027A4  A$elementsbuilder$5943             elementsbuilder
     000027A4  C$elementsbuilder.c$847$2_1$288    elementsbuilder
     000027A5  A$elementsbuilder$5944             elementsbuilder
     000027A6  A$elementsbuilder$5945             elementsbuilder
     000027A7  A$elementsbuilder$5946             elementsbuilder
     000027A8  A$elementsbuilder$5947             elementsbuilder
     000027A9  A$elementsbuilder$5948             elementsbuilder
     000027AA  A$elementsbuilder$5949             elementsbuilder
     000027AB  A$elementsbuilder$5950             elementsbuilder
     000027AC  A$elementsbuilder$5951             elementsbuilder
     000027AF  A$elementsbuilder$5952             elementsbuilder
     000027B0  A$elementsbuilder$5953             elementsbuilder
     000027B1  A$elementsbuilder$5954             elementsbuilder
     000027B3  A$elementsbuilder$5955             elementsbuilder
     000027B4  A$elementsbuilder$5960             elementsbuilder
     000027B4  C$elementsbuilder.c$851$1_0$280    elementsbuilder
ASxxxx Linker V03.00 + NoICE + sdld,  page 138.
Hexadecimal  [32-Bits]

Area                                    Addr        Size        Decimal Bytes (Attributes)
--------------------------------        ----        ----        ------- ----- ------------
_CODE                               00000200    00003D11 =       15633. bytes (REL,CON)

      Value  Global                              Global Defined In Module
      -----  --------------------------------   ------------------------
     000027B7  A$elementsbuilder$5961             elementsbuilder
     000027B9  A$elementsbuilder$5962             elementsbuilder
     000027BB  A$elementsbuilder$5966             elementsbuilder
     000027BB  C$elementsbuilder.c$852$2_0$289    elementsbuilder
     000027BC  A$elementsbuilder$5967             elementsbuilder
     000027BE  A$elementsbuilder$5968             elementsbuilder
     000027BF  A$elementsbuilder$5969             elementsbuilder
     000027C0  A$elementsbuilder$5970             elementsbuilder
     000027C1  A$elementsbuilder$5971             elementsbuilder
     000027C2  A$elementsbuilder$5972             elementsbuilder
     000027C5  A$elementsbuilder$5973             elementsbuilder
     000027C6  A$elementsbuilder$5974             elementsbuilder
     000027C7  A$elementsbuilder$5979             elementsbuilder
     000027C7  C$elementsbuilder.c$855$1_0$280    elementsbuilder
     000027C9  A$elementsbuilder$5980             elementsbuilder
     000027CA  A$elementsbuilder$5981             elementsbuilder
     000027CB  A$elementsbuilder$5982             elementsbuilder
     000027CD  A$elementsbuilder$5983             elementsbuilder
     000027CE  A$elementsbuilder$5984             elementsbuilder
     000027CF  A$elementsbuilder$5985             elementsbuilder
     000027D0  A$elementsbuilder$5986             elementsbuilder
     000027D2  A$elementsbuilder$5990             elementsbuilder
     000027D2  C$elementsbuilder.c$856$2_0$290    elementsbuilder
     000027D5  A$elementsbuilder$5991             elementsbuilder
     000027D7  A$elementsbuilder$5992             elementsbuilder
     000027D8  A$elementsbuilder$5993             elementsbuilder
     000027D9  A$elementsbuilder$5994             elementsbuilder
     000027DA  A$elementsbuilder$5995             elementsbuilder
     000027DC  A$elementsbuilder$5996             elementsbuilder
     000027DD  A$elementsbuilder$5997             elementsbuilder
     000027DE  A$elementsbuilder$5998             elementsbuilder
     000027DF  A$elementsbuilder$5999             elementsbuilder
     000027E0  A$elementsbuilder$6000             elementsbuilder
     000027E2  A$elementsbuilder$6001             elementsbuilder
     000027E3  A$elementsbuilder$6002             elementsbuilder
     000027E4  A$elementsbuilder$6003             elementsbuilder
     000027E5  A$elementsbuilder$6004             elementsbuilder
     000027E6  A$elementsbuilder$6005             elementsbuilder
     000027E9  A$elementsbuilder$6006             elementsbuilder
     000027EB  A$elementsbuilder$6007             elementsbuilder
     000027EC  A$elementsbuilder$6011             elementsbuilder
     000027EC  C$elementsbuilder.c$857$2_0$290    elementsbuilder
     000027ED  A$elementsbuilder$6012             elementsbuilder
     000027EE  A$elementsbuilder$6013             elementsbuilder
     000027EF  A$elementsbuilder$6014             elementsbuilder
     000027F0  A$elementsbuilder$6015             elementsbuilder
     000027F1  A$elementsbuilder$6016             elementsbuilder
     000027F2  A$elementsbuilder$6017             elementsbuilder
     000027F3  A$elementsbuilder$6018             elementsbuilder
     000027F4  A$elementsbuilder$6019             elementsbuilder
     000027F7  A$elementsbuilder$6020             elementsbuilder
ASxxxx Linker V03.00 + NoICE + sdld,  page 139.
Hexadecimal  [32-Bits]

Area                                    Addr        Size        Decimal Bytes (Attributes)
--------------------------------        ----        ----        ------- ----- ------------
_CODE                               00000200    00003D11 =       15633. bytes (REL,CON)

      Value  Global                              Global Defined In Module
      -----  --------------------------------   ------------------------
     000027F8  A$elementsbuilder$6021             elementsbuilder
     000027F9  A$elementsbuilder$6022             elementsbuilder
     000027FB  A$elementsbuilder$6023             elementsbuilder
     000027FC  A$elementsbuilder$6028             elementsbuilder
     000027FC  C$elementsbuilder.c$861$1_0$280    elementsbuilder
     000027FF  A$elementsbuilder$6029             elementsbuilder
     00002801  A$elementsbuilder$6030             elementsbuilder
     00002802  A$elementsbuilder$6031             elementsbuilder
     00002805  A$elementsbuilder$6035             elementsbuilder
     00002805  C$elementsbuilder.c$862$1_0$280    elementsbuilder
     00002806  A$elementsbuilder$6036             elementsbuilder
     00002808  A$elementsbuilder$6037             elementsbuilder
     00002809  A$elementsbuilder$6041             elementsbuilder
     00002809  C$elementsbuilder.c$864$1_0$280    elementsbuilder
     0000280A  A$elementsbuilder$6042             elementsbuilder
     0000280B  A$elementsbuilder$6043             elementsbuilder
     0000280C  A$elementsbuilder$6047             elementsbuilder
     0000280E  A$elementsbuilder$6052             elementsbuilder
     0000280E  C$elementsbuilder.c$865$1_0$280    elementsbuilder
     0000280E  XG$actionPlayer$0$0                elementsbuilder
     0000280F  A$elementsbuilder$6065             elementsbuilder
     0000280F  C$elementsbuilder.c$868$1_0$291    elementsbuilder
     0000280F  C$elementsbuilder.c$869$1_0$291    elementsbuilder
     0000280F  G$rebootPlayer$0$0                 elementsbuilder
     0000280F  _rebootPlayer                      elementsbuilder
     00002812  A$elementsbuilder$6066             elementsbuilder
     00002813  A$elementsbuilder$6067             elementsbuilder
     00002814  A$elementsbuilder$6071             elementsbuilder
     00002814  C$elementsbuilder.c$870$2_0$292    elementsbuilder
     00002817  A$elementsbuilder$6072             elementsbuilder
     00002818  A$elementsbuilder$6073             elementsbuilder
     0000281A  A$elementsbuilder$6074             elementsbuilder
     0000281B  A$elementsbuilder$6078             elementsbuilder
     0000281B  C$elementsbuilder.c$871$2_0$292    elementsbuilder
     0000281E  A$elementsbuilder$6079             elementsbuilder
     0000281F  A$elementsbuilder$6080             elementsbuilder
     00002821  A$elementsbuilder$6081             elementsbuilder
     00002822  A$elementsbuilder$6085             elementsbuilder
     00002822  C$elementsbuilder.c$872$2_0$292    elementsbuilder
     00002825  A$elementsbuilder$6086             elementsbuilder
     00002827  A$elementsbuilder$6090             elementsbuilder
     00002827  C$elementsbuilder.c$873$2_0$292    elementsbuilder
     0000282A  A$elementsbuilder$6091             elementsbuilder
     0000282C  A$elementsbuilder$6099             elementsbuilder
     0000282C  C$elementsbuilder.c$876$1_0$291    elementsbuilder
     0000282C  XG$rebootPlayer$0$0                elementsbuilder
     0000282D  A$elementsbuilder$6109             elementsbuilder
     0000282D  C$elementsbuilder.c$880$1_0$294    elementsbuilder
     0000282D  G$movePlayer$0$0                   elementsbuilder
     0000282D  _movePlayer                        elementsbuilder
     0000282E  A$elementsbuilder$6113             elementsbuilder
ASxxxx Linker V03.00 + NoICE + sdld,  page 140.
Hexadecimal  [32-Bits]

Area                                    Addr        Size        Decimal Bytes (Attributes)
--------------------------------        ----        ----        ------- ----- ------------
_CODE                               00000200    00003D11 =       15633. bytes (REL,CON)

      Value  Global                              Global Defined In Module
      -----  --------------------------------   ------------------------
     0000282E  C$elementsbuilder.c$881$1_0$294    elementsbuilder
     00002830  A$elementsbuilder$6114             elementsbuilder
     00002831  A$elementsbuilder$6115             elementsbuilder
     00002832  A$elementsbuilder$6116             elementsbuilder
     00002833  A$elementsbuilder$6117             elementsbuilder
     00002834  A$elementsbuilder$6118             elementsbuilder
     00002837  A$elementsbuilder$6119             elementsbuilder
     00002838  A$elementsbuilder$6120             elementsbuilder
     00002839  A$elementsbuilder$6124             elementsbuilder
     00002839  C$elementsbuilder.c$882$1_0$294    elementsbuilder
     0000283A  A$elementsbuilder$6125             elementsbuilder
     0000283B  A$elementsbuilder$6126             elementsbuilder
     0000283E  A$elementsbuilder$6127             elementsbuilder
     0000283F  A$elementsbuilder$6128             elementsbuilder
     00002840  A$elementsbuilder$6129             elementsbuilder
     00002842  A$elementsbuilder$6130             elementsbuilder
     00002843  A$elementsbuilder$6134             elementsbuilder
     00002843  C$elementsbuilder.c$883$1_0$294    elementsbuilder
     00002844  A$elementsbuilder$6135             elementsbuilder
     00002846  A$elementsbuilder$6139             elementsbuilder
     00002846  C$elementsbuilder.c$884$2_0$295    elementsbuilder
     00002847  A$elementsbuilder$6140             elementsbuilder
     00002848  A$elementsbuilder$6141             elementsbuilder
     00002849  A$elementsbuilder$6142             elementsbuilder
     0000284C  A$elementsbuilder$6143             elementsbuilder
     0000284D  A$elementsbuilder$6144             elementsbuilder
     0000284F  A$elementsbuilder$6149             elementsbuilder
     0000284F  C$elementsbuilder.c$886$2_0$296    elementsbuilder
     00002852  A$elementsbuilder$6150             elementsbuilder
     00002853  A$elementsbuilder$6151             elementsbuilder
     00002854  A$elementsbuilder$6152             elementsbuilder
     00002855  A$elementsbuilder$6153             elementsbuilder
     00002856  A$elementsbuilder$6157             elementsbuilder
     00002856  C$elementsbuilder.c$887$2_0$296    elementsbuilder
     00002858  A$elementsbuilder$6158             elementsbuilder
     0000285A  A$elementsbuilder$6162             elementsbuilder
     0000285A  C$elementsbuilder.c$888$3_0$297    elementsbuilder
     0000285D  A$elementsbuilder$6166             elementsbuilder
     0000285D  C$elementsbuilder.c$889$3_0$297    elementsbuilder
     0000285F  A$elementsbuilder$6167             elementsbuilder
     00002861  A$elementsbuilder$6168             elementsbuilder
     00002863  A$elementsbuilder$6173             elementsbuilder
     00002863  C$elementsbuilder.c$891$3_0$298    elementsbuilder
     00002865  A$elementsbuilder$6174             elementsbuilder
     00002867  A$elementsbuilder$6178             elementsbuilder
     00002867  C$elementsbuilder.c$892$3_0$298    elementsbuilder
     00002868  A$elementsbuilder$6179             elementsbuilder
     00002869  A$elementsbuilder$6180             elementsbuilder
     0000286A  A$elementsbuilder$6181             elementsbuilder
     0000286D  A$elementsbuilder$6182             elementsbuilder
     0000286E  A$elementsbuilder$6186             elementsbuilder
ASxxxx Linker V03.00 + NoICE + sdld,  page 141.
Hexadecimal  [32-Bits]

Area                                    Addr        Size        Decimal Bytes (Attributes)
--------------------------------        ----        ----        ------- ----- ------------
_CODE                               00000200    00003D11 =       15633. bytes (REL,CON)

      Value  Global                              Global Defined In Module
      -----  --------------------------------   ------------------------
     0000286E  C$elementsbuilder.c$893$3_0$298    elementsbuilder
     00002871  A$elementsbuilder$6190             elementsbuilder
     00002871  C$elementsbuilder.c$894$3_0$298    elementsbuilder
     00002874  A$elementsbuilder$6191             elementsbuilder
     00002875  A$elementsbuilder$6192             elementsbuilder
     00002878  A$elementsbuilder$6193             elementsbuilder
     00002879  A$elementsbuilder$6197             elementsbuilder
     00002879  C$elementsbuilder.c$895$3_0$298    elementsbuilder
     0000287C  A$elementsbuilder$6202             elementsbuilder
     0000287C  C$elementsbuilder.c$899$1_0$294    elementsbuilder
     0000287E  A$elementsbuilder$6203             elementsbuilder
     0000287F  A$elementsbuilder$6207             elementsbuilder
     00002880  A$elementsbuilder$6212             elementsbuilder
     00002880  C$elementsbuilder.c$900$1_0$294    elementsbuilder
     00002880  XG$movePlayer$0$0                  elementsbuilder
     00002881  A$elementsbuilder$6225             elementsbuilder
     00002881  C$elementsbuilder.c$904$1_0$299    elementsbuilder
     00002881  C$elementsbuilder.c$905$2_0$299    elementsbuilder
     00002881  G$collidePlayerVSElements$0$0      elementsbuilder
     00002881  _collidePlayerVSElements           elementsbuilder
     00002883  A$elementsbuilder$6229             elementsbuilder
     00002883  C$elementsbuilder.c$906$1_0$299    elementsbuilder
     00002884  A$elementsbuilder$6230             elementsbuilder
     00002885  A$elementsbuilder$6231             elementsbuilder
     00002886  A$elementsbuilder$6232             elementsbuilder
     00002887  A$elementsbuilder$6233             elementsbuilder
     0000288A  A$elementsbuilder$6234             elementsbuilder
     0000288B  A$elementsbuilder$6235             elementsbuilder
     0000288E  A$elementsbuilder$6236             elementsbuilder
     00002890  A$elementsbuilder$6237             elementsbuilder
     00002891  A$elementsbuilder$6238             elementsbuilder
     00002892  A$elementsbuilder$6242             elementsbuilder
     00002892  C$elementsbuilder.c$907$1_0$299    elementsbuilder
     00002894  A$elementsbuilder$6243             elementsbuilder
     00002896  A$elementsbuilder$6247             elementsbuilder
     00002896  C$elementsbuilder.c$908$2_0$300    elementsbuilder
     00002897  A$elementsbuilder$6248             elementsbuilder
     00002899  A$elementsbuilder$6249             elementsbuilder
     0000289A  A$elementsbuilder$6250             elementsbuilder
     0000289B  A$elementsbuilder$6251             elementsbuilder
     0000289C  A$elementsbuilder$6252             elementsbuilder
     0000289D  A$elementsbuilder$6253             elementsbuilder
     0000289E  A$elementsbuilder$6254             elementsbuilder
     0000289F  A$elementsbuilder$6255             elementsbuilder
     000028A0  A$elementsbuilder$6256             elementsbuilder
     000028A1  A$elementsbuilder$6257             elementsbuilder
     000028A4  A$elementsbuilder$6258             elementsbuilder
     000028A5  A$elementsbuilder$6259             elementsbuilder
     000028A8  A$elementsbuilder$6260             elementsbuilder
     000028A9  A$elementsbuilder$6261             elementsbuilder
     000028AA  A$elementsbuilder$6262             elementsbuilder
ASxxxx Linker V03.00 + NoICE + sdld,  page 142.
Hexadecimal  [32-Bits]

Area                                    Addr        Size        Decimal Bytes (Attributes)
--------------------------------        ----        ----        ------- ----- ------------
_CODE                               00000200    00003D11 =       15633. bytes (REL,CON)

      Value  Global                              Global Defined In Module
      -----  --------------------------------   ------------------------
     000028AC  A$elementsbuilder$6263             elementsbuilder
     000028AE  A$elementsbuilder$6264             elementsbuilder
     000028B0  A$elementsbuilder$6265             elementsbuilder
     000028B2  A$elementsbuilder$6269             elementsbuilder
     000028B2  C$elementsbuilder.c$909$3_0$301    elementsbuilder
     000028B4  A$elementsbuilder$6274             elementsbuilder
     000028B4  C$elementsbuilder.c$913$1_0$299    elementsbuilder
     000028B5  A$elementsbuilder$6275             elementsbuilder
     000028B6  A$elementsbuilder$6276             elementsbuilder
     000028B8  A$elementsbuilder$6280             elementsbuilder
     000028B8  C$elementsbuilder.c$914$2_0$302    elementsbuilder
     000028BB  A$elementsbuilder$6281             elementsbuilder
     000028BC  A$elementsbuilder$6285             elementsbuilder
     000028BC  C$elementsbuilder.c$915$2_0$302    elementsbuilder
     000028BE  A$elementsbuilder$6286             elementsbuilder
     000028C0  A$elementsbuilder$6290             elementsbuilder
     000028C0  C$elementsbuilder.c$916$3_0$303    elementsbuilder
     000028C3  A$elementsbuilder$6294             elementsbuilder
     000028C3  C$elementsbuilder.c$917$3_0$303    elementsbuilder
     000028C5  A$elementsbuilder$6295             elementsbuilder
     000028C7  A$elementsbuilder$6300             elementsbuilder
     000028C7  C$elementsbuilder.c$919$3_0$304    elementsbuilder
     000028C9  A$elementsbuilder$6304             elementsbuilder
     000028C9  C$elementsbuilder.c$920$3_0$304    elementsbuilder
     000028CA  A$elementsbuilder$6305             elementsbuilder
     000028CB  A$elementsbuilder$6306             elementsbuilder
     000028CC  A$elementsbuilder$6307             elementsbuilder
     000028CD  A$elementsbuilder$6308             elementsbuilder
     000028D0  A$elementsbuilder$6309             elementsbuilder
     000028D1  A$elementsbuilder$6310             elementsbuilder
     000028D4  A$elementsbuilder$6311             elementsbuilder
     000028D7  A$elementsbuilder$6312             elementsbuilder
     000028D8  A$elementsbuilder$6313             elementsbuilder
     000028DB  A$elementsbuilder$6314             elementsbuilder
     000028DC  A$elementsbuilder$6315             elementsbuilder
     000028DF  A$elementsbuilder$6316             elementsbuilder
     000028E0  A$elementsbuilder$6321             elementsbuilder
     000028E0  C$elementsbuilder.c$927$1_0$299    elementsbuilder
     000028E1  A$elementsbuilder$6329             elementsbuilder
     000028E1  C$elementsbuilder.c$928$1_0$299    elementsbuilder
     000028E1  XG$collidePlayerVSElements$0$0     elementsbuilder
     000028E2  A$elementsbuilder$6339             elementsbuilder
     000028E2  C$elementsbuilder.c$931$1_0$306    elementsbuilder
     000028E2  G$deleteContent$0$0                elementsbuilder
     000028E2  _deleteContent                     elementsbuilder
     000028E4  A$elementsbuilder$6343             elementsbuilder
     000028E4  C$elementsbuilder.c$933$1_0$306    elementsbuilder
     000028E6  A$elementsbuilder$6344             elementsbuilder
     000028E7  A$elementsbuilder$6345             elementsbuilder
     000028E8  A$elementsbuilder$6346             elementsbuilder
     000028E9  A$elementsbuilder$6347             elementsbuilder
ASxxxx Linker V03.00 + NoICE + sdld,  page 143.
Hexadecimal  [32-Bits]

Area                                    Addr        Size        Decimal Bytes (Attributes)
--------------------------------        ----        ----        ------- ----- ------------
_CODE                               00000200    00003D11 =       15633. bytes (REL,CON)

      Value  Global                              Global Defined In Module
      -----  --------------------------------   ------------------------
     000028EC  A$elementsbuilder$6348             elementsbuilder
     000028ED  A$elementsbuilder$6349             elementsbuilder
     000028EF  A$elementsbuilder$6353             elementsbuilder
     000028EF  C$elementsbuilder.c$934$1_0$306    elementsbuilder
     000028F2  A$elementsbuilder$6354             elementsbuilder
     000028F3  A$elementsbuilder$6355             elementsbuilder
     000028F5  A$elementsbuilder$6359             elementsbuilder
     000028F5  C$elementsbuilder.c$935$1_0$306    elementsbuilder
     000028F8  A$elementsbuilder$6360             elementsbuilder
     000028F9  A$elementsbuilder$6361             elementsbuilder
     000028FB  A$elementsbuilder$6365             elementsbuilder
     000028FB  C$elementsbuilder.c$936$1_0$306    elementsbuilder
     000028FE  A$elementsbuilder$6366             elementsbuilder
     000028FF  A$elementsbuilder$6367             elementsbuilder
     00002901  A$elementsbuilder$6371             elementsbuilder
     00002901  C$elementsbuilder.c$937$1_0$306    elementsbuilder
     00002904  A$elementsbuilder$6372             elementsbuilder
     00002905  A$elementsbuilder$6373             elementsbuilder
     00002907  A$elementsbuilder$6377             elementsbuilder
     00002907  C$elementsbuilder.c$938$1_0$306    elementsbuilder
     0000290A  A$elementsbuilder$6378             elementsbuilder
     0000290B  A$elementsbuilder$6379             elementsbuilder
     0000290D  A$elementsbuilder$6383             elementsbuilder
     0000290D  C$elementsbuilder.c$939$1_0$306    elementsbuilder
     00002910  A$elementsbuilder$6384             elementsbuilder
     00002911  A$elementsbuilder$6385             elementsbuilder
     00002913  A$elementsbuilder$6389             elementsbuilder
     00002913  C$elementsbuilder.c$940$1_0$306    elementsbuilder
     00002916  A$elementsbuilder$6390             elementsbuilder
     00002917  A$elementsbuilder$6391             elementsbuilder
     00002919  A$elementsbuilder$6395             elementsbuilder
     00002919  C$elementsbuilder.c$941$1_0$306    elementsbuilder
     0000291C  A$elementsbuilder$6396             elementsbuilder
     0000291D  A$elementsbuilder$6397             elementsbuilder
     0000291F  A$elementsbuilder$6401             elementsbuilder
     0000291F  C$elementsbuilder.c$943$1_0$306    elementsbuilder
     00002922  A$elementsbuilder$6402             elementsbuilder
     00002923  A$elementsbuilder$6403             elementsbuilder
     00002925  A$elementsbuilder$6407             elementsbuilder
     00002925  C$elementsbuilder.c$944$1_0$306    elementsbuilder
     00002928  A$elementsbuilder$6408             elementsbuilder
     00002929  A$elementsbuilder$6409             elementsbuilder
     0000292B  A$elementsbuilder$6413             elementsbuilder
     0000292B  C$elementsbuilder.c$945$1_0$306    elementsbuilder
     0000292E  A$elementsbuilder$6414             elementsbuilder
     0000292F  A$elementsbuilder$6415             elementsbuilder
     00002931  A$elementsbuilder$6419             elementsbuilder
     00002931  C$elementsbuilder.c$947$1_0$306    elementsbuilder
     00002934  A$elementsbuilder$6420             elementsbuilder
     00002935  A$elementsbuilder$6421             elementsbuilder
     00002937  A$elementsbuilder$6425             elementsbuilder
ASxxxx Linker V03.00 + NoICE + sdld,  page 144.
Hexadecimal  [32-Bits]

Area                                    Addr        Size        Decimal Bytes (Attributes)
--------------------------------        ----        ----        ------- ----- ------------
_CODE                               00000200    00003D11 =       15633. bytes (REL,CON)

      Value  Global                              Global Defined In Module
      -----  --------------------------------   ------------------------
     00002937  C$elementsbuilder.c$948$1_0$306    elementsbuilder
     0000293A  A$elementsbuilder$6426             elementsbuilder
     0000293B  A$elementsbuilder$6427             elementsbuilder
     0000293D  A$elementsbuilder$6431             elementsbuilder
     0000293D  C$elementsbuilder.c$949$1_0$306    elementsbuilder
     00002940  A$elementsbuilder$6432             elementsbuilder
     00002941  A$elementsbuilder$6433             elementsbuilder
     00002943  A$elementsbuilder$6437             elementsbuilder
     00002943  C$elementsbuilder.c$950$1_0$306    elementsbuilder
     00002946  A$elementsbuilder$6438             elementsbuilder
     00002947  A$elementsbuilder$6439             elementsbuilder
     00002949  A$elementsbuilder$6443             elementsbuilder
     00002949  C$elementsbuilder.c$952$2_0$306    elementsbuilder
     0000294A  A$elementsbuilder$6444             elementsbuilder
     0000294C  A$elementsbuilder$6445             elementsbuilder
     0000294D  A$elementsbuilder$6446             elementsbuilder
     0000294E  A$elementsbuilder$6448             elementsbuilder
     00002950  A$elementsbuilder$6449             elementsbuilder
     00002951  A$elementsbuilder$6450             elementsbuilder
     00002953  A$elementsbuilder$6451             elementsbuilder
     00002954  A$elementsbuilder$6452             elementsbuilder
     00002956  A$elementsbuilder$6453             elementsbuilder
     00002957  A$elementsbuilder$6454             elementsbuilder
     00002959  A$elementsbuilder$6455             elementsbuilder
     0000295B  A$elementsbuilder$6456             elementsbuilder
     0000295D  A$elementsbuilder$6457             elementsbuilder
     0000295F  A$elementsbuilder$6458             elementsbuilder
     00002961  A$elementsbuilder$6459             elementsbuilder
     00002962  A$elementsbuilder$6460             elementsbuilder
     00002964  A$elementsbuilder$6462             elementsbuilder
     00002966  A$elementsbuilder$6463             elementsbuilder
     00002968  A$elementsbuilder$6464             elementsbuilder
     00002969  A$elementsbuilder$6466             elementsbuilder
     0000296B  A$elementsbuilder$6470             elementsbuilder
     0000296B  C$elementsbuilder.c$953$3_0$308    elementsbuilder
     0000296D  A$elementsbuilder$6471             elementsbuilder
     0000296E  A$elementsbuilder$6472             elementsbuilder
     0000296F  A$elementsbuilder$6473             elementsbuilder
     00002970  A$elementsbuilder$6474             elementsbuilder
     00002971  A$elementsbuilder$6475             elementsbuilder
     00002972  A$elementsbuilder$6476             elementsbuilder
     00002973  A$elementsbuilder$6477             elementsbuilder
     00002974  A$elementsbuilder$6478             elementsbuilder
     00002975  A$elementsbuilder$6479             elementsbuilder
     00002976  A$elementsbuilder$6480             elementsbuilder
     00002977  A$elementsbuilder$6481             elementsbuilder
     00002978  A$elementsbuilder$6482             elementsbuilder
     00002979  A$elementsbuilder$6483             elementsbuilder
     0000297A  A$elementsbuilder$6484             elementsbuilder
     0000297B  A$elementsbuilder$6485             elementsbuilder
     0000297D  A$elementsbuilder$6486             elementsbuilder
ASxxxx Linker V03.00 + NoICE + sdld,  page 145.
Hexadecimal  [32-Bits]

Area                                    Addr        Size        Decimal Bytes (Attributes)
--------------------------------        ----        ----        ------- ----- ------------
_CODE                               00000200    00003D11 =       15633. bytes (REL,CON)

      Value  Global                              Global Defined In Module
      -----  --------------------------------   ------------------------
     0000297E  A$elementsbuilder$6487             elementsbuilder
     0000297F  A$elementsbuilder$6488             elementsbuilder
     00002980  A$elementsbuilder$6489             elementsbuilder
     00002982  A$elementsbuilder$6490             elementsbuilder
     00002983  A$elementsbuilder$6491             elementsbuilder
     00002984  A$elementsbuilder$6492             elementsbuilder
     00002985  A$elementsbuilder$6493             elementsbuilder
     00002986  A$elementsbuilder$6494             elementsbuilder
     00002988  A$elementsbuilder$6498             elementsbuilder
     00002988  C$elementsbuilder.c$954$3_0$308    elementsbuilder
     00002989  A$elementsbuilder$6499             elementsbuilder
     0000298A  A$elementsbuilder$6500             elementsbuilder
     0000298B  A$elementsbuilder$6503             elementsbuilder
     0000298C  A$elementsbuilder$6504             elementsbuilder
     0000298D  A$elementsbuilder$6507             elementsbuilder
     0000298E  A$elementsbuilder$6508             elementsbuilder
     00002990  A$elementsbuilder$6512             elementsbuilder
     00002990  C$elementsbuilder.c$955$3_0$308    elementsbuilder
     00002991  A$elementsbuilder$6515             elementsbuilder
     00002992  A$elementsbuilder$6518             elementsbuilder
     00002993  A$elementsbuilder$6519             elementsbuilder
     00002994  A$elementsbuilder$6520             elementsbuilder
     00002996  A$elementsbuilder$6524             elementsbuilder
     00002996  C$elementsbuilder.c$956$3_0$308    elementsbuilder
     00002997  A$elementsbuilder$6525             elementsbuilder
     00002998  A$elementsbuilder$6526             elementsbuilder
     00002999  A$elementsbuilder$6527             elementsbuilder
     0000299B  A$elementsbuilder$6528             elementsbuilder
     0000299C  A$elementsbuilder$6532             elementsbuilder
     0000299C  C$elementsbuilder.c$957$3_0$308    elementsbuilder
     0000299E  A$elementsbuilder$6533             elementsbuilder
     0000299F  A$elementsbuilder$6534             elementsbuilder
     000029A0  A$elementsbuilder$6535             elementsbuilder
     000029A1  A$elementsbuilder$6536             elementsbuilder
     000029A4  A$elementsbuilder$6537             elementsbuilder
     000029A5  A$elementsbuilder$6538             elementsbuilder
     000029A6  A$elementsbuilder$6539             elementsbuilder
     000029A7  A$elementsbuilder$6540             elementsbuilder
     000029A8  A$elementsbuilder$6541             elementsbuilder
     000029A9  A$elementsbuilder$6545             elementsbuilder
     000029A9  C$elementsbuilder.c$952$2_0$307    elementsbuilder
     000029AB  A$elementsbuilder$6546             elementsbuilder
     000029AC  A$elementsbuilder$6547             elementsbuilder
     000029AE  A$elementsbuilder$6548             elementsbuilder
     000029AF  A$elementsbuilder$6549             elementsbuilder
     000029B0  A$elementsbuilder$6550             elementsbuilder
     000029B2  A$elementsbuilder$6555             elementsbuilder
     000029B4  A$elementsbuilder$6560             elementsbuilder
     000029B4  C$elementsbuilder.c$959$2_0$306    elementsbuilder
     000029B4  XG$deleteContent$0$0               elementsbuilder
     000029B5  A$elementsbuilder$6570             elementsbuilder
ASxxxx Linker V03.00 + NoICE + sdld,  page 146.
Hexadecimal  [32-Bits]

Area                                    Addr        Size        Decimal Bytes (Attributes)
--------------------------------        ----        ----        ------- ----- ------------
_CODE                               00000200    00003D11 =       15633. bytes (REL,CON)

      Value  Global                              Global Defined In Module
      -----  --------------------------------   ------------------------
     000029B5  C$elementsbuilder.c$962$2_0$310    elementsbuilder
     000029B5  G$deleteTiles$0$0                  elementsbuilder
     000029B5  _deleteTiles                       elementsbuilder
     000029B6  A$elementsbuilder$6571             elementsbuilder
     000029B7  A$elementsbuilder$6573             elementsbuilder
     000029B9  A$elementsbuilder$6574             elementsbuilder
     000029BA  A$elementsbuilder$6575             elementsbuilder
     000029BC  A$elementsbuilder$6576             elementsbuilder
     000029BD  A$elementsbuilder$6578             elementsbuilder
     000029BE  A$elementsbuilder$6579             elementsbuilder
     000029C1  A$elementsbuilder$6582             elementsbuilder
     000029C3  A$elementsbuilder$6585             elementsbuilder
     000029C4  A$elementsbuilder$6586             elementsbuilder
     000029C5  A$elementsbuilder$6587             elementsbuilder
     000029C6  A$elementsbuilder$6589             elementsbuilder
     000029C7  A$elementsbuilder$6590             elementsbuilder
     000029C8  A$elementsbuilder$6591             elementsbuilder
     000029C9  A$elementsbuilder$6593             elementsbuilder
     000029CB  A$elementsbuilder$6594             elementsbuilder
     000029CC  A$elementsbuilder$6595             elementsbuilder
     000029CD  A$elementsbuilder$6596             elementsbuilder
     000029CE  A$elementsbuilder$6597             elementsbuilder
     000029D0  A$elementsbuilder$6598             elementsbuilder
     000029D1  A$elementsbuilder$6600             elementsbuilder
     000029D2  A$elementsbuilder$6603             elementsbuilder
     000029D4  A$elementsbuilder$6606             elementsbuilder
     000029D5  A$elementsbuilder$6607             elementsbuilder
     000029D6  A$elementsbuilder$6608             elementsbuilder
     000029D9  A$elementsbuilder$6609             elementsbuilder
     000029DA  A$elementsbuilder$6611             elementsbuilder
     000029DB  A$elementsbuilder$6612             elementsbuilder
     000029DC  A$elementsbuilder$6613             elementsbuilder
     000029DD  A$elementsbuilder$6615             elementsbuilder
     000029DE  A$elementsbuilder$6616             elementsbuilder
     000029DF  A$elementsbuilder$6617             elementsbuilder
     000029E0  A$elementsbuilder$6619             elementsbuilder
     000029E1  A$elementsbuilder$6622             elementsbuilder
     000029E3  A$elementsbuilder$6625             elementsbuilder
     000029E4  A$elementsbuilder$6626             elementsbuilder
     000029E5  A$elementsbuilder$6627             elementsbuilder
     000029E8  A$elementsbuilder$6628             elementsbuilder
     000029E9  A$elementsbuilder$6630             elementsbuilder
     000029EA  A$elementsbuilder$6631             elementsbuilder
     000029EB  A$elementsbuilder$6632             elementsbuilder
     000029EC  A$elementsbuilder$6634             elementsbuilder
     000029ED  A$elementsbuilder$6635             elementsbuilder
     000029EE  A$elementsbuilder$6636             elementsbuilder
     000029EF  A$elementsbuilder$6638             elementsbuilder
     000029F0  A$elementsbuilder$6641             elementsbuilder
     000029F2  A$elementsbuilder$6644             elementsbuilder
     000029F3  A$elementsbuilder$6645             elementsbuilder
ASxxxx Linker V03.00 + NoICE + sdld,  page 147.
Hexadecimal  [32-Bits]

Area                                    Addr        Size        Decimal Bytes (Attributes)
--------------------------------        ----        ----        ------- ----- ------------
_CODE                               00000200    00003D11 =       15633. bytes (REL,CON)

      Value  Global                              Global Defined In Module
      -----  --------------------------------   ------------------------
     000029F4  A$elementsbuilder$6646             elementsbuilder
     000029F7  A$elementsbuilder$6647             elementsbuilder
     000029F8  A$elementsbuilder$6649             elementsbuilder
     000029F9  A$elementsbuilder$6650             elementsbuilder
     000029FA  A$elementsbuilder$6651             elementsbuilder
     000029FB  A$elementsbuilder$6653             elementsbuilder
     000029FD  A$elementsbuilder$6654             elementsbuilder
     000029FE  A$elementsbuilder$6655             elementsbuilder
     00002A00  A$elementsbuilder$6656             elementsbuilder
     00002A01  A$elementsbuilder$6657             elementsbuilder
     00002A02  A$elementsbuilder$6658             elementsbuilder
     00002A05  A$elementsbuilder$6659             elementsbuilder
     00002A06  A$elementsbuilder$6660             elementsbuilder
     00002A07  A$elementsbuilder$6661             elementsbuilder
     00002A08  A$elementsbuilder$6662             elementsbuilder
     00002A0A  A$elementsbuilder$6664             elementsbuilder
     00002A0C  A$elementsbuilder$6666             elementsbuilder
     00002A0D  A$elementsbuilder$6669             elementsbuilder
     00002A0F  A$elementsbuilder$6672             elementsbuilder
     00002A10  A$elementsbuilder$6673             elementsbuilder
     00002A11  A$elementsbuilder$6674             elementsbuilder
     00002A14  A$elementsbuilder$6675             elementsbuilder
     00002A15  A$elementsbuilder$6676             elementsbuilder
     00002A16  A$elementsbuilder$6677             elementsbuilder
     00002A17  A$elementsbuilder$6678             elementsbuilder
     00002A19  A$elementsbuilder$6681             elementsbuilder
     00002A1C  A$elementsbuilder$6682             elementsbuilder
     00002A1D  A$elementsbuilder$6685             elementsbuilder
     00002A1F  A$elementsbuilder$6688             elementsbuilder
     00002A20  A$elementsbuilder$6689             elementsbuilder
     00002A21  A$elementsbuilder$6690             elementsbuilder
     00002A22  A$elementsbuilder$6691             elementsbuilder
     00002A23  A$elementsbuilder$6692             elementsbuilder
     00002A24  A$elementsbuilder$6693             elementsbuilder
     00002A26  A$elementsbuilder$6696             elementsbuilder
     00002A29  A$elementsbuilder$6697             elementsbuilder
     00002A2A  A$elementsbuilder$6700             elementsbuilder
     00002A2C  A$elementsbuilder$6703             elementsbuilder
     00002A2D  A$elementsbuilder$6704             elementsbuilder
     00002A2E  A$elementsbuilder$6705             elementsbuilder
     00002A2F  A$elementsbuilder$6706             elementsbuilder
     00002A30  A$elementsbuilder$6707             elementsbuilder
     00002A31  A$elementsbuilder$6708             elementsbuilder
     00002A33  A$elementsbuilder$6715             elementsbuilder
     00002A33  C$elementsbuilder.c$972$3_0$310    elementsbuilder
     00002A34  A$elementsbuilder$6716             elementsbuilder
     00002A35  A$elementsbuilder$6721             elementsbuilder
     00002A35  C$elementsbuilder.c$973$3_0$310    elementsbuilder
     00002A35  XG$deleteTiles$0$0                 elementsbuilder
     00002A36  A$elementsbuilder$6731             elementsbuilder
     00002A36  C$elementsbuilder.c$976$3_0$337    elementsbuilder
ASxxxx Linker V03.00 + NoICE + sdld,  page 148.
Hexadecimal  [32-Bits]

Area                                    Addr        Size        Decimal Bytes (Attributes)
--------------------------------        ----        ----        ------- ----- ------------
_CODE                               00000200    00003D11 =       15633. bytes (REL,CON)

      Value  Global                              Global Defined In Module
      -----  --------------------------------   ------------------------
     00002A36  G$cleanEnemyDataByStop$0$0         elementsbuilder
     00002A36  _cleanEnemyDataByStop              elementsbuilder
     00002A38  A$elementsbuilder$6735             elementsbuilder
     00002A38  C$elementsbuilder.c$978$3_0$338    elementsbuilder
     00002A3B  A$elementsbuilder$6737             elementsbuilder
     00002A3C  A$elementsbuilder$6738             elementsbuilder
     00002A3E  A$elementsbuilder$6739             elementsbuilder
     00002A3F  A$elementsbuilder$6740             elementsbuilder
     00002A40  A$elementsbuilder$6741             elementsbuilder
     00002A41  A$elementsbuilder$6742             elementsbuilder
     00002A42  A$elementsbuilder$6743             elementsbuilder
     00002A44  A$elementsbuilder$6744             elementsbuilder
     00002A46  A$elementsbuilder$6748             elementsbuilder
     00002A46  C$elementsbuilder.c$980$3_0$338    elementsbuilder
     00002A47  A$elementsbuilder$6749             elementsbuilder
     00002A48  A$elementsbuilder$6750             elementsbuilder
     00002A49  A$elementsbuilder$6751             elementsbuilder
     00002A4A  A$elementsbuilder$6752             elementsbuilder
     00002A4B  A$elementsbuilder$6753             elementsbuilder
     00002A4C  A$elementsbuilder$6754             elementsbuilder
     00002A4D  A$elementsbuilder$6755             elementsbuilder
     00002A4E  A$elementsbuilder$6756             elementsbuilder
     00002A4F  A$elementsbuilder$6757             elementsbuilder
     00002A50  A$elementsbuilder$6758             elementsbuilder
     00002A52  A$elementsbuilder$6759             elementsbuilder
     00002A53  A$elementsbuilder$6760             elementsbuilder
     00002A54  A$elementsbuilder$6761             elementsbuilder
     00002A55  A$elementsbuilder$6762             elementsbuilder
     00002A57  A$elementsbuilder$6763             elementsbuilder
     00002A58  A$elementsbuilder$6764             elementsbuilder
     00002A59  A$elementsbuilder$6765             elementsbuilder
     00002A5A  A$elementsbuilder$6766             elementsbuilder
     00002A5B  A$elementsbuilder$6767             elementsbuilder
     00002A5E  A$elementsbuilder$6768             elementsbuilder
     00002A5F  A$elementsbuilder$6769             elementsbuilder
     00002A60  A$elementsbuilder$6770             elementsbuilder
     00002A61  A$elementsbuilder$6771             elementsbuilder
     00002A62  A$elementsbuilder$6772             elementsbuilder
     00002A63  A$elementsbuilder$6773             elementsbuilder
     00002A64  A$elementsbuilder$6774             elementsbuilder
     00002A67  A$elementsbuilder$6775             elementsbuilder
     00002A68  A$elementsbuilder$6776             elementsbuilder
     00002A69  A$elementsbuilder$6777             elementsbuilder
     00002A6A  A$elementsbuilder$6778             elementsbuilder
     00002A6B  A$elementsbuilder$6779             elementsbuilder
     00002A6C  A$elementsbuilder$6780             elementsbuilder
     00002A6E  A$elementsbuilder$6781             elementsbuilder
     00002A70  A$elementsbuilder$6782             elementsbuilder
     00002A72  A$elementsbuilder$6783             elementsbuilder
     00002A73  A$elementsbuilder$6784             elementsbuilder
     00002A75  A$elementsbuilder$6788             elementsbuilder
ASxxxx Linker V03.00 + NoICE + sdld,  page 149.
Hexadecimal  [32-Bits]

Area                                    Addr        Size        Decimal Bytes (Attributes)
--------------------------------        ----        ----        ------- ----- ------------
_CODE                               00000200    00003D11 =       15633. bytes (REL,CON)

      Value  Global                              Global Defined In Module
      -----  --------------------------------   ------------------------
     00002A75  C$elementsbuilder.c$982$4_0$339    elementsbuilder
     00002A76  A$elementsbuilder$6789             elementsbuilder
     00002A77  A$elementsbuilder$6790             elementsbuilder
     00002A7A  A$elementsbuilder$6791             elementsbuilder
     00002A7B  A$elementsbuilder$6792             elementsbuilder
     00002A7C  A$elementsbuilder$6793             elementsbuilder
     00002A7D  A$elementsbuilder$6794             elementsbuilder
     00002A7E  A$elementsbuilder$6795             elementsbuilder
     00002A7F  A$elementsbuilder$6796             elementsbuilder
     00002A81  A$elementsbuilder$6797             elementsbuilder
     00002A82  A$elementsbuilder$6798             elementsbuilder
     00002A83  A$elementsbuilder$6799             elementsbuilder
     00002A85  A$elementsbuilder$6803             elementsbuilder
     00002A85  C$elementsbuilder.c$983$5_0$340    elementsbuilder
     00002A86  A$elementsbuilder$6804             elementsbuilder
     00002A87  A$elementsbuilder$6805             elementsbuilder
     00002A8A  A$elementsbuilder$6806             elementsbuilder
     00002A8B  A$elementsbuilder$6807             elementsbuilder
     00002A8C  A$elementsbuilder$6808             elementsbuilder
     00002A8D  A$elementsbuilder$6809             elementsbuilder
     00002A8F  A$elementsbuilder$6810             elementsbuilder
     00002A90  A$elementsbuilder$6811             elementsbuilder
     00002A91  A$elementsbuilder$6812             elementsbuilder
     00002A92  A$elementsbuilder$6813             elementsbuilder
     00002A94  A$elementsbuilder$6814             elementsbuilder
     00002A95  A$elementsbuilder$6815             elementsbuilder
     00002A96  A$elementsbuilder$6816             elementsbuilder
     00002A97  A$elementsbuilder$6817             elementsbuilder
     00002A98  A$elementsbuilder$6818             elementsbuilder
     00002A99  A$elementsbuilder$6819             elementsbuilder
     00002A9B  A$elementsbuilder$6820             elementsbuilder
     00002A9C  A$elementsbuilder$6821             elementsbuilder
     00002A9D  A$elementsbuilder$6822             elementsbuilder
     00002A9E  A$elementsbuilder$6823             elementsbuilder
     00002AA1  A$elementsbuilder$6824             elementsbuilder
     00002AA2  A$elementsbuilder$6825             elementsbuilder
     00002AA3  A$elementsbuilder$6829             elementsbuilder
     00002AA3  C$elementsbuilder.c$984$5_1$341    elementsbuilder
     00002AA5  A$elementsbuilder$6830             elementsbuilder
     00002AA6  A$elementsbuilder$6831             elementsbuilder
     00002AA7  A$elementsbuilder$6832             elementsbuilder
     00002AA8  A$elementsbuilder$6833             elementsbuilder
     00002AA9  A$elementsbuilder$6834             elementsbuilder
     00002AAA  A$elementsbuilder$6835             elementsbuilder
     00002AAB  A$elementsbuilder$6839             elementsbuilder
     00002AAB  C$elementsbuilder.c$985$5_1$341    elementsbuilder
     00002AAC  A$elementsbuilder$6840             elementsbuilder
     00002AAD  A$elementsbuilder$6841             elementsbuilder
     00002AAE  A$elementsbuilder$6842             elementsbuilder
     00002AAF  A$elementsbuilder$6843             elementsbuilder
     00002AB2  A$elementsbuilder$6844             elementsbuilder
ASxxxx Linker V03.00 + NoICE + sdld,  page 150.
Hexadecimal  [32-Bits]

Area                                    Addr        Size        Decimal Bytes (Attributes)
--------------------------------        ----        ----        ------- ----- ------------
_CODE                               00000200    00003D11 =       15633. bytes (REL,CON)

      Value  Global                              Global Defined In Module
      -----  --------------------------------   ------------------------
     00002AB3  A$elementsbuilder$6845             elementsbuilder
     00002AB4  A$elementsbuilder$6849             elementsbuilder
     00002AB4  C$elementsbuilder.c$986$5_1$341    elementsbuilder
     00002AB6  A$elementsbuilder$6850             elementsbuilder
     00002AB7  A$elementsbuilder$6851             elementsbuilder
     00002AB8  A$elementsbuilder$6852             elementsbuilder
     00002AB9  A$elementsbuilder$6853             elementsbuilder
     00002ABA  A$elementsbuilder$6854             elementsbuilder
     00002ABB  A$elementsbuilder$6855             elementsbuilder
     00002ABC  A$elementsbuilder$6860             elementsbuilder
     00002ABC  C$elementsbuilder.c$978$2_0$337    elementsbuilder
     00002ABD  A$elementsbuilder$6861             elementsbuilder
     00002AC0  A$elementsbuilder$6866             elementsbuilder
     00002AC2  A$elementsbuilder$6871             elementsbuilder
     00002AC2  C$elementsbuilder.c$991$2_0$337    elementsbuilder
     00002AC2  XG$cleanEnemyDataByStop$0$0        elementsbuilder
     00002AC3  A$elementsbuilder$6881             elementsbuilder
     00002AC3  C$elementsbuilder.c$994$2_0$342    elementsbuilder
     00002AC3  G$moveEnemies$0$0                  elementsbuilder
     00002AC3  _moveEnemies                       elementsbuilder
     00002AC5  A$elementsbuilder$6885             elementsbuilder
     00002AC5  C$elementsbuilder.c$996$1_0$342    elementsbuilder
     00002AC8  A$elementsbuilder$6886             elementsbuilder
     00002AC9  A$elementsbuilder$6887             elementsbuilder
     00002ACA  A$elementsbuilder$6888             elementsbuilder
     00002ACB  A$elementsbuilder$6889             elementsbuilder
     00002ACC  A$elementsbuilder$6890             elementsbuilder
     00002ACD  A$elementsbuilder$6891             elementsbuilder
     00002AD0  A$elementsbuilder$6892             elementsbuilder
     00002AD1  A$elementsbuilder$6893             elementsbuilder
     00002AD2  A$elementsbuilder$6894             elementsbuilder
     00002AD3  A$elementsbuilder$6895             elementsbuilder
     00002AD4  A$elementsbuilder$6896             elementsbuilder
     00002AD5  A$elementsbuilder$6897             elementsbuilder
     00002AD6  A$elementsbuilder$6898             elementsbuilder
     00002AD8  A$elementsbuilder$6899             elementsbuilder
     00002AD9  A$elementsbuilder$6900             elementsbuilder
     00002ADC  A$elementsbuilder$6901             elementsbuilder
     00002ADD  A$elementsbuilder$6902             elementsbuilder
     00002ADE  A$elementsbuilder$6903             elementsbuilder
     00002ADF  A$elementsbuilder$6904             elementsbuilder
     00002AE0  A$elementsbuilder$6905             elementsbuilder
     00002AE2  A$elementsbuilder$6906             elementsbuilder
     00002AE3  A$elementsbuilder$6907             elementsbuilder
     00002AE4  A$elementsbuilder$6908             elementsbuilder
     00002AE5  A$elementsbuilder$6909             elementsbuilder
     00002AE6  A$elementsbuilder$6913             elementsbuilder
     00002AE6  C$elementsbuilder.c$1000$3_0$344   elementsbuilder
     00002AE8  A$elementsbuilder$6914             elementsbuilder
     00002AEA  A$elementsbuilder$6915             elementsbuilder
     00002AEB  A$elementsbuilder$6916             elementsbuilder
ASxxxx Linker V03.00 + NoICE + sdld,  page 151.
Hexadecimal  [32-Bits]

Area                                    Addr        Size        Decimal Bytes (Attributes)
--------------------------------        ----        ----        ------- ----- ------------
_CODE                               00000200    00003D11 =       15633. bytes (REL,CON)

      Value  Global                              Global Defined In Module
      -----  --------------------------------   ------------------------
     00002AEC  A$elementsbuilder$6917             elementsbuilder
     00002AED  A$elementsbuilder$6919             elementsbuilder
     00002AEF  A$elementsbuilder$6920             elementsbuilder
     00002AF0  A$elementsbuilder$6921             elementsbuilder
     00002AF2  A$elementsbuilder$6922             elementsbuilder
     00002AF3  A$elementsbuilder$6923             elementsbuilder
     00002AF5  A$elementsbuilder$6924             elementsbuilder
     00002AF6  A$elementsbuilder$6925             elementsbuilder
     00002AF8  A$elementsbuilder$6926             elementsbuilder
     00002AFA  A$elementsbuilder$6927             elementsbuilder
     00002AFC  A$elementsbuilder$6928             elementsbuilder
     00002AFE  A$elementsbuilder$6929             elementsbuilder
     00002B00  A$elementsbuilder$6930             elementsbuilder
     00002B01  A$elementsbuilder$6931             elementsbuilder
     00002B03  A$elementsbuilder$6933             elementsbuilder
     00002B05  A$elementsbuilder$6934             elementsbuilder
     00002B07  A$elementsbuilder$6935             elementsbuilder
     00002B08  A$elementsbuilder$6937             elementsbuilder
     00002B0B  A$elementsbuilder$6941             elementsbuilder
     00002B0B  C$elementsbuilder.c$1002$3_0$344   elementsbuilder
     00002B0D  A$elementsbuilder$6942             elementsbuilder
     00002B0E  A$elementsbuilder$6943             elementsbuilder
     00002B0F  A$elementsbuilder$6944             elementsbuilder
     00002B10  A$elementsbuilder$6945             elementsbuilder
     00002B11  A$elementsbuilder$6946             elementsbuilder
     00002B12  A$elementsbuilder$6947             elementsbuilder
     00002B13  A$elementsbuilder$6948             elementsbuilder
     00002B14  A$elementsbuilder$6949             elementsbuilder
     00002B15  A$elementsbuilder$6950             elementsbuilder
     00002B16  A$elementsbuilder$6951             elementsbuilder
     00002B17  A$elementsbuilder$6952             elementsbuilder
     00002B18  A$elementsbuilder$6953             elementsbuilder
     00002B19  A$elementsbuilder$6954             elementsbuilder
     00002B1A  A$elementsbuilder$6955             elementsbuilder
     00002B1C  A$elementsbuilder$6956             elementsbuilder
     00002B1D  A$elementsbuilder$6957             elementsbuilder
     00002B1E  A$elementsbuilder$6958             elementsbuilder
     00002B1F  A$elementsbuilder$6959             elementsbuilder
     00002B21  A$elementsbuilder$6960             elementsbuilder
     00002B22  A$elementsbuilder$6961             elementsbuilder
     00002B23  A$elementsbuilder$6962             elementsbuilder
     00002B24  A$elementsbuilder$6963             elementsbuilder
     00002B25  A$elementsbuilder$6964             elementsbuilder
     00002B28  A$elementsbuilder$6965             elementsbuilder
     00002B29  A$elementsbuilder$6966             elementsbuilder
     00002B2A  A$elementsbuilder$6967             elementsbuilder
     00002B2B  A$elementsbuilder$6968             elementsbuilder
     00002B2D  A$elementsbuilder$6969             elementsbuilder
     00002B2E  A$elementsbuilder$6970             elementsbuilder
     00002B2F  A$elementsbuilder$6971             elementsbuilder
     00002B30  A$elementsbuilder$6972             elementsbuilder
ASxxxx Linker V03.00 + NoICE + sdld,  page 152.
Hexadecimal  [32-Bits]

Area                                    Addr        Size        Decimal Bytes (Attributes)
--------------------------------        ----        ----        ------- ----- ------------
_CODE                               00000200    00003D11 =       15633. bytes (REL,CON)

      Value  Global                              Global Defined In Module
      -----  --------------------------------   ------------------------
     00002B32  A$elementsbuilder$6973             elementsbuilder
     00002B33  A$elementsbuilder$6974             elementsbuilder
     00002B34  A$elementsbuilder$6975             elementsbuilder
     00002B35  A$elementsbuilder$6976             elementsbuilder
     00002B36  A$elementsbuilder$6977             elementsbuilder
     00002B39  A$elementsbuilder$6978             elementsbuilder
     00002B3A  A$elementsbuilder$6979             elementsbuilder
     00002B3B  A$elementsbuilder$6980             elementsbuilder
     00002B3C  A$elementsbuilder$6981             elementsbuilder
     00002B3D  A$elementsbuilder$6982             elementsbuilder
     00002B3F  A$elementsbuilder$6983             elementsbuilder
     00002B40  A$elementsbuilder$6984             elementsbuilder
     00002B41  A$elementsbuilder$6985             elementsbuilder
     00002B44  A$elementsbuilder$6989             elementsbuilder
     00002B44  C$elementsbuilder.c$1004$4_0$345   elementsbuilder
     00002B45  A$elementsbuilder$6990             elementsbuilder
     00002B46  A$elementsbuilder$6991             elementsbuilder
     00002B47  A$elementsbuilder$6992             elementsbuilder
     00002B48  A$elementsbuilder$6993             elementsbuilder
     00002B4B  A$elementsbuilder$6994             elementsbuilder
     00002B4C  A$elementsbuilder$6995             elementsbuilder
     00002B4D  A$elementsbuilder$6996             elementsbuilder
     00002B4E  A$elementsbuilder$6997             elementsbuilder
     00002B4F  A$elementsbuilder$6998             elementsbuilder
     00002B50  A$elementsbuilder$6999             elementsbuilder
     00002B52  A$elementsbuilder$7000             elementsbuilder
     00002B55  A$elementsbuilder$7001             elementsbuilder
     00002B57  A$elementsbuilder$7002             elementsbuilder
     00002B58  A$elementsbuilder$7003             elementsbuilder
     00002B5B  A$elementsbuilder$7007             elementsbuilder
     00002B5B  C$elementsbuilder.c$1006$5_0$346   elementsbuilder
     00002B5D  A$elementsbuilder$7008             elementsbuilder
     00002B5E  A$elementsbuilder$7009             elementsbuilder
     00002B5F  A$elementsbuilder$7010             elementsbuilder
     00002B60  A$elementsbuilder$7011             elementsbuilder
     00002B63  A$elementsbuilder$7012             elementsbuilder
     00002B64  A$elementsbuilder$7013             elementsbuilder
     00002B65  A$elementsbuilder$7014             elementsbuilder
     00002B66  A$elementsbuilder$7015             elementsbuilder
     00002B67  A$elementsbuilder$7016             elementsbuilder
     00002B68  A$elementsbuilder$7017             elementsbuilder
     00002B6B  A$elementsbuilder$7018             elementsbuilder
     00002B6C  A$elementsbuilder$7019             elementsbuilder
     00002B6E  A$elementsbuilder$7023             elementsbuilder
     00002B6E  C$elementsbuilder.c$1007$6_0$347   elementsbuilder
     00002B71  A$elementsbuilder$7024             elementsbuilder
     00002B72  A$elementsbuilder$7027             elementsbuilder
     00002B74  A$elementsbuilder$7030             elementsbuilder
     00002B75  A$elementsbuilder$7031             elementsbuilder
     00002B76  A$elementsbuilder$7032             elementsbuilder
     00002B77  A$elementsbuilder$7033             elementsbuilder
ASxxxx Linker V03.00 + NoICE + sdld,  page 153.
Hexadecimal  [32-Bits]

Area                                    Addr        Size        Decimal Bytes (Attributes)
--------------------------------        ----        ----        ------- ----- ------------
_CODE                               00000200    00003D11 =       15633. bytes (REL,CON)

      Value  Global                              Global Defined In Module
      -----  --------------------------------   ------------------------
     00002B78  A$elementsbuilder$7034             elementsbuilder
     00002B79  A$elementsbuilder$7035             elementsbuilder
     00002B7B  A$elementsbuilder$7036             elementsbuilder
     00002B7C  A$elementsbuilder$7037             elementsbuilder
     00002B7D  A$elementsbuilder$7038             elementsbuilder
     00002B7E  A$elementsbuilder$7039             elementsbuilder
     00002B7F  A$elementsbuilder$7040             elementsbuilder
     00002B80  A$elementsbuilder$7041             elementsbuilder
     00002B81  A$elementsbuilder$7042             elementsbuilder
     00002B83  A$elementsbuilder$7043             elementsbuilder
     00002B84  A$elementsbuilder$7044             elementsbuilder
     00002B85  A$elementsbuilder$7045             elementsbuilder
     00002B86  A$elementsbuilder$7046             elementsbuilder
     00002B89  A$elementsbuilder$7047             elementsbuilder
     00002B8A  A$elementsbuilder$7048             elementsbuilder
     00002B8B  A$elementsbuilder$7049             elementsbuilder
     00002B8C  A$elementsbuilder$7050             elementsbuilder
     00002B8D  A$elementsbuilder$7051             elementsbuilder
     00002B8E  A$elementsbuilder$7052             elementsbuilder
     00002B8F  A$elementsbuilder$7053             elementsbuilder
     00002B90  A$elementsbuilder$7054             elementsbuilder
     00002B92  A$elementsbuilder$7055             elementsbuilder
     00002B93  A$elementsbuilder$7056             elementsbuilder
     00002B94  A$elementsbuilder$7060             elementsbuilder
     00002B94  C$elementsbuilder.c$1008$6_0$347   elementsbuilder
     00002B96  A$elementsbuilder$7061             elementsbuilder
     00002B97  A$elementsbuilder$7062             elementsbuilder
     00002B98  A$elementsbuilder$7063             elementsbuilder
     00002B99  A$elementsbuilder$7064             elementsbuilder
     00002B9C  A$elementsbuilder$7065             elementsbuilder
     00002B9D  A$elementsbuilder$7066             elementsbuilder
     00002B9E  A$elementsbuilder$7067             elementsbuilder
     00002B9F  A$elementsbuilder$7068             elementsbuilder
     00002BA0  A$elementsbuilder$7069             elementsbuilder
     00002BA1  A$elementsbuilder$7072             elementsbuilder
     00002BA2  A$elementsbuilder$7073             elementsbuilder
     00002BA3  A$elementsbuilder$7074             elementsbuilder
     00002BA4  A$elementsbuilder$7078             elementsbuilder
     00002BA4  C$elementsbuilder.c$1009$6_0$347   elementsbuilder
     00002BA6  A$elementsbuilder$7079             elementsbuilder
     00002BA7  A$elementsbuilder$7080             elementsbuilder
     00002BA8  A$elementsbuilder$7081             elementsbuilder
     00002BA9  A$elementsbuilder$7082             elementsbuilder
     00002BAC  A$elementsbuilder$7083             elementsbuilder
     00002BAD  A$elementsbuilder$7084             elementsbuilder
     00002BAE  A$elementsbuilder$7085             elementsbuilder
     00002BAF  A$elementsbuilder$7086             elementsbuilder
     00002BB1  A$elementsbuilder$7087             elementsbuilder
     00002BB2  A$elementsbuilder$7088             elementsbuilder
     00002BB3  A$elementsbuilder$7089             elementsbuilder
     00002BB4  A$elementsbuilder$7090             elementsbuilder
ASxxxx Linker V03.00 + NoICE + sdld,  page 154.
Hexadecimal  [32-Bits]

Area                                    Addr        Size        Decimal Bytes (Attributes)
--------------------------------        ----        ----        ------- ----- ------------
_CODE                               00000200    00003D11 =       15633. bytes (REL,CON)

      Value  Global                              Global Defined In Module
      -----  --------------------------------   ------------------------
     00002BB6  A$elementsbuilder$7091             elementsbuilder
     00002BB7  A$elementsbuilder$7092             elementsbuilder
     00002BB8  A$elementsbuilder$7093             elementsbuilder
     00002BB9  A$elementsbuilder$7094             elementsbuilder
     00002BBA  A$elementsbuilder$7095             elementsbuilder
     00002BBB  A$elementsbuilder$7096             elementsbuilder
     00002BBD  A$elementsbuilder$7097             elementsbuilder
     00002BBE  A$elementsbuilder$7098             elementsbuilder
     00002BBF  A$elementsbuilder$7099             elementsbuilder
     00002BC0  A$elementsbuilder$7100             elementsbuilder
     00002BC1  A$elementsbuilder$7101             elementsbuilder
     00002BC2  A$elementsbuilder$7102             elementsbuilder
     00002BC3  A$elementsbuilder$7103             elementsbuilder
     00002BC4  A$elementsbuilder$7104             elementsbuilder
     00002BC5  A$elementsbuilder$7105             elementsbuilder
     00002BC6  A$elementsbuilder$7106             elementsbuilder
     00002BC7  A$elementsbuilder$7107             elementsbuilder
     00002BC8  A$elementsbuilder$7108             elementsbuilder
     00002BC9  A$elementsbuilder$7109             elementsbuilder
     00002BCA  A$elementsbuilder$7110             elementsbuilder
     00002BCB  A$elementsbuilder$7111             elementsbuilder
     00002BCC  A$elementsbuilder$7112             elementsbuilder
     00002BCD  A$elementsbuilder$7113             elementsbuilder
     00002BCE  A$elementsbuilder$7114             elementsbuilder
     00002BD0  A$elementsbuilder$7115             elementsbuilder
     00002BD1  A$elementsbuilder$7116             elementsbuilder
     00002BD2  A$elementsbuilder$7117             elementsbuilder
     00002BD3  A$elementsbuilder$7118             elementsbuilder
     00002BD5  A$elementsbuilder$7122             elementsbuilder
     00002BD5  C$elementsbuilder.c$1010$6_0$347   elementsbuilder
     00002BD6  A$elementsbuilder$7123             elementsbuilder
     00002BD7  A$elementsbuilder$7124             elementsbuilder
     00002BD8  A$elementsbuilder$7125             elementsbuilder
     00002BD9  A$elementsbuilder$7126             elementsbuilder
     00002BDA  A$elementsbuilder$7127             elementsbuilder
     00002BDB  A$elementsbuilder$7128             elementsbuilder
     00002BDE  A$elementsbuilder$7129             elementsbuilder
     00002BDF  A$elementsbuilder$7134             elementsbuilder
     00002BDF  C$elementsbuilder.c$1000$2_0$343   elementsbuilder
     00002BE1  A$elementsbuilder$7135             elementsbuilder
     00002BE2  A$elementsbuilder$7136             elementsbuilder
     00002BE5  A$elementsbuilder$7137             elementsbuilder
     00002BE6  A$elementsbuilder$7138             elementsbuilder
     00002BE7  A$elementsbuilder$7139             elementsbuilder
     00002BEA  A$elementsbuilder$7144             elementsbuilder
     00002BEA  C$elementsbuilder.c$1015$1_0$342   elementsbuilder
     00002BED  A$elementsbuilder$7145             elementsbuilder
     00002BEE  A$elementsbuilder$7149             elementsbuilder
     00002BEE  C$elementsbuilder.c$1016$1_0$342   elementsbuilder
     00002BF1  A$elementsbuilder$7150             elementsbuilder
     00002BF2  A$elementsbuilder$7151             elementsbuilder
ASxxxx Linker V03.00 + NoICE + sdld,  page 155.
Hexadecimal  [32-Bits]

Area                                    Addr        Size        Decimal Bytes (Attributes)
--------------------------------        ----        ----        ------- ----- ------------
_CODE                               00000200    00003D11 =       15633. bytes (REL,CON)

      Value  Global                              Global Defined In Module
      -----  --------------------------------   ------------------------
     00002BF3  A$elementsbuilder$7152             elementsbuilder
     00002BF4  A$elementsbuilder$7153             elementsbuilder
     00002BF5  A$elementsbuilder$7154             elementsbuilder
     00002BF6  A$elementsbuilder$7155             elementsbuilder
     00002BF9  A$elementsbuilder$7156             elementsbuilder
     00002BFA  A$elementsbuilder$7157             elementsbuilder
     00002BFB  A$elementsbuilder$7158             elementsbuilder
     00002BFC  A$elementsbuilder$7159             elementsbuilder
     00002BFD  A$elementsbuilder$7160             elementsbuilder
     00002BFE  A$elementsbuilder$7161             elementsbuilder
     00002BFF  A$elementsbuilder$7162             elementsbuilder
     00002C01  A$elementsbuilder$7163             elementsbuilder
     00002C02  A$elementsbuilder$7164             elementsbuilder
     00002C05  A$elementsbuilder$7165             elementsbuilder
     00002C06  A$elementsbuilder$7166             elementsbuilder
     00002C07  A$elementsbuilder$7167             elementsbuilder
     00002C0A  A$elementsbuilder$7168             elementsbuilder
     00002C0B  A$elementsbuilder$7169             elementsbuilder
     00002C0D  A$elementsbuilder$7173             elementsbuilder
     00002C0D  C$elementsbuilder.c$1017$2_0$348   elementsbuilder
     00002C10  A$elementsbuilder$7174             elementsbuilder
     00002C11  A$elementsbuilder$7175             elementsbuilder
     00002C12  A$elementsbuilder$7176             elementsbuilder
     00002C15  A$elementsbuilder$7177             elementsbuilder
     00002C16  A$elementsbuilder$7181             elementsbuilder
     00002C16  C$elementsbuilder.c$1018$2_0$348   elementsbuilder
     00002C19  A$elementsbuilder$7182             elementsbuilder
     00002C1A  A$elementsbuilder$7183             elementsbuilder
     00002C1B  A$elementsbuilder$7184             elementsbuilder
     00002C1C  A$elementsbuilder$7185             elementsbuilder
     00002C1D  A$elementsbuilder$7186             elementsbuilder
     00002C1E  A$elementsbuilder$7187             elementsbuilder
     00002C21  A$elementsbuilder$7188             elementsbuilder
     00002C22  A$elementsbuilder$7189             elementsbuilder
     00002C23  A$elementsbuilder$7190             elementsbuilder
     00002C24  A$elementsbuilder$7191             elementsbuilder
     00002C25  A$elementsbuilder$7192             elementsbuilder
     00002C26  A$elementsbuilder$7193             elementsbuilder
     00002C27  A$elementsbuilder$7194             elementsbuilder
     00002C29  A$elementsbuilder$7195             elementsbuilder
     00002C2A  A$elementsbuilder$7196             elementsbuilder
     00002C2B  A$elementsbuilder$7197             elementsbuilder
     00002C2C  A$elementsbuilder$7198             elementsbuilder
     00002C2E  A$elementsbuilder$7202             elementsbuilder
     00002C2E  C$elementsbuilder.c$1019$2_0$348   elementsbuilder
     00002C31  A$elementsbuilder$7203             elementsbuilder
     00002C33  A$elementsbuilder$7207             elementsbuilder
     00002C33  C$elementsbuilder.c$1020$2_0$348   elementsbuilder
     00002C36  A$elementsbuilder$7208             elementsbuilder
     00002C38  A$elementsbuilder$7213             elementsbuilder
     00002C3A  A$elementsbuilder$7218             elementsbuilder
ASxxxx Linker V03.00 + NoICE + sdld,  page 156.
Hexadecimal  [32-Bits]

Area                                    Addr        Size        Decimal Bytes (Attributes)
--------------------------------        ----        ----        ------- ----- ------------
_CODE                               00000200    00003D11 =       15633. bytes (REL,CON)

      Value  Global                              Global Defined In Module
      -----  --------------------------------   ------------------------
     00002C3A  C$elementsbuilder.c$1022$1_0$342   elementsbuilder
     00002C3A  XG$moveEnemies$0$0                 elementsbuilder
     00002C3B  A$elementsbuilder$7231             elementsbuilder
     00002C3B  C$elementsbuilder.c$1027$1_0$350   elementsbuilder
     00002C3B  C$elementsbuilder.c$1028$3_0$351   elementsbuilder
     00002C3B  G$cleanElementData$0$0             elementsbuilder
     00002C3B  _cleanElementData                  elementsbuilder
     00002C3E  A$elementsbuilder$7233             elementsbuilder
     00002C3F  A$elementsbuilder$7234             elementsbuilder
     00002C41  A$elementsbuilder$7235             elementsbuilder
     00002C42  A$elementsbuilder$7236             elementsbuilder
     00002C43  A$elementsbuilder$7237             elementsbuilder
     00002C44  A$elementsbuilder$7238             elementsbuilder
     00002C45  A$elementsbuilder$7239             elementsbuilder
     00002C47  A$elementsbuilder$7240             elementsbuilder
     00002C48  A$elementsbuilder$7244             elementsbuilder
     00002C48  C$elementsbuilder.c$1029$3_0$351   elementsbuilder
     00002C49  A$elementsbuilder$7245             elementsbuilder
     00002C4A  A$elementsbuilder$7246             elementsbuilder
     00002C4B  A$elementsbuilder$7247             elementsbuilder
     00002C4C  A$elementsbuilder$7248             elementsbuilder
     00002C4D  A$elementsbuilder$7249             elementsbuilder
     00002C4E  A$elementsbuilder$7250             elementsbuilder
     00002C4F  A$elementsbuilder$7251             elementsbuilder
     00002C50  A$elementsbuilder$7252             elementsbuilder
     00002C53  A$elementsbuilder$7253             elementsbuilder
     00002C54  A$elementsbuilder$7254             elementsbuilder
     00002C55  A$elementsbuilder$7255             elementsbuilder
     00002C56  A$elementsbuilder$7256             elementsbuilder
     00002C59  A$elementsbuilder$7257             elementsbuilder
     00002C5A  A$elementsbuilder$7258             elementsbuilder
     00002C5B  A$elementsbuilder$7262             elementsbuilder
     00002C5B  C$elementsbuilder.c$1028$2_0$350   elementsbuilder
     00002C5C  A$elementsbuilder$7270             elementsbuilder
     00002C5C  C$elementsbuilder.c$1031$2_0$350   elementsbuilder
     00002C5C  XG$cleanElementData$0$0            elementsbuilder
     00002C5E  A$elementsbuilder$7280             elementsbuilder
     00002C5E  C$elementsbuilder.c$1034$2_0$353   elementsbuilder
     00002C5E  G$stopScrolling$0$0                elementsbuilder
     00002C5E  _stopScrolling                     elementsbuilder
     00002C60  A$elementsbuilder$7284             elementsbuilder
     00002C60  C$elementsbuilder.c$1035$2_0$353   elementsbuilder
     00002C62  A$elementsbuilder$7288             elementsbuilder
     00002C62  C$elementsbuilder.c$1037$1_0$353   elementsbuilder
     00002C64  A$elementsbuilder$7289             elementsbuilder
     00002C66  A$elementsbuilder$7290             elementsbuilder
     00002C68  A$elementsbuilder$7294             elementsbuilder
     00002C68  C$elementsbuilder.c$1038$2_0$354   elementsbuilder
     00002C6A  A$elementsbuilder$7295             elementsbuilder
     00002C6D  A$elementsbuilder$7300             elementsbuilder
     00002C6D  C$elementsbuilder.c$1043$1_1$353   elementsbuilder
ASxxxx Linker V03.00 + NoICE + sdld,  page 157.
Hexadecimal  [32-Bits]

Area                                    Addr        Size        Decimal Bytes (Attributes)
--------------------------------        ----        ----        ------- ----- ------------
_CODE                               00000200    00003D11 =       15633. bytes (REL,CON)

      Value  Global                              Global Defined In Module
      -----  --------------------------------   ------------------------
     00002C6F  A$elementsbuilder$7302             elementsbuilder
     00002C72  A$elementsbuilder$7303             elementsbuilder
     00002C73  A$elementsbuilder$7304             elementsbuilder
     00002C74  A$elementsbuilder$7305             elementsbuilder
     00002C75  A$elementsbuilder$7306             elementsbuilder
     00002C76  A$elementsbuilder$7309             elementsbuilder
     00002C77  A$elementsbuilder$7312             elementsbuilder
     00002C78  A$elementsbuilder$7313             elementsbuilder
     00002C79  A$elementsbuilder$7315             elementsbuilder
     00002C7A  A$elementsbuilder$7316             elementsbuilder
     00002C7B  A$elementsbuilder$7317             elementsbuilder
     00002C7E  A$elementsbuilder$7318             elementsbuilder
     00002C7F  A$elementsbuilder$7319             elementsbuilder
     00002C80  A$elementsbuilder$7320             elementsbuilder
     00002C83  A$elementsbuilder$7324             elementsbuilder
     00002C83  C$elementsbuilder.c$1044$1_1$353   elementsbuilder
     00002C84  A$elementsbuilder$7325             elementsbuilder
     00002C85  A$elementsbuilder$7326             elementsbuilder
     00002C87  A$elementsbuilder$7327             elementsbuilder
     00002C88  A$elementsbuilder$7328             elementsbuilder
     00002C89  A$elementsbuilder$7329             elementsbuilder
     00002C8A  A$elementsbuilder$7330             elementsbuilder
     00002C8B  A$elementsbuilder$7331             elementsbuilder
     00002C8C  A$elementsbuilder$7332             elementsbuilder
     00002C8D  A$elementsbuilder$7333             elementsbuilder
     00002C8E  A$elementsbuilder$7334             elementsbuilder
     00002C8F  A$elementsbuilder$7335             elementsbuilder
     00002C90  A$elementsbuilder$7336             elementsbuilder
     00002C92  A$elementsbuilder$7337             elementsbuilder
     00002C93  A$elementsbuilder$7338             elementsbuilder
     00002C95  A$elementsbuilder$7339             elementsbuilder
     00002C96  A$elementsbuilder$7340             elementsbuilder
     00002C97  A$elementsbuilder$7341             elementsbuilder
     00002C98  A$elementsbuilder$7342             elementsbuilder
     00002C9A  A$elementsbuilder$7343             elementsbuilder
     00002C9B  A$elementsbuilder$7344             elementsbuilder
     00002C9D  A$elementsbuilder$7345             elementsbuilder
     00002C9E  A$elementsbuilder$7346             elementsbuilder
     00002C9F  A$elementsbuilder$7347             elementsbuilder
     00002CA0  A$elementsbuilder$7348             elementsbuilder
     00002CA2  A$elementsbuilder$7349             elementsbuilder
     00002CA3  A$elementsbuilder$7350             elementsbuilder
     00002CA4  A$elementsbuilder$7351             elementsbuilder
     00002CA5  A$elementsbuilder$7352             elementsbuilder
     00002CA7  A$elementsbuilder$7353             elementsbuilder
     00002CA8  A$elementsbuilder$7354             elementsbuilder
     00002CA9  A$elementsbuilder$7355             elementsbuilder
     00002CAA  A$elementsbuilder$7356             elementsbuilder
     00002CAB  A$elementsbuilder$7357             elementsbuilder
     00002CAC  A$elementsbuilder$7358             elementsbuilder
     00002CAD  A$elementsbuilder$7359             elementsbuilder
ASxxxx Linker V03.00 + NoICE + sdld,  page 158.
Hexadecimal  [32-Bits]

Area                                    Addr        Size        Decimal Bytes (Attributes)
--------------------------------        ----        ----        ------- ----- ------------
_CODE                               00000200    00003D11 =       15633. bytes (REL,CON)

      Value  Global                              Global Defined In Module
      -----  --------------------------------   ------------------------
     00002CAE  A$elementsbuilder$7360             elementsbuilder
     00002CAF  A$elementsbuilder$7361             elementsbuilder
     00002CB1  A$elementsbuilder$7365             elementsbuilder
     00002CB1  C$elementsbuilder.c$1045$3_1$357   elementsbuilder
     00002CB2  A$elementsbuilder$7366             elementsbuilder
     00002CB3  A$elementsbuilder$7367             elementsbuilder
     00002CB4  A$elementsbuilder$7368             elementsbuilder
     00002CB5  A$elementsbuilder$7369             elementsbuilder
     00002CB6  A$elementsbuilder$7370             elementsbuilder
     00002CB7  A$elementsbuilder$7371             elementsbuilder
     00002CB8  A$elementsbuilder$7372             elementsbuilder
     00002CB9  A$elementsbuilder$7373             elementsbuilder
     00002CBA  A$elementsbuilder$7374             elementsbuilder
     00002CBB  A$elementsbuilder$7375             elementsbuilder
     00002CBD  A$elementsbuilder$7376             elementsbuilder
     00002CBE  A$elementsbuilder$7377             elementsbuilder
     00002CBF  A$elementsbuilder$7378             elementsbuilder
     00002CC1  A$elementsbuilder$7379             elementsbuilder
     00002CC2  A$elementsbuilder$7380             elementsbuilder
     00002CC3  A$elementsbuilder$7381             elementsbuilder
     00002CC4  A$elementsbuilder$7382             elementsbuilder
     00002CC5  A$elementsbuilder$7383             elementsbuilder
     00002CC6  A$elementsbuilder$7384             elementsbuilder
     00002CC7  A$elementsbuilder$7385             elementsbuilder
     00002CC8  A$elementsbuilder$7386             elementsbuilder
     00002CC9  A$elementsbuilder$7387             elementsbuilder
     00002CCB  A$elementsbuilder$7388             elementsbuilder
     00002CCD  A$elementsbuilder$7389             elementsbuilder
     00002CCF  A$elementsbuilder$7390             elementsbuilder
     00002CD1  A$elementsbuilder$7391             elementsbuilder
     00002CD2  A$elementsbuilder$7392             elementsbuilder
     00002CD4  A$elementsbuilder$7394             elementsbuilder
     00002CD6  A$elementsbuilder$7395             elementsbuilder
     00002CD8  A$elementsbuilder$7396             elementsbuilder
     00002CD9  A$elementsbuilder$7398             elementsbuilder
     00002CDB  A$elementsbuilder$7402             elementsbuilder
     00002CDB  C$elementsbuilder.c$1046$4_1$358   elementsbuilder
     00002CDD  A$elementsbuilder$7406             elementsbuilder
     00002CDD  C$elementsbuilder.c$1047$4_1$358   elementsbuilder
     00002CE0  A$elementsbuilder$7407             elementsbuilder
     00002CE1  A$elementsbuilder$7411             elementsbuilder
     00002CE1  C$elementsbuilder.c$1048$4_1$358   elementsbuilder
     00002CE3  A$elementsbuilder$7412             elementsbuilder
     00002CE4  A$elementsbuilder$7413             elementsbuilder
     00002CE5  A$elementsbuilder$7414             elementsbuilder
     00002CE6  A$elementsbuilder$7415             elementsbuilder
     00002CE7  A$elementsbuilder$7416             elementsbuilder
     00002CE8  A$elementsbuilder$7417             elementsbuilder
     00002CE9  A$elementsbuilder$7418             elementsbuilder
     00002CEA  A$elementsbuilder$7419             elementsbuilder
     00002CEB  A$elementsbuilder$7420             elementsbuilder
ASxxxx Linker V03.00 + NoICE + sdld,  page 159.
Hexadecimal  [32-Bits]

Area                                    Addr        Size        Decimal Bytes (Attributes)
--------------------------------        ----        ----        ------- ----- ------------
_CODE                               00000200    00003D11 =       15633. bytes (REL,CON)

      Value  Global                              Global Defined In Module
      -----  --------------------------------   ------------------------
     00002CED  A$elementsbuilder$7424             elementsbuilder
     00002CED  C$elementsbuilder.c$1049$5_1$359   elementsbuilder
     00002CEE  A$elementsbuilder$7425             elementsbuilder
     00002CF1  A$elementsbuilder$7426             elementsbuilder
     00002CF2  A$elementsbuilder$7427             elementsbuilder
     00002CF3  A$elementsbuilder$7428             elementsbuilder
     00002CF6  A$elementsbuilder$7429             elementsbuilder
     00002CF7  A$elementsbuilder$7430             elementsbuilder
     00002CF8  A$elementsbuilder$7434             elementsbuilder
     00002CF8  C$elementsbuilder.c$1050$5_1$359   elementsbuilder
     00002CFB  A$elementsbuilder$7435             elementsbuilder
     00002CFC  A$elementsbuilder$7436             elementsbuilder
     00002CFD  A$elementsbuilder$7437             elementsbuilder
     00002CFE  A$elementsbuilder$7438             elementsbuilder
     00002CFF  A$elementsbuilder$7439             elementsbuilder
     00002D00  A$elementsbuilder$7440             elementsbuilder
     00002D02  A$elementsbuilder$7441             elementsbuilder
     00002D03  A$elementsbuilder$7442             elementsbuilder
     00002D05  A$elementsbuilder$7443             elementsbuilder
     00002D06  A$elementsbuilder$7444             elementsbuilder
     00002D07  A$elementsbuilder$7445             elementsbuilder
     00002D08  A$elementsbuilder$7446             elementsbuilder
     00002D09  A$elementsbuilder$7447             elementsbuilder
     00002D0B  A$elementsbuilder$7452             elementsbuilder
     00002D0B  C$elementsbuilder.c$1054$2_1$356   elementsbuilder
     00002D0C  A$elementsbuilder$7453             elementsbuilder
     00002D0F  A$elementsbuilder$7458             elementsbuilder
     00002D0F  C$elementsbuilder.c$1058$1_1$355   elementsbuilder
     00002D10  A$elementsbuilder$7463             elementsbuilder
     00002D12  A$elementsbuilder$7468             elementsbuilder
     00002D12  C$elementsbuilder.c$1059$1_1$353   elementsbuilder
     00002D12  XG$stopScrolling$0$0               elementsbuilder
     00002D13  A$elementsbuilder$7481             elementsbuilder
     00002D13  C$elementsbuilder.c$1063$1_1$361   elementsbuilder
     00002D13  C$elementsbuilder.c$1065$3_0$362   elementsbuilder
     00002D13  G$deleteAllContent$0$0             elementsbuilder
     00002D13  _deleteAllContent                  elementsbuilder
     00002D16  A$elementsbuilder$7483             elementsbuilder
     00002D17  A$elementsbuilder$7484             elementsbuilder
     00002D19  A$elementsbuilder$7485             elementsbuilder
     00002D1A  A$elementsbuilder$7486             elementsbuilder
     00002D1B  A$elementsbuilder$7487             elementsbuilder
     00002D1C  A$elementsbuilder$7488             elementsbuilder
     00002D1D  A$elementsbuilder$7489             elementsbuilder
     00002D1F  A$elementsbuilder$7490             elementsbuilder
     00002D20  A$elementsbuilder$7494             elementsbuilder
     00002D20  C$elementsbuilder.c$1066$2_0$361   elementsbuilder
     00002D21  A$elementsbuilder$7495             elementsbuilder
     00002D22  A$elementsbuilder$7496             elementsbuilder
     00002D23  A$elementsbuilder$7497             elementsbuilder
     00002D24  A$elementsbuilder$7498             elementsbuilder
ASxxxx Linker V03.00 + NoICE + sdld,  page 160.
Hexadecimal  [32-Bits]

Area                                    Addr        Size        Decimal Bytes (Attributes)
--------------------------------        ----        ----        ------- ----- ------------
_CODE                               00000200    00003D11 =       15633. bytes (REL,CON)

      Value  Global                              Global Defined In Module
      -----  --------------------------------   ------------------------
     00002D25  A$elementsbuilder$7499             elementsbuilder
     00002D26  A$elementsbuilder$7500             elementsbuilder
     00002D27  A$elementsbuilder$7501             elementsbuilder
     00002D28  A$elementsbuilder$7502             elementsbuilder
     00002D29  A$elementsbuilder$7503             elementsbuilder
     00002D2B  A$elementsbuilder$7504             elementsbuilder
     00002D2C  A$elementsbuilder$7505             elementsbuilder
     00002D2D  A$elementsbuilder$7506             elementsbuilder
     00002D2F  A$elementsbuilder$7507             elementsbuilder
     00002D30  A$elementsbuilder$7508             elementsbuilder
     00002D33  A$elementsbuilder$7509             elementsbuilder
     00002D34  A$elementsbuilder$7510             elementsbuilder
     00002D35  A$elementsbuilder$7511             elementsbuilder
     00002D36  A$elementsbuilder$7517             elementsbuilder
     00002D36  C$elementsbuilder.c$1067$3_0$362   elementsbuilder
     00002D37  A$elementsbuilder$7518             elementsbuilder
     00002D39  A$elementsbuilder$7522             elementsbuilder
     00002D39  C$elementsbuilder.c$1068$4_0$363   elementsbuilder
     00002D3B  A$elementsbuilder$7525             elementsbuilder
     00002D3C  A$elementsbuilder$7526             elementsbuilder
     00002D3D  A$elementsbuilder$7527             elementsbuilder
     00002D3E  A$elementsbuilder$7528             elementsbuilder
     00002D41  A$elementsbuilder$7529             elementsbuilder
     00002D42  A$elementsbuilder$7530             elementsbuilder
     00002D43  A$elementsbuilder$7531             elementsbuilder
     00002D44  A$elementsbuilder$7536             elementsbuilder
     00002D44  C$elementsbuilder.c$1070$3_0$362   elementsbuilder
     00002D45  A$elementsbuilder$7537             elementsbuilder
     00002D46  A$elementsbuilder$7538             elementsbuilder
     00002D49  A$elementsbuilder$7539             elementsbuilder
     00002D4A  A$elementsbuilder$7540             elementsbuilder
     00002D4B  A$elementsbuilder$7544             elementsbuilder
     00002D4B  C$elementsbuilder.c$1065$2_0$361   elementsbuilder
     00002D4C  A$elementsbuilder$7552             elementsbuilder
     00002D4C  C$elementsbuilder.c$1073$2_0$361   elementsbuilder
     00002D4C  XG$deleteAllContent$0$0            elementsbuilder
     00002D4E  A$elementsbuilder$7565             elementsbuilder
     00002D4E  C$elementsbuilder.c$1076$2_0$364   elementsbuilder
     00002D4E  C$elementsbuilder.c$1077$1_0$364   elementsbuilder
     00002D4E  G$deletePlayerContent$0$0          elementsbuilder
     00002D4E  _deletePlayerContent               elementsbuilder
     00002D51  A$elementsbuilder$7566             elementsbuilder
     00002D52  A$elementsbuilder$7567             elementsbuilder
     00002D55  A$elementsbuilder$7568             elementsbuilder
     00002D56  A$elementsbuilder$7572             elementsbuilder
     00002D56  C$elementsbuilder.c$1078$1_0$364   elementsbuilder
     00002D59  A$elementsbuilder$7573             elementsbuilder
     00002D5A  A$elementsbuilder$7574             elementsbuilder
     00002D5D  A$elementsbuilder$7575             elementsbuilder
     00002D5E  A$elementsbuilder$7583             elementsbuilder
     00002D5E  C$elementsbuilder.c$1079$1_0$364   elementsbuilder
ASxxxx Linker V03.00 + NoICE + sdld,  page 161.
Hexadecimal  [32-Bits]

Area                                    Addr        Size        Decimal Bytes (Attributes)
--------------------------------        ----        ----        ------- ----- ------------
_CODE                               00000200    00003D11 =       15633. bytes (REL,CON)

      Value  Global                              Global Defined In Module
      -----  --------------------------------   ------------------------
     00002D5E  XG$deletePlayerContent$0$0         elementsbuilder
     00002D5F  A$background$76                    background
     00002D5F  C$background.c$70$0_0$106          background
     00002D5F  C$background.c$72$1_0$106          background
     00002D5F  G$set_tile_background$0$0          background
     00002D5F  _set_tile_background               background
     00002D61  A$background$77                    background
     00002D62  A$background$78                    background
     00002D63  A$background$82                    background
     00002D63  C$background.c$73$1_0$106          background
     00002D64  A$background$83                    background
     00002D65  A$background$84                    background
     00002D67  A$background$85                    background
     00002D69  A$background$86                    background
     00002D6B  A$background$87                    background
     00002D6D  A$background$88                    background
     00002D6F  A$background$89                    background
     00002D71  A$background$90                    background
     00002D72  A$background$91                    background
     00002D74  A$background$92                    background
     00002D75  A$background$93                    background
     00002D76  A$background$94                    background
     00002D77  A$background$95                    background
     00002D78  A$background$96                    background
     00002D7A  A$background$97                    background
     00002D7C  A$background$98                    background
     00002D7E  A$background$99                    background
     00002D80  A$background$100                   background
     00002D82  A$background$101                   background
     00002D84  A$background$102                   background
     00002D85  A$background$103                   background
     00002D87  A$background$104                   background
     00002D88  A$background$108                   background
     00002D88  C$background.c$75$1_0$106          background
     00002D8A  A$background$109                   background
     00002D8B  A$background$110                   background
     00002D8E  A$background$111                   background
     00002D8F  A$background$112                   background
     00002D90  A$background$113                   background
     00002D93  A$background$114                   background
     00002D95  A$background$122                   background
     00002D95  C$background.c$76$1_0$106          background
     00002D95  XG$set_tile_background$0$0         background
     00002D96  G$sky_tiles$0_0$0                  background
     00002D96  _sky_tiles                         background
     00002DF6  A$background$230                   background
     00002DF6  C$background.c$79$1_0$108          background
     00002DF6  G$obtain_tile_background$0$0       background
     00002DF6  _obtain_tile_background            background
     00002DF7  A$background$231                   background
     00002DF8  A$background$235                   background
ASxxxx Linker V03.00 + NoICE + sdld,  page 162.
Hexadecimal  [32-Bits]

Area                                    Addr        Size        Decimal Bytes (Attributes)
--------------------------------        ----        ----        ------- ----- ------------
_CODE                               00000200    00003D11 =       15633. bytes (REL,CON)

      Value  Global                              Global Defined In Module
      -----  --------------------------------   ------------------------
     00002DF8  C$background.c$81$1_0$108          background
     00002DFA  A$background$236                   background
     00002DFB  A$background$237                   background
     00002DFD  A$background$238                   background
     00002DFE  A$background$239                   background
     00002E00  A$background$240                   background
     00002E01  A$background$241                   background
     00002E03  A$background$242                   background
     00002E04  A$background$243                   background
     00002E06  A$background$244                   background
     00002E07  A$background$245                   background
     00002E09  A$background$246                   background
     00002E0A  A$background$247                   background
     00002E0C  A$background$248                   background
     00002E0D  A$background$249                   background
     00002E0F  A$background$250                   background
     00002E10  A$background$251                   background
     00002E12  A$background$252                   background
     00002E13  A$background$253                   background
     00002E15  A$background$257                   background
     00002E15  C$background.c$82$1_0$108          background
     00002E17  A$background$258                   background
     00002E18  A$background$259                   background
     00002E19  A$background$260                   background
     00002E1A  A$background$261                   background
     00002E1C  A$background$262                   background
     00002E1E  A$background$263                   background
     00002E20  A$background$264                   background
     00002E22  A$background$265                   background
     00002E24  A$background$266                   background
     00002E26  A$background$270                   background
     00002E26  C$background.c$85$1_0$108          background
     00002E27  A$background$271                   background
     00002E28  A$background$272                   background
     00002E29  A$background$273                   background
     00002E2A  A$background$274                   background
     00002E2B  A$background$275                   background
     00002E2C  A$background$276                   background
     00002E2D  A$background$277                   background
     00002E2E  A$background$278                   background
     00002E2F  A$background$279                   background
     00002E30  A$background$280                   background
     00002E31  A$background$281                   background
     00002E32  A$background$282                   background
     00002E33  A$background$283                   background
     00002E34  A$background$284                   background
     00002E35  A$background$285                   background
     00002E36  A$background$286                   background
     00002E37  A$background$287                   background
     00002E38  A$background$288                   background
     00002E3B  A$background$289                   background
ASxxxx Linker V03.00 + NoICE + sdld,  page 163.
Hexadecimal  [32-Bits]

Area                                    Addr        Size        Decimal Bytes (Attributes)
--------------------------------        ----        ----        ------- ----- ------------
_CODE                               00000200    00003D11 =       15633. bytes (REL,CON)

      Value  Global                              Global Defined In Module
      -----  --------------------------------   ------------------------
     00002E3C  A$background$290                   background
     00002E3D  A$background$291                   background
     00002E3E  A$background$292                   background
     00002E3F  A$background$293                   background
     00002E40  A$background$294                   background
     00002E41  A$background$295                   background
     00002E42  A$background$299                   background
     00002E42  C$background.c$86$1_0$108          background
     00002E43  A$background$303                   background
     00002E44  A$background$304                   background
     00002E45  A$background$309                   background
     00002E45  C$background.c$87$1_0$108          background
     00002E45  XG$obtain_tile_background$0$0      background
     00002E46  A$background$319                   background
     00002E46  C$background.c$90$1_0$110          background
     00002E46  G$reinit_starfield$0$0             background
     00002E46  _reinit_starfield                  background
     00002E48  A$background$323                   background
     00002E48  C$background.c$92$1_0$110          background
     00002E4A  A$background$324                   background
     00002E4B  A$background$325                   background
     00002E4D  A$background$326                   background
     00002E4E  A$background$327                   background
     00002E50  A$background$328                   background
     00002E51  A$background$329                   background
     00002E53  A$background$330                   background
     00002E54  A$background$331                   background
     00002E55  A$background$332                   background
     00002E56  A$background$333                   background
     00002E57  A$background$334                   background
     00002E58  A$background$335                   background
     00002E59  A$background$336                   background
     00002E5C  A$background$337                   background
     00002E5D  A$background$338                   background
     00002E5E  A$background$339                   background
     00002E60  A$background$340                   background
     00002E62  A$background$341                   background
     00002E64  A$background$342                   background
     00002E65  A$background$343                   background
     00002E67  A$background$344                   background
     00002E68  A$background$346                   background
     00002E69  A$background$347                   background
     00002E6A  A$background$348                   background
     00002E6B  A$background$349                   background
     00002E6C  A$background$350                   background
     00002E6D  A$background$354                   background
     00002E6D  C$background.c$93$1_0$110          background
     00002E6E  A$background$355                   background
     00002E6F  A$background$356                   background
     00002E70  A$background$357                   background
     00002E71  A$background$358                   background
ASxxxx Linker V03.00 + NoICE + sdld,  page 164.
Hexadecimal  [32-Bits]

Area                                    Addr        Size        Decimal Bytes (Attributes)
--------------------------------        ----        ----        ------- ----- ------------
_CODE                               00000200    00003D11 =       15633. bytes (REL,CON)

      Value  Global                              Global Defined In Module
      -----  --------------------------------   ------------------------
     00002E72  A$background$359                   background
     00002E74  A$background$360                   background
     00002E75  A$background$361                   background
     00002E76  A$background$362                   background
     00002E77  A$background$363                   background
     00002E78  A$background$364                   background
     00002E79  A$background$365                   background
     00002E7A  A$background$366                   background
     00002E7B  A$background$367                   background
     00002E7C  A$background$368                   background
     00002E7D  A$background$369                   background
     00002E7E  A$background$370                   background
     00002E7F  A$background$374                   background
     00002E7F  C$background.c$94$1_0$110          background
     00002E80  A$background$375                   background
     00002E81  A$background$376                   background
     00002E84  A$background$377                   background
     00002E85  A$background$378                   background
     00002E86  A$background$379                   background
     00002E87  A$background$380                   background
     00002E89  A$background$381                   background
     00002E8A  A$background$382                   background
     00002E8B  A$background$383                   background
     00002E8C  A$background$384                   background
     00002E8E  A$background$385                   background
     00002E8F  A$background$386                   background
     00002E92  A$background$387                   background
     00002E93  A$background$388                   background
     00002E95  A$background$391                   background
     00002E96  A$background$392                   background
     00002E97  A$background$393                   background
     00002E98  A$background$394                   background
     00002E99  A$background$395                   background
     00002E9C  A$background$396                   background
     00002E9D  A$background$397                   background
     00002E9F  A$background$398                   background
     00002EA2  A$background$399                   background
     00002EA3  A$background$400                   background
     00002EA4  A$background$401                   background
     00002EA5  A$background$402                   background
     00002EA7  A$background$403                   background
     00002EA8  A$background$404                   background
     00002EA9  A$background$405                   background
     00002EAA  A$background$406                   background
     00002EAB  A$background$407                   background
     00002EAC  A$background$408                   background
     00002EAD  A$background$412                   background
     00002EAD  C$background.c$96$1_1$111          background
     00002EAF  A$background$413                   background
     00002EB0  A$background$414                   background
     00002EB1  A$background$415                   background
ASxxxx Linker V03.00 + NoICE + sdld,  page 165.
Hexadecimal  [32-Bits]

Area                                    Addr        Size        Decimal Bytes (Attributes)
--------------------------------        ----        ----        ------- ----- ------------
_CODE                               00000200    00003D11 =       15633. bytes (REL,CON)

      Value  Global                              Global Defined In Module
      -----  --------------------------------   ------------------------
     00002EB2  A$background$416                   background
     00002EB3  A$background$417                   background
     00002EB4  A$background$418                   background
     00002EB5  A$background$419                   background
     00002EB6  A$background$420                   background
     00002EB7  A$background$421                   background
     00002EB8  A$background$422                   background
     00002EB9  A$background$423                   background
     00002EBA  A$background$424                   background
     00002EBB  A$background$427                   background
     00002EBC  A$background$428                   background
     00002EBD  A$background$429                   background
     00002EBE  A$background$432                   background
     00002EBF  A$background$433                   background
     00002EC0  A$background$434                   background
     00002EC3  A$background$435                   background
     00002EC5  A$background$436                   background
     00002EC7  A$background$437                   background
     00002EC8  A$background$441                   background
     00002EC8  C$background.c$98$1_1$110          background
     00002EC9  A$background$442                   background
     00002ECA  A$background$443                   background
     00002ECD  A$background$444                   background
     00002ECE  A$background$448                   background
     00002ECE  C$background.c$99$1_1$110          background
     00002ECF  A$background$449                   background
     00002ED1  A$background$450                   background
     00002ED2  A$background$451                   background
     00002ED3  A$background$452                   background
     00002ED4  A$background$453                   background
     00002ED7  A$background$454                   background
     00002ED8  A$background$455                   background
     00002ED9  A$background$456                   background
     00002EDA  A$background$457                   background
     00002EDB  A$background$461                   background
     00002EDB  C$background.c$97$1_1$111          background
     00002EDD  A$background$462                   background
     00002EDE  A$background$463                   background
     00002EE0  A$background$464                   background
     00002EE2  A$background$468                   background
     00002EE2  C$background.c$98$2_1$112          background
     00002EE3  A$background$469                   background
     00002EE4  A$background$473                   background
     00002EE4  C$background.c$99$2_1$112          background
     00002EE6  A$background$477                   background
     00002EE6  C$background.c$100$2_2$113         background
     00002EE7  A$background$478                   background
     00002EE9  A$background$479                   background
     00002EEA  A$background$483                   background
     00002EEA  C$background.c$101$2_2$113         background
     00002EEC  A$background$484                   background
ASxxxx Linker V03.00 + NoICE + sdld,  page 166.
Hexadecimal  [32-Bits]

Area                                    Addr        Size        Decimal Bytes (Attributes)
--------------------------------        ----        ----        ------- ----- ------------
_CODE                               00000200    00003D11 =       15633. bytes (REL,CON)

      Value  Global                              Global Defined In Module
      -----  --------------------------------   ------------------------
     00002EED  A$background$485                   background
     00002EEE  A$background$486                   background
     00002EEF  A$background$487                   background
     00002EF0  A$background$488                   background
     00002EF2  A$background$489                   background
     00002EF3  A$background$490                   background
     00002EF4  A$background$491                   background
     00002EF5  A$background$492                   background
     00002EF6  A$background$493                   background
     00002EF7  A$background$494                   background
     00002EF8  A$background$495                   background
     00002EF9  A$background$496                   background
     00002EFA  A$background$497                   background
     00002EFB  A$background$498                   background
     00002EFC  A$background$499                   background
     00002EFD  A$background$500                   background
     00002EFE  A$background$501                   background
     00002F00  A$background$502                   background
     00002F01  A$background$503                   background
     00002F02  A$background$504                   background
     00002F03  A$background$505                   background
     00002F04  A$background$506                   background
     00002F05  A$background$507                   background
     00002F06  A$background$508                   background
     00002F07  A$background$509                   background
     00002F08  A$background$510                   background
     00002F09  A$background$511                   background
     00002F0A  A$background$512                   background
     00002F0B  A$background$513                   background
     00002F0C  A$background$514                   background
     00002F0F  A$background$515                   background
     00002F11  A$background$516                   background
     00002F12  A$background$517                   background
     00002F14  A$background$522                   background
     00002F14  C$background.c$103$2_1$114         background
     00002F16  A$background$523                   background
     00002F17  A$background$528                   background
     00002F17  C$background.c$106$1_1$111         background
     00002F18  A$background$529                   background
     00002F19  A$background$530                   background
     00002F1A  A$background$534                   background
     00002F1A  C$background.c$107$1_1$111         background
     00002F1B  A$background$535                   background
     00002F1C  A$background$536                   background
     00002F1F  A$background$537                   background
     00002F20  A$background$538                   background
     00002F21  A$background$539                   background
     00002F24  A$background$540                   background
     00002F25  A$background$541                   background
     00002F27  A$background$542                   background
     00002F28  A$background$543                   background
ASxxxx Linker V03.00 + NoICE + sdld,  page 167.
Hexadecimal  [32-Bits]

Area                                    Addr        Size        Decimal Bytes (Attributes)
--------------------------------        ----        ----        ------- ----- ------------
_CODE                               00000200    00003D11 =       15633. bytes (REL,CON)

      Value  Global                              Global Defined In Module
      -----  --------------------------------   ------------------------
     00002F2B  A$background$544                   background
     00002F2C  A$background$545                   background
     00002F2D  A$background$546                   background
     00002F30  A$background$547                   background
     00002F32  A$background$548                   background
     00002F33  A$background$549                   background
     00002F34  A$background$550                   background
     00002F35  A$background$551                   background
     00002F36  A$background$555                   background
     00002F36  C$background.c$108$1_1$111         background
     00002F37  A$background$556                   background
     00002F38  A$background$557                   background
     00002F3B  A$background$558                   background
     00002F3C  A$background$559                   background
     00002F3E  A$background$563                   background
     00002F40  A$background$568                   background
     00002F40  C$background.c$109$1_1$110         background
     00002F40  XG$reinit_starfield$0$0            background
     00002F41  A$background$581                   background
     00002F41  C$background.c$111$1_1$116         background
     00002F41  C$background.c$112$1_0$116         background
     00002F41  G$delete_startfield$0$0            background
     00002F41  _delete_startfield                 background
     00002F43  A$background$582                   background
     00002F44  A$background$583                   background
     00002F45  A$background$584                   background
     00002F46  A$background$585                   background
     00002F47  A$background$586                   background
     00002F48  A$background$587                   background
     00002F49  A$background$588                   background
     00002F4A  A$background$589                   background
     00002F4B  A$background$593                   background
     00002F4B  C$background.c$113$1_0$116         background
     00002F4C  A$background$594                   background
     00002F4D  A$background$595                   background
     00002F4E  A$background$596                   background
     00002F4F  A$background$597                   background
     00002F50  A$background$598                   background
     00002F51  A$background$599                   background
     00002F52  A$background$600                   background
     00002F53  A$background$604                   background
     00002F53  C$background.c$114$1_0$116         background
     00002F56  A$background$605                   background
     00002F57  A$background$606                   background
     00002F58  A$background$607                   background
     00002F59  A$background$608                   background
     00002F5A  A$background$612                   background
     00002F5A  C$background.c$115$1_0$116         background
     00002F5D  A$background$613                   background
     00002F5E  A$background$614                   background
     00002F60  A$background$618                   background
ASxxxx Linker V03.00 + NoICE + sdld,  page 168.
Hexadecimal  [32-Bits]

Area                                    Addr        Size        Decimal Bytes (Attributes)
--------------------------------        ----        ----        ------- ----- ------------
_CODE                               00000200    00003D11 =       15633. bytes (REL,CON)

      Value  Global                              Global Defined In Module
      -----  --------------------------------   ------------------------
     00002F60  C$background.c$116$1_0$116         background
     00002F63  A$background$619                   background
     00002F64  A$background$620                   background
     00002F66  A$background$624                   background
     00002F66  C$background.c$117$1_0$116         background
     00002F69  A$background$625                   background
     00002F6A  A$background$626                   background
     00002F6C  A$background$630                   background
     00002F6C  C$background.c$118$1_0$116         background
     00002F6F  A$background$631                   background
     00002F70  A$background$632                   background
     00002F72  A$background$640                   background
     00002F72  C$background.c$119$1_0$116         background
     00002F72  XG$delete_startfield$0$0           background
     00002F73  A$background$650                   background
     00002F73  C$background.c$130$1_0$118         background
     00002F73  G$process_startfield$0$0           background
     00002F73  _process_startfield                background
     00002F75  A$background$654                   background
     00002F77  A$background$655                   background
     00002F78  A$background$656                   background
     00002F7A  A$background$657                   background
     00002F7B  A$background$658                   background
     00002F7D  A$background$659                   background
     00002F7E  A$background$660                   background
     00002F80  A$background$661                   background
     00002F81  A$background$662                   background
     00002F82  A$background$663                   background
     00002F83  A$background$664                   background
     00002F84  A$background$665                   background
     00002F87  A$background$666                   background
     00002F88  A$background$667                   background
     00002F89  A$background$668                   background
     00002F8A  A$background$669                   background
     00002F8B  A$background$670                   background
     00002F8C  A$background$671                   background
     00002F8D  A$background$672                   background
     00002F8E  A$background$673                   background
     00002F8F  A$background$677                   background
     00002F8F  C$background.c$133$1_1$118         background
     00002F91  A$background$678                   background
     00002F92  A$background$679                   background
     00002F93  A$background$680                   background
     00002F94  A$background$681                   background
     00002F97  A$background$682                   background
     00002F98  A$background$683                   background
     00002F99  A$background$684                   background
     00002F9A  A$background$685                   background
     00002F9C  A$background$686                   background
     00002F9D  A$background$687                   background
     00002F9E  A$background$688                   background
ASxxxx Linker V03.00 + NoICE + sdld,  page 169.
Hexadecimal  [32-Bits]

Area                                    Addr        Size        Decimal Bytes (Attributes)
--------------------------------        ----        ----        ------- ----- ------------
_CODE                               00000200    00003D11 =       15633. bytes (REL,CON)

      Value  Global                              Global Defined In Module
      -----  --------------------------------   ------------------------
     00002F9F  A$background$689                   background
     00002FA1  A$background$690                   background
     00002FA2  A$background$694                   background
     00002FA2  C$background.c$132$1_0$118         background
     00002FA3  A$background$695                   background
     00002FA4  A$background$696                   background
     00002FA6  A$background$700                   background
     00002FA6  C$background.c$133$2_0$119         background
     00002FA7  A$background$701                   background
     00002FA8  A$background$702                   background
     00002FA9  A$background$703                   background
     00002FAA  A$background$704                   background
     00002FAB  A$background$705                   background
     00002FAC  A$background$706                   background
     00002FAD  A$background$707                   background
     00002FAE  A$background$708                   background
     00002FAF  A$background$709                   background
     00002FB1  A$background$710                   background
     00002FB2  A$background$711                   background
     00002FB3  A$background$712                   background
     00002FB4  A$background$713                   background
     00002FB5  A$background$714                   background
     00002FB6  A$background$717                   background
     00002FB7  A$background$718                   background
     00002FB8  A$background$719                   background
     00002FB9  A$background$722                   background
     00002FBB  A$background$723                   background
     00002FBC  A$background$724                   background
     00002FBD  A$background$725                   background
     00002FBE  A$background$726                   background
     00002FBF  A$background$727                   background
     00002FC2  A$background$728                   background
     00002FC4  A$background$733                   background
     00002FC4  C$background.c$136$1_1$120         background
     00002FC6  A$background$734                   background
     00002FC7  A$background$735                   background
     00002FC8  A$background$736                   background
     00002FC9  A$background$737                   background
     00002FCC  A$background$738                   background
     00002FCD  A$background$739                   background
     00002FCE  A$background$740                   background
     00002FCF  A$background$741                   background
     00002FD1  A$background$742                   background
     00002FD2  A$background$743                   background
     00002FD3  A$background$744                   background
     00002FD4  A$background$745                   background
     00002FD6  A$background$746                   background
     00002FD7  A$background$747                   background
     00002FD8  A$background$748                   background
     00002FD9  A$background$749                   background
     00002FDA  A$background$750                   background
ASxxxx Linker V03.00 + NoICE + sdld,  page 170.
Hexadecimal  [32-Bits]

Area                                    Addr        Size        Decimal Bytes (Attributes)
--------------------------------        ----        ----        ------- ----- ------------
_CODE                               00000200    00003D11 =       15633. bytes (REL,CON)

      Value  Global                              Global Defined In Module
      -----  --------------------------------   ------------------------
     00002FDB  A$background$751                   background
     00002FDC  A$background$752                   background
     00002FDD  A$background$753                   background
     00002FDE  A$background$754                   background
     00002FDF  A$background$755                   background
     00002FE0  A$background$756                   background
     00002FE1  A$background$757                   background
     00002FE2  A$background$758                   background
     00002FE3  A$background$759                   background
     00002FE4  A$background$760                   background
     00002FE5  A$background$761                   background
     00002FE8  A$background$762                   background
     00002FE9  A$background$763                   background
     00002FEA  A$background$764                   background
     00002FEB  A$background$765                   background
     00002FEC  A$background$766                   background
     00002FEE  A$background$767                   background
     00002FEF  A$background$768                   background
     00002FF0  A$background$769                   background
     00002FF1  A$background$770                   background
     00002FF2  A$background$771                   background
     00002FF3  A$background$772                   background
     00002FF4  A$background$773                   background
     00002FF6  A$background$774                   background
     00002FF7  A$background$775                   background
     00002FF8  A$background$776                   background
     00002FF9  A$background$780                   background
     00002FF9  C$background.c$142$1_1$118         background
     00002FFB  A$background$781                   background
     00002FFC  A$background$782                   background
     00002FFD  A$background$783                   background
     00002FFE  A$background$784                   background
     00002FFF  A$background$785                   background
     00003001  A$background$786                   background
     00003002  A$background$787                   background
     00003003  A$background$788                   background
     00003004  A$background$789                   background
     00003005  A$background$793                   background
     00003005  C$background.c$138$1_1$120         background
     00003007  A$background$794                   background
     00003008  A$background$795                   background
     00003009  A$background$796                   background
     0000300A  A$background$797                   background
     0000300C  A$background$798                   background
     0000300D  A$background$799                   background
     0000300F  A$background$800                   background
     00003010  A$background$801                   background
     00003012  A$background$802                   background
     00003014  A$background$803                   background
     00003016  A$background$804                   background
     00003018  A$background$805                   background
ASxxxx Linker V03.00 + NoICE + sdld,  page 171.
Hexadecimal  [32-Bits]

Area                                    Addr        Size        Decimal Bytes (Attributes)
--------------------------------        ----        ----        ------- ----- ------------
_CODE                               00000200    00003D11 =       15633. bytes (REL,CON)

      Value  Global                              Global Defined In Module
      -----  --------------------------------   ------------------------
     00003019  A$background$806                   background
     0000301B  A$background$808                   background
     0000301D  A$background$809                   background
     0000301F  A$background$810                   background
     00003020  A$background$812                   background
     00003023  A$background$816                   background
     00003023  C$background.c$140$2_1$121         background
     00003025  A$background$817                   background
     00003026  A$background$818                   background
     00003027  A$background$819                   background
     00003028  A$background$820                   background
     0000302A  A$background$821                   background
     0000302B  A$background$822                   background
     0000302C  A$background$823                   background
     0000302D  A$background$824                   background
     0000302E  A$background$825                   background
     0000302F  A$background$826                   background
     00003030  A$background$827                   background
     00003032  A$background$828                   background
     00003033  A$background$829                   background
     00003034  A$background$833                   background
     00003034  C$background.c$142$2_1$121         background
     00003035  A$background$834                   background
     00003036  A$background$835                   background
     00003037  A$background$836                   background
     00003038  A$background$837                   background
     00003039  A$background$838                   background
     0000303A  A$background$839                   background
     0000303C  A$background$840                   background
     0000303D  A$background$841                   background
     0000303E  A$background$842                   background
     0000303F  A$background$843                   background
     00003040  A$background$844                   background
     00003043  A$background$845                   background
     00003045  A$background$846                   background
     00003046  A$background$850                   background
     00003046  C$background.c$145$1_1$118         background
     00003048  A$background$851                   background
     00003049  A$background$852                   background
     0000304A  A$background$853                   background
     0000304B  A$background$854                   background
     0000304E  A$background$855                   background
     0000304F  A$background$856                   background
     00003050  A$background$857                   background
     00003051  A$background$858                   background
     00003053  A$background$859                   background
     00003054  A$background$860                   background
     00003055  A$background$861                   background
     00003056  A$background$862                   background
     00003058  A$background$863                   background
     00003059  A$background$867                   background
ASxxxx Linker V03.00 + NoICE + sdld,  page 172.
Hexadecimal  [32-Bits]

Area                                    Addr        Size        Decimal Bytes (Attributes)
--------------------------------        ----        ----        ------- ----- ------------
_CODE                               00000200    00003D11 =       15633. bytes (REL,CON)

      Value  Global                              Global Defined In Module
      -----  --------------------------------   ------------------------
     00003059  C$background.c$143$2_1$121         background
     0000305A  A$background$868                   background
     0000305C  A$background$869                   background
     0000305E  A$background$873                   background
     0000305E  C$background.c$144$3_1$122         background
     0000305F  A$background$874                   background
     00003060  A$background$875                   background
     00003062  A$background$879                   background
     00003062  C$background.c$145$3_1$122         background
     00003064  A$background$880                   background
     00003065  A$background$881                   background
     00003066  A$background$882                   background
     00003067  A$background$883                   background
     00003068  A$background$884                   background
     00003069  A$background$885                   background
     0000306A  A$background$886                   background
     0000306B  A$background$887                   background
     0000306C  A$background$888                   background
     0000306D  A$background$889                   background
     0000306E  A$background$890                   background
     0000306F  A$background$891                   background
     00003070  A$background$892                   background
     00003071  A$background$893                   background
     00003072  A$background$894                   background
     00003073  A$background$895                   background
     00003074  A$background$896                   background
     00003075  A$background$897                   background
     00003076  A$background$898                   background
     00003077  A$background$899                   background
     00003078  A$background$900                   background
     00003079  A$background$901                   background
     0000307A  A$background$902                   background
     0000307B  A$background$903                   background
     0000307D  A$background$904                   background
     0000307E  A$background$905                   background
     0000307F  A$background$906                   background
     00003080  A$background$907                   background
     00003081  A$background$908                   background
     00003084  A$background$909                   background
     00003086  A$background$910                   background
     00003088  A$background$915                   background
     00003088  C$background.c$147$3_1$123         background
     00003089  A$background$916                   background
     0000308A  A$background$917                   background
     0000308C  A$background$922                   background
     0000308E  A$background$923                   background
     0000308F  A$background$924                   background
     00003090  A$background$925                   background
     00003091  A$background$926                   background
     00003094  A$background$927                   background
     00003095  A$background$928                   background
ASxxxx Linker V03.00 + NoICE + sdld,  page 173.
Hexadecimal  [32-Bits]

Area                                    Addr        Size        Decimal Bytes (Attributes)
--------------------------------        ----        ----        ------- ----- ------------
_CODE                               00000200    00003D11 =       15633. bytes (REL,CON)

      Value  Global                              Global Defined In Module
      -----  --------------------------------   ------------------------
     00003096  A$background$929                   background
     00003097  A$background$930                   background
     00003098  A$background$934                   background
     00003098  C$background.c$152$1_1$118         background
     0000309A  A$background$935                   background
     0000309B  A$background$936                   background
     0000309C  A$background$937                   background
     0000309D  A$background$938                   background
     0000309E  A$background$939                   background
     0000309F  A$background$940                   background
     000030A0  A$background$943                   background
     000030A1  A$background$947                   background
     000030A1  C$background.c$151$2_1$121         background
     000030A2  A$background$948                   background
     000030A4  A$background$952                   background
     000030A4  C$background.c$152$3_1$124         background
     000030A5  A$background$953                   background
     000030A6  A$background$954                   background
     000030A8  A$background$955                   background
     000030A9  A$background$956                   background
     000030AA  A$background$957                   background
     000030AB  A$background$958                   background
     000030AC  A$background$959                   background
     000030AD  A$background$960                   background
     000030AE  A$background$964                   background
     000030AE  C$background.c$153$3_1$124         background
     000030B0  A$background$965                   background
     000030B1  A$background$966                   background
     000030B2  A$background$967                   background
     000030B3  A$background$968                   background
     000030B4  A$background$969                   background
     000030B5  A$background$972                   background
     000030B7  A$background$973                   background
     000030B8  A$background$974                   background
     000030BA  A$background$978                   background
     000030BA  C$background.c$154$4_1$125         background
     000030BB  A$background$979                   background
     000030BC  A$background$980                   background
     000030BE  A$background$981                   background
     000030BF  A$background$982                   background
     000030C0  A$background$983                   background
     000030C1  A$background$984                   background
     000030C2  A$background$985                   background
     000030C3  A$background$986                   background
     000030C4  A$background$990                   background
     000030C4  C$background.c$155$4_1$125         background
     000030C5  A$background$991                   background
     000030C6  A$background$992                   background
     000030C8  A$background$997                   background
     000030C8  C$background.c$158$3_1$126         background
     000030C9  A$background$998                   background
ASxxxx Linker V03.00 + NoICE + sdld,  page 174.
Hexadecimal  [32-Bits]

Area                                    Addr        Size        Decimal Bytes (Attributes)
--------------------------------        ----        ----        ------- ----- ------------
_CODE                               00000200    00003D11 =       15633. bytes (REL,CON)

      Value  Global                              Global Defined In Module
      -----  --------------------------------   ------------------------
     000030CA  A$background$999                   background
     000030CC  A$background$1000                  background
     000030CD  A$background$1001                  background
     000030CE  A$background$1002                  background
     000030CF  A$background$1003                  background
     000030D0  A$background$1004                  background
     000030D1  A$background$1005                  background
     000030D2  A$background$1009                  background
     000030D2  C$background.c$159$3_1$126         background
     000030D4  A$background$1010                  background
     000030D5  A$background$1011                  background
     000030D6  A$background$1012                  background
     000030D7  A$background$1013                  background
     000030D8  A$background$1014                  background
     000030DA  A$background$1015                  background
     000030DC  A$background$1019                  background
     000030DC  C$background.c$160$4_1$127         background
     000030DD  A$background$1020                  background
     000030DE  A$background$1021                  background
     000030DF  A$background$1022                  background
     000030E0  A$background$1023                  background
     000030E1  A$background$1024                  background
     000030E2  A$background$1025                  background
     000030E3  A$background$1026                  background
     000030E4  A$background$1030                  background
     000030E4  C$background.c$161$4_1$127         background
     000030E6  A$background$1031                  background
     000030E7  A$background$1036                  background
     000030E7  C$background.c$165$2_1$121         background
     000030E9  A$background$1037                  background
     000030EA  A$background$1038                  background
     000030EB  A$background$1039                  background
     000030EC  A$background$1040                  background
     000030ED  A$background$1041                  background
     000030EE  A$background$1042                  background
     000030EF  A$background$1043                  background
     000030F0  A$background$1044                  background
     000030F1  A$background$1045                  background
     000030F2  A$background$1049                  background
     000030F2  C$background.c$166$2_1$121         background
     000030F4  A$background$1050                  background
     000030F5  A$background$1051                  background
     000030F6  A$background$1052                  background
     000030F7  A$background$1053                  background
     000030F9  A$background$1054                  background
     000030FA  A$background$1055                  background
     000030FB  A$background$1056                  background
     000030FC  A$background$1057                  background
     000030FD  A$background$1058                  background
     000030FE  A$background$1059                  background
     00003100  A$background$1064                  background
ASxxxx Linker V03.00 + NoICE + sdld,  page 175.
Hexadecimal  [32-Bits]

Area                                    Addr        Size        Decimal Bytes (Attributes)
--------------------------------        ----        ----        ------- ----- ------------
_CODE                               00000200    00003D11 =       15633. bytes (REL,CON)

      Value  Global                              Global Defined In Module
      -----  --------------------------------   ------------------------
     00003100  C$background.c$169$2_1$128         background
     00003102  A$background$1065                  background
     00003103  A$background$1066                  background
     00003104  A$background$1067                  background
     00003106  A$background$1068                  background
     00003107  A$background$1069                  background
     00003108  A$background$1070                  background
     00003109  A$background$1071                  background
     0000310A  A$background$1072                  background
     0000310D  A$background$1073                  background
     0000310E  A$background$1074                  background
     00003111  A$background$1075                  background
     00003113  A$background$1079                  background
     00003113  C$background.c$170$2_1$128         background
     00003115  A$background$1080                  background
     00003116  A$background$1081                  background
     00003117  A$background$1082                  background
     00003118  A$background$1083                  background
     00003119  A$background$1084                  background
     0000311C  A$background$1085                  background
     0000311D  A$background$1089                  background
     0000311D  C$background.c$171$2_1$128         background
     0000311F  A$background$1090                  background
     00003120  A$background$1091                  background
     00003121  A$background$1092                  background
     00003122  A$background$1093                  background
     00003123  A$background$1094                  background
     00003125  A$background$1095                  background
     00003126  A$background$1096                  background
     00003127  A$background$1097                  background
     00003128  A$background$1098                  background
     00003129  A$background$1099                  background
     0000312C  A$background$1100                  background
     0000312E  A$background$1105                  background
     00003130  A$background$1110                  background
     00003130  C$background.c$173$1_1$118         background
     00003130  XG$process_startfield$0$0          background
     00003131  A$background$1120                  background
     00003131  C$background.c$178$1_1$130         background
     00003131  G$init_first_startfield$0$0        background
     00003131  _init_first_startfield             background
     00003133  A$background$1124                  background
     00003133  C$background.c$179$1_0$130         background
     00003135  A$background$1125                  background
     00003136  A$background$1126                  background
     00003138  A$background$1127                  background
     00003139  A$background$1128                  background
     0000313B  A$background$1129                  background
     0000313C  A$background$1130                  background
     0000313E  A$background$1131                  background
     0000313F  A$background$1132                  background
ASxxxx Linker V03.00 + NoICE + sdld,  page 176.
Hexadecimal  [32-Bits]

Area                                    Addr        Size        Decimal Bytes (Attributes)
--------------------------------        ----        ----        ------- ----- ------------
_CODE                               00000200    00003D11 =       15633. bytes (REL,CON)

      Value  Global                              Global Defined In Module
      -----  --------------------------------   ------------------------
     00003140  A$background$1133                  background
     00003141  A$background$1134                  background
     00003142  A$background$1135                  background
     00003143  A$background$1136                  background
     00003144  A$background$1137                  background
     00003147  A$background$1138                  background
     00003148  A$background$1139                  background
     0000314A  A$background$1142                  background
     0000314B  A$background$1143                  background
     0000314C  A$background$1144                  background
     0000314D  A$background$1145                  background
     0000314E  A$background$1146                  background
     00003151  A$background$1147                  background
     00003152  A$background$1148                  background
     00003153  A$background$1149                  background
     00003155  A$background$1150                  background
     00003158  A$background$1151                  background
     00003159  A$background$1152                  background
     0000315A  A$background$1153                  background
     0000315B  A$background$1154                  background
     0000315C  A$background$1155                  background
     0000315D  A$background$1156                  background
     0000315E  A$background$1157                  background
     0000315F  A$background$1158                  background
     00003160  A$background$1162                  background
     00003160  C$background.c$180$1_0$130         background
     00003161  A$background$1163                  background
     00003162  A$background$1164                  background
     00003163  A$background$1165                  background
     00003164  A$background$1166                  background
     00003165  A$background$1167                  background
     00003166  A$background$1168                  background
     00003167  A$background$1169                  background
     00003168  A$background$1170                  background
     00003169  A$background$1171                  background
     0000316A  A$background$1175                  background
     0000316A  C$background.c$181$1_0$130         background
     0000316B  A$background$1176                  background
     0000316C  A$background$1177                  background
     0000316F  A$background$1178                  background
     00003170  A$background$1179                  background
     00003171  A$background$1180                  background
     00003172  A$background$1181                  background
     00003174  A$background$1182                  background
     00003175  A$background$1183                  background
     00003176  A$background$1184                  background
     00003177  A$background$1185                  background
     00003179  A$background$1186                  background
     0000317A  A$background$1187                  background
     0000317D  A$background$1188                  background
     0000317E  A$background$1189                  background
ASxxxx Linker V03.00 + NoICE + sdld,  page 177.
Hexadecimal  [32-Bits]

Area                                    Addr        Size        Decimal Bytes (Attributes)
--------------------------------        ----        ----        ------- ----- ------------
_CODE                               00000200    00003D11 =       15633. bytes (REL,CON)

      Value  Global                              Global Defined In Module
      -----  --------------------------------   ------------------------
     00003180  A$background$1192                  background
     00003181  A$background$1193                  background
     00003182  A$background$1194                  background
     00003183  A$background$1195                  background
     00003184  A$background$1196                  background
     00003187  A$background$1197                  background
     00003188  A$background$1198                  background
     0000318A  A$background$1199                  background
     0000318D  A$background$1200                  background
     0000318E  A$background$1201                  background
     0000318F  A$background$1202                  background
     00003190  A$background$1203                  background
     00003192  A$background$1204                  background
     00003193  A$background$1205                  background
     00003194  A$background$1206                  background
     00003195  A$background$1207                  background
     00003196  A$background$1208                  background
     00003197  A$background$1209                  background
     00003198  A$background$1213                  background
     00003198  C$background.c$183$1_0$130         background
     00003199  A$background$1214                  background
     0000319A  A$background$1215                  background
     0000319D  A$background$1216                  background
     0000319E  A$background$1217                  background
     0000319F  A$background$1218                  background
     000031A0  A$background$1219                  background
     000031A2  A$background$1220                  background
     000031A3  A$background$1221                  background
     000031A4  A$background$1222                  background
     000031A5  A$background$1223                  background
     000031A7  A$background$1224                  background
     000031A8  A$background$1225                  background
     000031A9  A$background$1226                  background
     000031AA  A$background$1227                  background
     000031AB  A$background$1228                  background
     000031AD  A$background$1232                  background
     000031AD  C$background.c$184$1_0$130         background
     000031AE  A$background$1233                  background
     000031AF  A$background$1234                  background
     000031B2  A$background$1235                  background
     000031B3  A$background$1236                  background
     000031B5  A$background$1240                  background
     000031B5  C$background.c$185$1_0$130         background
     000031B6  A$background$1241                  background
     000031B7  A$background$1242                  background
     000031BA  A$background$1243                  background
     000031BB  A$background$1244                  background
     000031BC  A$background$1245                  background
     000031BF  A$background$1246                  background
     000031C0  A$background$1247                  background
     000031C2  A$background$1248                  background
ASxxxx Linker V03.00 + NoICE + sdld,  page 178.
Hexadecimal  [32-Bits]

Area                                    Addr        Size        Decimal Bytes (Attributes)
--------------------------------        ----        ----        ------- ----- ------------
_CODE                               00000200    00003D11 =       15633. bytes (REL,CON)

      Value  Global                              Global Defined In Module
      -----  --------------------------------   ------------------------
     000031C3  A$background$1249                  background
     000031C6  A$background$1250                  background
     000031C7  A$background$1251                  background
     000031C8  A$background$1252                  background
     000031CB  A$background$1253                  background
     000031CD  A$background$1254                  background
     000031CE  A$background$1255                  background
     000031CF  A$background$1256                  background
     000031D0  A$background$1257                  background
     000031D1  A$background$1261                  background
     000031D1  C$background.c$187$1_1$131         background
     000031D3  A$background$1262                  background
     000031D4  A$background$1263                  background
     000031D5  A$background$1264                  background
     000031D6  A$background$1265                  background
     000031D7  A$background$1266                  background
     000031D8  A$background$1267                  background
     000031D9  A$background$1268                  background
     000031DA  A$background$1269                  background
     000031DB  A$background$1270                  background
     000031DC  A$background$1271                  background
     000031DD  A$background$1272                  background
     000031DE  A$background$1273                  background
     000031DF  A$background$1276                  background
     000031E0  A$background$1277                  background
     000031E1  A$background$1278                  background
     000031E2  A$background$1281                  background
     000031E3  A$background$1282                  background
     000031E4  A$background$1283                  background
     000031E7  A$background$1284                  background
     000031E9  A$background$1285                  background
     000031EA  A$background$1289                  background
     000031EA  C$background.c$189$1_1$130         background
     000031EB  A$background$1290                  background
     000031EC  A$background$1291                  background
     000031EF  A$background$1292                  background
     000031F0  A$background$1293                  background
     000031F1  A$background$1294                  background
     000031F2  A$background$1298                  background
     000031F2  C$background.c$188$1_1$131         background
     000031F3  A$background$1299                  background
     000031F5  A$background$1300                  background
     000031F7  A$background$1304                  background
     000031F7  C$background.c$189$2_1$132         background
     000031F8  A$background$1305                  background
     000031F9  A$background$1309                  background
     000031F9  C$background.c$190$2_2$133         background
     000031FB  A$background$1310                  background
     000031FC  A$background$1311                  background
     000031FD  A$background$1315                  background
     000031FD  C$background.c$191$2_2$133         background
ASxxxx Linker V03.00 + NoICE + sdld,  page 179.
Hexadecimal  [32-Bits]

Area                                    Addr        Size        Decimal Bytes (Attributes)
--------------------------------        ----        ----        ------- ----- ------------
_CODE                               00000200    00003D11 =       15633. bytes (REL,CON)

      Value  Global                              Global Defined In Module
      -----  --------------------------------   ------------------------
     000031FE  A$background$1316                  background
     000031FF  A$background$1317                  background
     00003200  A$background$1318                  background
     00003201  A$background$1319                  background
     00003202  A$background$1320                  background
     00003203  A$background$1321                  background
     00003204  A$background$1322                  background
     00003205  A$background$1323                  background
     00003206  A$background$1324                  background
     00003207  A$background$1325                  background
     00003208  A$background$1326                  background
     00003209  A$background$1327                  background
     0000320A  A$background$1328                  background
     0000320B  A$background$1329                  background
     0000320C  A$background$1330                  background
     0000320D  A$background$1331                  background
     0000320E  A$background$1332                  background
     0000320F  A$background$1333                  background
     00003210  A$background$1334                  background
     00003211  A$background$1335                  background
     00003212  A$background$1336                  background
     00003213  A$background$1337                  background
     00003214  A$background$1338                  background
     00003215  A$background$1339                  background
     00003216  A$background$1340                  background
     00003217  A$background$1341                  background
     00003218  A$background$1342                  background
     0000321B  A$background$1343                  background
     0000321D  A$background$1344                  background
     0000321F  A$background$1349                  background
     0000321F  C$background.c$193$2_1$134         background
     00003221  A$background$1350                  background
     00003222  A$background$1355                  background
     00003222  C$background.c$196$1_1$131         background
     00003224  A$background$1356                  background
     00003225  A$background$1357                  background
     00003226  A$background$1358                  background
     00003227  A$background$1359                  background
     00003228  A$background$1360                  background
     00003229  A$background$1361                  background
     0000322A  A$background$1362                  background
     0000322B  A$background$1363                  background
     0000322C  A$background$1364                  background
     0000322D  A$background$1365                  background
     0000322E  A$background$1369                  background
     00003230  A$background$1374                  background
     00003230  C$background.c$197$1_1$130         background
     00003230  XG$init_first_startfield$0$0       background
     00003231  A$background$1387                  background
     00003231  C$background.c$205$1_1$136         background
     00003231  C$background.c$206$1_0$136         background
ASxxxx Linker V03.00 + NoICE + sdld,  page 180.
Hexadecimal  [32-Bits]

Area                                    Addr        Size        Decimal Bytes (Attributes)
--------------------------------        ----        ----        ------- ----- ------------
_CODE                               00000200    00003D11 =       15633. bytes (REL,CON)

      Value  Global                              Global Defined In Module
      -----  --------------------------------   ------------------------
     00003231  G$init_background$0$0              background
     00003231  _init_background                   background
     00003233  A$background$1388                  background
     00003235  A$background$1389                  background
     00003236  A$background$1390                  background
     00003237  A$background$1391                  background
     0000323A  A$background$1392                  background
     0000323B  A$background$1396                  background
     0000323B  C$background.c$208$1_0$136         background
     0000323E  A$background$1397                  background
     0000323F  A$background$1398                  background
     00003242  A$background$1399                  background
     00003243  A$background$1400                  background
     00003246  A$background$1401                  background
     00003248  A$background$1405                  background
     00003248  C$background.c$210$1_0$136         background
     0000324A  A$background$1406                  background
     0000324B  A$background$1407                  background
     0000324C  A$background$1408                  background
     0000324D  A$background$1409                  background
     0000324E  A$background$1410                  background
     00003251  A$background$1411                  background
     00003252  A$background$1412                  background
     00003255  A$background$1413                  background
     00003256  A$background$1414                  background
     00003257  A$background$1415                  background
     00003258  A$background$1419                  background
     00003258  C$background.c$212$3_0$138         background
     0000325A  A$background$1421                  background
     0000325B  A$background$1422                  background
     0000325D  A$background$1423                  background
     0000325E  A$background$1427                  background
     0000325E  C$background.c$213$3_0$138         background
     00003260  A$background$1428                  background
     00003261  A$background$1429                  background
     00003262  A$background$1430                  background
     00003263  A$background$1431                  background
     00003264  A$background$1432                  background
     00003265  A$background$1433                  background
     00003266  A$background$1434                  background
     00003269  A$background$1435                  background
     0000326A  A$background$1436                  background
     0000326B  A$background$1437                  background
     0000326C  A$background$1438                  background
     0000326F  A$background$1439                  background
     00003270  A$background$1440                  background
     00003271  A$background$1444                  background
     00003271  C$background.c$212$2_0$137         background
     00003272  A$background$1452                  background
     00003272  C$background.c$217$2_0$136         background
     00003272  XG$init_background$0$0             background
ASxxxx Linker V03.00 + NoICE + sdld,  page 181.
Hexadecimal  [32-Bits]

Area                                    Addr        Size        Decimal Bytes (Attributes)
--------------------------------        ----        ----        ------- ----- ------------
_CODE                               00000200    00003D11 =       15633. bytes (REL,CON)

      Value  Global                              Global Defined In Module
      -----  --------------------------------   ------------------------
     00003274  A$background$1465                  background
     00003274  C$background.c$220$2_0$141         background
     00003274  C$background.c$221$3_0$142         background
     00003274  G$process_background$0$0           background
     00003274  _process_background                background
     00003276  A$background$1467                  background
     00003277  A$background$1468                  background
     00003279  A$background$1469                  background
     0000327A  A$background$1473                  background
     0000327A  C$background.c$222$3_0$142         background
     0000327C  A$background$1474                  background
     0000327D  A$background$1475                  background
     0000327E  A$background$1476                  background
     0000327F  A$background$1477                  background
     00003280  A$background$1478                  background
     00003281  A$background$1479                  background
     00003282  A$background$1480                  background
     00003285  A$background$1481                  background
     00003286  A$background$1482                  background
     00003287  A$background$1483                  background
     00003288  A$background$1484                  background
     00003289  A$background$1485                  background
     0000328B  A$background$1486                  background
     0000328C  A$background$1487                  background
     0000328D  A$background$1490                  background
     0000328E  A$background$1493                  background
     0000328F  A$background$1494                  background
     00003290  A$background$1495                  background
     00003293  A$background$1496                  background
     00003295  A$background$1497                  background
     00003296  A$background$1501                  background
     00003296  C$background.c$221$2_0$141         background
     00003297  A$background$1509                  background
     00003297  C$background.c$224$2_0$141         background
     00003297  XG$process_background$0$0          background
     00003299  A$gamebuilder$93                   gamebuilder
     00003299  C$gamebuilder.c$31$0_0$119         gamebuilder
     00003299  G$numberToTiles$0$0                gamebuilder
     00003299  _numberToTiles                     gamebuilder
     0000329B  A$gamebuilder$94                   gamebuilder
     0000329C  A$gamebuilder$95                   gamebuilder
     0000329D  A$gamebuilder$97                   gamebuilder
     0000329F  A$gamebuilder$98                   gamebuilder
     000032A0  A$gamebuilder$102                  gamebuilder
     000032A0  C$gamebuilder.c$33$3_0$120         gamebuilder
     000032A1  A$gamebuilder$103                  gamebuilder
     000032A2  A$gamebuilder$104                  gamebuilder
     000032A3  A$gamebuilder$105                  gamebuilder
     000032A4  A$gamebuilder$106                  gamebuilder
     000032A5  A$gamebuilder$107                  gamebuilder
     000032A7  A$gamebuilder$108                  gamebuilder
ASxxxx Linker V03.00 + NoICE + sdld,  page 182.
Hexadecimal  [32-Bits]

Area                                    Addr        Size        Decimal Bytes (Attributes)
--------------------------------        ----        ----        ------- ----- ------------
_CODE                               00000200    00003D11 =       15633. bytes (REL,CON)

      Value  Global                              Global Defined In Module
      -----  --------------------------------   ------------------------
     000032A8  A$gamebuilder$109                  gamebuilder
     000032A9  A$gamebuilder$110                  gamebuilder
     000032AA  A$gamebuilder$111                  gamebuilder
     000032AB  A$gamebuilder$112                  gamebuilder
     000032AC  A$gamebuilder$113                  gamebuilder
     000032AD  A$gamebuilder$114                  gamebuilder
     000032AE  A$gamebuilder$115                  gamebuilder
     000032AF  A$gamebuilder$116                  gamebuilder
     000032B2  A$gamebuilder$117                  gamebuilder
     000032B3  A$gamebuilder$118                  gamebuilder
     000032B5  A$gamebuilder$119                  gamebuilder
     000032B6  A$gamebuilder$120                  gamebuilder
     000032B7  A$gamebuilder$123                  gamebuilder
     000032B8  A$gamebuilder$126                  gamebuilder
     000032B9  A$gamebuilder$127                  gamebuilder
     000032BC  A$gamebuilder$128                  gamebuilder
     000032BE  A$gamebuilder$129                  gamebuilder
     000032BF  A$gamebuilder$134                  gamebuilder
     000032C0  A$gamebuilder$135                  gamebuilder
     000032C1  A$gamebuilder$136                  gamebuilder
     000032C2  A$gamebuilder$137                  gamebuilder
     000032C3  A$gamebuilder$138                  gamebuilder
     000032C4  A$gamebuilder$142                  gamebuilder
     000032C4  C$gamebuilder.c$34$2_0$119         gamebuilder
     000032C5  A$gamebuilder$143                  gamebuilder
     000032C8  A$gamebuilder$144                  gamebuilder
     000032C9  A$gamebuilder$145                  gamebuilder
     000032CB  A$gamebuilder$146                  gamebuilder
     000032CC  A$gamebuilder$147                  gamebuilder
     000032CD  A$gamebuilder$148                  gamebuilder
     000032CE  A$gamebuilder$149                  gamebuilder
     000032CF  A$gamebuilder$150                  gamebuilder
     000032D2  A$gamebuilder$151                  gamebuilder
     000032D4  A$gamebuilder$152                  gamebuilder
     000032D5  A$gamebuilder$153                  gamebuilder
     000032D7  A$gamebuilder$154                  gamebuilder
     000032D8  A$gamebuilder$155                  gamebuilder
     000032D9  A$gamebuilder$156                  gamebuilder
     000032DA  A$gamebuilder$160                  gamebuilder
     000032DA  C$gamebuilder.c$32$2_0$119         gamebuilder
     000032DB  A$gamebuilder$168                  gamebuilder
     000032DB  C$gamebuilder.c$36$2_0$119         gamebuilder
     000032DB  XG$numberToTiles$0$0               gamebuilder
     000032DD  A$gamebuilder$181                  gamebuilder
     000032DD  C$gamebuilder.c$39$2_0$122         gamebuilder
     000032DD  C$gamebuilder.c$40$1_0$122         gamebuilder
     000032DD  G$setHUD$0$0                       gamebuilder
     000032DD  _setHUD                            gamebuilder
     000032E0  A$gamebuilder$182                  gamebuilder
     000032E2  A$gamebuilder$183                  gamebuilder
     000032E3  A$gamebuilder$184                  gamebuilder
ASxxxx Linker V03.00 + NoICE + sdld,  page 183.
Hexadecimal  [32-Bits]

Area                                    Addr        Size        Decimal Bytes (Attributes)
--------------------------------        ----        ----        ------- ----- ------------
_CODE                               00000200    00003D11 =       15633. bytes (REL,CON)

      Value  Global                              Global Defined In Module
      -----  --------------------------------   ------------------------
     000032E5  A$gamebuilder$185                  gamebuilder
     000032E7  A$gamebuilder$186                  gamebuilder
     000032E8  A$gamebuilder$187                  gamebuilder
     000032E9  A$gamebuilder$188                  gamebuilder
     000032EA  A$gamebuilder$189                  gamebuilder
     000032EB  A$gamebuilder$190                  gamebuilder
     000032EE  A$gamebuilder$191                  gamebuilder
     000032F0  A$gamebuilder$195                  gamebuilder
     000032F0  C$gamebuilder.c$41$1_0$122         gamebuilder
     000032F3  A$gamebuilder$196                  gamebuilder
     000032F5  A$gamebuilder$197                  gamebuilder
     000032F6  A$gamebuilder$198                  gamebuilder
     000032F8  A$gamebuilder$199                  gamebuilder
     000032FA  A$gamebuilder$200                  gamebuilder
     000032FB  A$gamebuilder$201                  gamebuilder
     000032FC  A$gamebuilder$202                  gamebuilder
     000032FD  A$gamebuilder$203                  gamebuilder
     000032FE  A$gamebuilder$204                  gamebuilder
     00003301  A$gamebuilder$205                  gamebuilder
     00003303  A$gamebuilder$209                  gamebuilder
     00003303  C$gamebuilder.c$43$1_0$122         gamebuilder
     00003306  A$gamebuilder$213                  gamebuilder
     00003306  C$gamebuilder.c$42$1_0$122         gamebuilder
     00003308  A$gamebuilder$214                  gamebuilder
     00003309  A$gamebuilder$215                  gamebuilder
     0000330B  A$gamebuilder$216                  gamebuilder
     0000330D  A$gamebuilder$220                  gamebuilder
     0000330D  C$gamebuilder.c$43$2_0$123         gamebuilder
     0000330F  A$gamebuilder$221                  gamebuilder
     00003310  A$gamebuilder$222                  gamebuilder
     00003312  A$gamebuilder$227                  gamebuilder
     00003312  C$gamebuilder.c$44$1_0$122         gamebuilder
     00003314  A$gamebuilder$228                  gamebuilder
     00003315  A$gamebuilder$229                  gamebuilder
     00003317  A$gamebuilder$230                  gamebuilder
     00003319  A$gamebuilder$234                  gamebuilder
     00003319  C$gamebuilder.c$45$2_0$124         gamebuilder
     0000331B  A$gamebuilder$235                  gamebuilder
     0000331C  A$gamebuilder$236                  gamebuilder
     0000331E  A$gamebuilder$241                  gamebuilder
     0000331E  C$gamebuilder.c$46$1_0$122         gamebuilder
     00003320  A$gamebuilder$242                  gamebuilder
     00003321  A$gamebuilder$243                  gamebuilder
     00003323  A$gamebuilder$244                  gamebuilder
     00003325  A$gamebuilder$248                  gamebuilder
     00003325  C$gamebuilder.c$47$2_0$125         gamebuilder
     00003327  A$gamebuilder$249                  gamebuilder
     00003328  A$gamebuilder$250                  gamebuilder
     0000332A  A$gamebuilder$255                  gamebuilder
     0000332A  C$gamebuilder.c$49$2_0$126         gamebuilder
     0000332C  A$gamebuilder$256                  gamebuilder
ASxxxx Linker V03.00 + NoICE + sdld,  page 184.
Hexadecimal  [32-Bits]

Area                                    Addr        Size        Decimal Bytes (Attributes)
--------------------------------        ----        ----        ------- ----- ------------
_CODE                               00000200    00003D11 =       15633. bytes (REL,CON)

      Value  Global                              Global Defined In Module
      -----  --------------------------------   ------------------------
     0000332D  A$gamebuilder$261                  gamebuilder
     0000332D  C$gamebuilder.c$51$1_0$122         gamebuilder
     00003330  A$gamebuilder$262                  gamebuilder
     00003331  A$gamebuilder$263                  gamebuilder
     00003334  A$gamebuilder$264                  gamebuilder
     00003335  A$gamebuilder$265                  gamebuilder
     00003336  A$gamebuilder$266                  gamebuilder
     00003337  A$gamebuilder$267                  gamebuilder
     00003338  A$gamebuilder$268                  gamebuilder
     0000333B  A$gamebuilder$269                  gamebuilder
     0000333D  A$gamebuilder$277                  gamebuilder
     0000333D  C$gamebuilder.c$52$1_0$122         gamebuilder
     0000333D  XG$setHUD$0$0                      gamebuilder
     0000333E  A$gamebuilder$290                  gamebuilder
     0000333E  C$gamebuilder.c$56$1_0$129         gamebuilder
     0000333E  G$performantDelay$0$0              gamebuilder
     0000333E  _performantDelay                   gamebuilder
     00003340  A$gamebuilder$292                  gamebuilder
     00003341  A$gamebuilder$293                  gamebuilder
     00003343  A$gamebuilder$294                  gamebuilder
     00003344  A$gamebuilder$295                  gamebuilder
     00003345  A$gamebuilder$299                  gamebuilder
     00003345  C$gamebuilder.c$59$3_0$130         gamebuilder
     00003348  A$gamebuilder$303                  gamebuilder
     00003348  C$gamebuilder.c$58$2_0$129         gamebuilder
     00003349  A$gamebuilder$311                  gamebuilder
     00003349  C$gamebuilder.c$61$2_0$129         gamebuilder
     00003349  XG$performantDelay$0$0             gamebuilder
     0000334B  A$gamebuilder$324                  gamebuilder
     0000334B  C$gamebuilder.c$64$2_0$131         gamebuilder
     0000334B  C$gamebuilder.c$65$1_0$131         gamebuilder
     0000334B  G$incWorldScroll$0$0               gamebuilder
     0000334B  _incWorldScroll                    gamebuilder
     0000334E  A$gamebuilder$325                  gamebuilder
     0000334F  A$gamebuilder$326                  gamebuilder
     00003350  A$gamebuilder$327                  gamebuilder
     00003351  A$gamebuilder$328                  gamebuilder
     00003352  A$gamebuilder$336                  gamebuilder
     00003352  C$gamebuilder.c$66$1_0$131         gamebuilder
     00003352  XG$incWorldScroll$0$0              gamebuilder
     00003353  A$gamebuilder$349                  gamebuilder
     00003353  C$gamebuilder.c$69$1_0$132         gamebuilder
     00003353  C$gamebuilder.c$70$1_0$132         gamebuilder
     00003353  G$getWorldScroll$0$0               gamebuilder
     00003353  _getWorldScroll                    gamebuilder
     00003356  A$gamebuilder$350                  gamebuilder
     00003357  A$gamebuilder$351                  gamebuilder
     00003358  A$gamebuilder$352                  gamebuilder
     00003359  A$gamebuilder$360                  gamebuilder
     00003359  C$gamebuilder.c$71$1_0$132         gamebuilder
     00003359  XG$getWorldScroll$0$0              gamebuilder
ASxxxx Linker V03.00 + NoICE + sdld,  page 185.
Hexadecimal  [32-Bits]

Area                                    Addr        Size        Decimal Bytes (Attributes)
--------------------------------        ----        ----        ------- ----- ------------
_CODE                               00000200    00003D11 =       15633. bytes (REL,CON)

      Value  Global                              Global Defined In Module
      -----  --------------------------------   ------------------------
     0000335A  A$gamebuilder$373                  gamebuilder
     0000335A  C$gamebuilder.c$74$1_0$134         gamebuilder
     0000335A  C$gamebuilder.c$75$1_0$134         gamebuilder
     0000335A  G$launchLevel$0$0                  gamebuilder
     0000335A  _launchLevel                       gamebuilder
     0000335D  A$gamebuilder$377                  gamebuilder
     0000335D  C$gamebuilder.c$77$1_0$134         gamebuilder
     0000335F  A$gamebuilder$378                  gamebuilder
     00003361  A$gamebuilder$379                  gamebuilder
     00003363  A$gamebuilder$383                  gamebuilder
     00003363  C$gamebuilder.c$78$1_0$134         gamebuilder
     00003365  A$gamebuilder$384                  gamebuilder
     00003367  A$gamebuilder$385                  gamebuilder
     00003369  A$gamebuilder$389                  gamebuilder
     00003369  C$gamebuilder.c$79$1_0$134         gamebuilder
     0000336B  A$gamebuilder$390                  gamebuilder
     0000336D  A$gamebuilder$391                  gamebuilder
     0000336F  A$gamebuilder$395                  gamebuilder
     0000336F  C$gamebuilder.c$80$1_0$134         gamebuilder
     00003371  A$gamebuilder$396                  gamebuilder
     00003373  A$gamebuilder$397                  gamebuilder
     00003375  A$gamebuilder$401                  gamebuilder
     00003375  C$gamebuilder.c$83$1_0$134         gamebuilder
     00003378  A$gamebuilder$402                  gamebuilder
     00003379  A$gamebuilder$403                  gamebuilder
     0000337C  A$gamebuilder$404                  gamebuilder
     0000337D  A$gamebuilder$405                  gamebuilder
     00003380  A$gamebuilder$406                  gamebuilder
     00003382  A$gamebuilder$410                  gamebuilder
     00003382  C$gamebuilder.c$87$1_0$134         gamebuilder
     00003385  A$gamebuilder$411                  gamebuilder
     00003386  A$gamebuilder$412                  gamebuilder
     00003389  A$gamebuilder$413                  gamebuilder
     0000338A  A$gamebuilder$414                  gamebuilder
     0000338D  A$gamebuilder$415                  gamebuilder
     0000338F  A$gamebuilder$419                  gamebuilder
     0000338F  C$gamebuilder.c$91$1_0$134         gamebuilder
     00003392  A$gamebuilder$423                  gamebuilder
     00003392  C$gamebuilder.c$92$1_0$134         gamebuilder
     00003395  A$gamebuilder$424                  gamebuilder
     00003396  A$gamebuilder$425                  gamebuilder
     00003399  A$gamebuilder$426                  gamebuilder
     0000339A  A$gamebuilder$427                  gamebuilder
     0000339D  A$gamebuilder$428                  gamebuilder
     0000339E  A$gamebuilder$429                  gamebuilder
     0000339F  A$gamebuilder$433                  gamebuilder
     0000339F  C$gamebuilder.c$93$1_0$134         gamebuilder
     000033A0  A$gamebuilder$434                  gamebuilder
     000033A1  A$gamebuilder$435                  gamebuilder
     000033A2  A$gamebuilder$436                  gamebuilder
     000033A3  A$gamebuilder$437                  gamebuilder
ASxxxx Linker V03.00 + NoICE + sdld,  page 186.
Hexadecimal  [32-Bits]

Area                                    Addr        Size        Decimal Bytes (Attributes)
--------------------------------        ----        ----        ------- ----- ------------
_CODE                               00000200    00003D11 =       15633. bytes (REL,CON)

      Value  Global                              Global Defined In Module
      -----  --------------------------------   ------------------------
     000033A4  A$gamebuilder$438                  gamebuilder
     000033A5  A$gamebuilder$439                  gamebuilder
     000033A8  A$gamebuilder$440                  gamebuilder
     000033A9  A$gamebuilder$444                  gamebuilder
     000033A9  C$gamebuilder.c$96$1_0$134         gamebuilder
     000033AC  A$gamebuilder$445                  gamebuilder
     000033AD  A$gamebuilder$446                  gamebuilder
     000033AE  A$gamebuilder$447                  gamebuilder
     000033AF  A$gamebuilder$448                  gamebuilder
     000033B0  A$gamebuilder$449                  gamebuilder
     000033B3  A$gamebuilder$450                  gamebuilder
     000033B5  A$gamebuilder$452                  gamebuilder
     000033B7  A$gamebuilder$453                  gamebuilder
     000033B9  A$gamebuilder$454                  gamebuilder
     000033BB  A$gamebuilder$455                  gamebuilder
     000033BD  A$gamebuilder$459                  gamebuilder
     000033BD  C$gamebuilder.c$100$1_0$134        gamebuilder
     000033C0  A$gamebuilder$460                  gamebuilder
     000033C2  A$gamebuilder$461                  gamebuilder
     000033C3  A$gamebuilder$462                  gamebuilder
     000033C5  A$gamebuilder$466                  gamebuilder
     000033C5  C$gamebuilder.c$102$1_0$134        gamebuilder
     000033C7  A$gamebuilder$467                  gamebuilder
     000033C9  A$gamebuilder$468                  gamebuilder
     000033CB  A$gamebuilder$472                  gamebuilder
     000033CB  C$gamebuilder.c$103$1_0$134        gamebuilder
     000033CD  A$gamebuilder$473                  gamebuilder
     000033CF  A$gamebuilder$474                  gamebuilder
     000033D1  A$gamebuilder$478                  gamebuilder
     000033D1  C$gamebuilder.c$104$1_0$134        gamebuilder
     000033D3  A$gamebuilder$479                  gamebuilder
     000033D5  A$gamebuilder$480                  gamebuilder
     000033D7  A$gamebuilder$484                  gamebuilder
     000033D7  C$gamebuilder.c$105$1_0$134        gamebuilder
     000033D9  A$gamebuilder$485                  gamebuilder
     000033DB  A$gamebuilder$486                  gamebuilder
     000033DD  A$gamebuilder$490                  gamebuilder
     000033DD  C$gamebuilder.c$108$1_0$134        gamebuilder
     000033DF  A$gamebuilder$491                  gamebuilder
     000033E0  A$gamebuilder$492                  gamebuilder
     000033E1  A$gamebuilder$493                  gamebuilder
     000033E2  A$gamebuilder$494                  gamebuilder
     000033E3  A$gamebuilder$495                  gamebuilder
     000033E6  A$gamebuilder$496                  gamebuilder
     000033E7  A$gamebuilder$497                  gamebuilder
     000033EA  A$gamebuilder$498                  gamebuilder
     000033EB  A$gamebuilder$499                  gamebuilder
     000033EC  A$gamebuilder$503                  gamebuilder
     000033EC  C$gamebuilder.c$112$1_0$134        gamebuilder
     000033ED  A$gamebuilder$504                  gamebuilder
     000033EE  A$gamebuilder$505                  gamebuilder
ASxxxx Linker V03.00 + NoICE + sdld,  page 187.
Hexadecimal  [32-Bits]

Area                                    Addr        Size        Decimal Bytes (Attributes)
--------------------------------        ----        ----        ------- ----- ------------
_CODE                               00000200    00003D11 =       15633. bytes (REL,CON)

      Value  Global                              Global Defined In Module
      -----  --------------------------------   ------------------------
     000033F0  A$gamebuilder$506                  gamebuilder
     000033F1  A$gamebuilder$507                  gamebuilder
     000033F2  A$gamebuilder$508                  gamebuilder
     000033F3  A$gamebuilder$509                  gamebuilder
     000033F4  A$gamebuilder$510                  gamebuilder
     000033F5  A$gamebuilder$511                  gamebuilder
     000033F6  A$gamebuilder$512                  gamebuilder
     000033F9  A$gamebuilder$513                  gamebuilder
     000033FA  A$gamebuilder$514                  gamebuilder
     000033FB  A$gamebuilder$515                  gamebuilder
     000033FC  A$gamebuilder$516                  gamebuilder
     000033FD  A$gamebuilder$517                  gamebuilder
     000033FE  A$gamebuilder$518                  gamebuilder
     00003401  A$gamebuilder$519                  gamebuilder
     00003403  A$gamebuilder$523                  gamebuilder
     00003403  C$gamebuilder.c$115$1_0$134        gamebuilder
     00003405  A$gamebuilder$524                  gamebuilder
     00003406  A$gamebuilder$525                  gamebuilder
     00003407  A$gamebuilder$526                  gamebuilder
     00003408  A$gamebuilder$527                  gamebuilder
     00003409  A$gamebuilder$528                  gamebuilder
     0000340C  A$gamebuilder$529                  gamebuilder
     0000340D  A$gamebuilder$533                  gamebuilder
     0000340D  C$gamebuilder.c$118$1_0$134        gamebuilder
     00003410  A$gamebuilder$537                  gamebuilder
     00003410  C$gamebuilder.c$119$1_0$134        gamebuilder
     00003413  A$gamebuilder$538                  gamebuilder
     00003414  A$gamebuilder$539                  gamebuilder
     00003417  A$gamebuilder$540                  gamebuilder
     00003418  A$gamebuilder$541                  gamebuilder
     00003419  A$gamebuilder$552                  gamebuilder
     00003419  C$gamebuilder.c$120$1_0$134        gamebuilder
     00003419  C$gamebuilder.c$122$1_0$134        gamebuilder
     00003419  XG$launchLevel$0$0                 gamebuilder
     0000341C  A$gamebuilder$562                  gamebuilder
     0000341C  C$gamebuilder.c$125$1_0$138        gamebuilder
     0000341C  G$stepLevel$0$0                    gamebuilder
     0000341C  _stepLevel                         gamebuilder
     0000341D  A$gamebuilder$566                  gamebuilder
     0000341D  C$gamebuilder.c$127$2_0$138        gamebuilder
     0000341F  A$gamebuilder$570                  gamebuilder
     0000341F  C$gamebuilder.c$132$1_0$138        gamebuilder
     00003422  A$gamebuilder$571                  gamebuilder
     00003423  A$gamebuilder$572                  gamebuilder
     00003424  A$gamebuilder$573                  gamebuilder
     00003427  A$gamebuilder$574                  gamebuilder
     00003428  A$gamebuilder$575                  gamebuilder
     00003429  A$gamebuilder$576                  gamebuilder
     0000342A  A$gamebuilder$577                  gamebuilder
     0000342B  A$gamebuilder$578                  gamebuilder
     0000342E  A$gamebuilder$579                  gamebuilder
ASxxxx Linker V03.00 + NoICE + sdld,  page 188.
Hexadecimal  [32-Bits]

Area                                    Addr        Size        Decimal Bytes (Attributes)
--------------------------------        ----        ----        ------- ----- ------------
_CODE                               00000200    00003D11 =       15633. bytes (REL,CON)

      Value  Global                              Global Defined In Module
      -----  --------------------------------   ------------------------
     00003430  A$gamebuilder$580                  gamebuilder
     00003431  A$gamebuilder$581                  gamebuilder
     00003432  A$gamebuilder$582                  gamebuilder
     00003434  A$gamebuilder$586                  gamebuilder
     00003434  C$gamebuilder.c$133$2_0$139        gamebuilder
     00003437  A$gamebuilder$590                  gamebuilder
     00003437  C$gamebuilder.c$134$2_1$140        gamebuilder
     0000343A  A$gamebuilder$591                  gamebuilder
     0000343B  A$gamebuilder$592                  gamebuilder
     0000343C  A$gamebuilder$593                  gamebuilder
     0000343D  A$gamebuilder$594                  gamebuilder
     0000343F  A$gamebuilder$595                  gamebuilder
     00003441  A$gamebuilder$596                  gamebuilder
     00003444  A$gamebuilder$597                  gamebuilder
     00003445  A$gamebuilder$598                  gamebuilder
     00003446  A$gamebuilder$599                  gamebuilder
     00003447  A$gamebuilder$601                  gamebuilder
     00003449  A$gamebuilder$602                  gamebuilder
     0000344B  A$gamebuilder$603                  gamebuilder
     0000344D  A$gamebuilder$604                  gamebuilder
     0000344F  A$gamebuilder$605                  gamebuilder
     00003451  A$gamebuilder$606                  gamebuilder
     00003453  A$gamebuilder$607                  gamebuilder
     00003456  A$gamebuilder$608                  gamebuilder
     00003457  A$gamebuilder$609                  gamebuilder
     00003458  A$gamebuilder$613                  gamebuilder
     00003458  C$gamebuilder.c$135$2_1$140        gamebuilder
     00003459  A$gamebuilder$614                  gamebuilder
     0000345B  A$gamebuilder$615                  gamebuilder
     0000345C  A$gamebuilder$616                  gamebuilder
     0000345E  A$gamebuilder$617                  gamebuilder
     00003460  A$gamebuilder$621                  gamebuilder
     00003460  C$gamebuilder.c$136$3_1$141        gamebuilder
     00003462  A$gamebuilder$622                  gamebuilder
     00003463  A$gamebuilder$623                  gamebuilder
     00003464  A$gamebuilder$624                  gamebuilder
     00003467  A$gamebuilder$625                  gamebuilder
     00003468  A$gamebuilder$626                  gamebuilder
     00003469  A$gamebuilder$627                  gamebuilder
     0000346A  A$gamebuilder$628                  gamebuilder
     0000346B  A$gamebuilder$629                  gamebuilder
     0000346E  A$gamebuilder$630                  gamebuilder
     0000346F  A$gamebuilder$631                  gamebuilder
     00003470  A$gamebuilder$632                  gamebuilder
     00003471  A$gamebuilder$633                  gamebuilder
     00003472  A$gamebuilder$634                  gamebuilder
     00003473  A$gamebuilder$635                  gamebuilder
     00003474  A$gamebuilder$636                  gamebuilder
     00003477  A$gamebuilder$637                  gamebuilder
     00003479  A$gamebuilder$642                  gamebuilder
     00003479  C$gamebuilder.c$140$1_0$138        gamebuilder
ASxxxx Linker V03.00 + NoICE + sdld,  page 189.
Hexadecimal  [32-Bits]

Area                                    Addr        Size        Decimal Bytes (Attributes)
--------------------------------        ----        ----        ------- ----- ------------
_CODE                               00000200    00003D11 =       15633. bytes (REL,CON)

      Value  Global                              Global Defined In Module
      -----  --------------------------------   ------------------------
     0000347C  A$gamebuilder$643                  gamebuilder
     0000347D  A$gamebuilder$644                  gamebuilder
     0000347E  A$gamebuilder$645                  gamebuilder
     0000347F  A$gamebuilder$646                  gamebuilder
     00003480  A$gamebuilder$647                  gamebuilder
     00003483  A$gamebuilder$648                  gamebuilder
     00003484  A$gamebuilder$650                  gamebuilder
     00003487  A$gamebuilder$651                  gamebuilder
     00003488  A$gamebuilder$652                  gamebuilder
     0000348A  A$gamebuilder$654                  gamebuilder
     0000348B  A$gamebuilder$655                  gamebuilder
     0000348D  A$gamebuilder$659                  gamebuilder
     0000348D  C$gamebuilder.c$143$1_0$138        gamebuilder
     0000348E  A$gamebuilder$660                  gamebuilder
     00003490  A$gamebuilder$661                  gamebuilder
     00003491  A$gamebuilder$662                  gamebuilder
     00003493  A$gamebuilder$663                  gamebuilder
     00003494  A$gamebuilder$664                  gamebuilder
     00003496  A$gamebuilder$665                  gamebuilder
     00003498  A$gamebuilder$666                  gamebuilder
     0000349A  A$gamebuilder$667                  gamebuilder
     0000349C  A$gamebuilder$668                  gamebuilder
     0000349E  A$gamebuilder$669                  gamebuilder
     0000349F  A$gamebuilder$670                  gamebuilder
     000034A1  A$gamebuilder$672                  gamebuilder
     000034A3  A$gamebuilder$673                  gamebuilder
     000034A5  A$gamebuilder$674                  gamebuilder
     000034A6  A$gamebuilder$676                  gamebuilder
     000034A8  A$gamebuilder$680                  gamebuilder
     000034A8  C$gamebuilder.c$144$2_0$142        gamebuilder
     000034AA  A$gamebuilder$681                  gamebuilder
     000034AC  A$gamebuilder$685                  gamebuilder
     000034AC  C$gamebuilder.c$145$2_0$142        gamebuilder
     000034AF  A$gamebuilder$689                  gamebuilder
     000034AF  C$gamebuilder.c$146$2_0$142        gamebuilder
     000034B2  A$gamebuilder$690                  gamebuilder
     000034B3  A$gamebuilder$691                  gamebuilder
     000034B6  A$gamebuilder$692                  gamebuilder
     000034B7  A$gamebuilder$696                  gamebuilder
     000034B7  C$gamebuilder.c$147$2_0$142        gamebuilder
     000034BA  A$gamebuilder$701                  gamebuilder
     000034BA  C$gamebuilder.c$150$1_0$138        gamebuilder
     000034BC  A$gamebuilder$702                  gamebuilder
     000034BD  A$gamebuilder$706                  gamebuilder
     000034BE  A$gamebuilder$711                  gamebuilder
     000034BE  C$gamebuilder.c$151$1_0$138        gamebuilder
     000034BE  XG$stepLevel$0$0                   gamebuilder
     000034BF  A$world$70                         world
     000034BF  C$world.c$16$0_0$112               world
     000034BF  C$world.c$17$1_0$112               world
     000034BF  G$getLevelFromIndex$0$0            world
ASxxxx Linker V03.00 + NoICE + sdld,  page 190.
Hexadecimal  [32-Bits]

Area                                    Addr        Size        Decimal Bytes (Attributes)
--------------------------------        ----        ----        ------- ----- ------------
_CODE                               00000200    00003D11 =       15633. bytes (REL,CON)

      Value  Global                              Global Defined In Module
      -----  --------------------------------   ------------------------
     000034BF  _getLevelFromIndex                 world
     000034C1  A$world$71                         world
     000034C2  A$world$72                         world
     000034C3  A$world$73                         world
     000034C4  A$world$74                         world
     000034C6  A$world$78                         world
     000034C6  C$world.c$18$2_0$113               world
     000034C9  A$world$79                         world
     000034CA  A$world$80                         world
     000034CD  A$world$81                         world
     000034CE  A$world$82                         world
     000034D1  A$world$83                         world
     000034D2  A$world$84                         world
     000034D5  A$world$85                         world
     000034D7  A$world$89                         world
     000034D7  C$world.c$19$2_0$113               world
     000034DA  A$world$90                         world
     000034DB  A$world$95                         world
     000034DB  C$world.c$21$2_0$114               world
     000034DE  A$world$103                        world
     000034DE  C$world.c$23$1_0$112               world
     000034DE  XG$getLevelFromIndex$0$0           world
     000034DF  G$movementMountainUp$0_0$0         world
     000034DF  _movementMountainUp                world
     0000357F  G$movementMountainDown$0_0$0       world
     0000357F  _movementMountainDown              world
     0000361F  G$movementShawUp$0_0$0             world
     0000361F  _movementShawUp                    world
     000036BF  G$movementUpRotationDown$0_0$0     world
     000036BF  _movementUpRotationDown            world
     0000389F  G$movementShawDown$0_0$0           world
     0000389F  _movementShawDown                  world
     0000393F  A$world$1246                       world
     0000393F  C$world.c$26$1_0$115               world
     0000393F  C$world.c$28$1_0$115               world
     0000393F  G$buildLevelEnemiesLevelOne$0$0    world
     0000393F  _buildLevelEnemiesLevelOne         world
     00003942  A$world$1247                       world
     00003944  A$world$1251                       world
     00003944  C$world.c$30$1_0$115               world
     00003947  A$world$1252                       world
     00003949  A$world$1256                       world
     00003949  C$world.c$32$1_0$115               world
     0000394C  A$world$1257                       world
     0000394E  A$world$1258                       world
     0000394F  A$world$1259                       world
     00003951  A$world$1263                       world
     00003951  C$world.c$33$1_0$115               world
     00003954  A$world$1264                       world
     00003956  A$world$1268                       world
     00003956  C$world.c$34$1_0$115               world
ASxxxx Linker V03.00 + NoICE + sdld,  page 191.
Hexadecimal  [32-Bits]

Area                                    Addr        Size        Decimal Bytes (Attributes)
--------------------------------        ----        ----        ------- ----- ------------
_CODE                               00000200    00003D11 =       15633. bytes (REL,CON)

      Value  Global                              Global Defined In Module
      -----  --------------------------------   ------------------------
     00003959  A$world$1269                       world
     0000395B  A$world$1273                       world
     0000395B  C$world.c$35$1_0$115               world
     0000395E  A$world$1274                       world
     00003960  A$world$1278                       world
     00003960  C$world.c$36$1_0$115               world
     00003963  A$world$1279                       world
     00003965  A$world$1283                       world
     00003965  C$world.c$37$1_0$115               world
     00003968  A$world$1284                       world
     0000396A  A$world$1288                       world
     0000396A  C$world.c$38$1_0$115               world
     0000396D  A$world$1289                       world
     0000396F  A$world$1293                       world
     0000396F  C$world.c$39$1_0$115               world
     00003972  A$world$1294                       world
     00003974  A$world$1298                       world
     00003974  C$world.c$40$1_0$115               world
     00003977  A$world$1299                       world
     00003979  A$world$1303                       world
     00003979  C$world.c$41$1_0$115               world
     0000397C  A$world$1304                       world
     0000397E  A$world$1305                       world
     0000397F  A$world$1306                       world
     00003981  A$world$1310                       world
     00003981  C$world.c$43$1_0$115               world
     00003984  A$world$1311                       world
     00003986  A$world$1312                       world
     00003987  A$world$1313                       world
     00003989  A$world$1317                       world
     00003989  C$world.c$44$1_0$115               world
     0000398C  A$world$1318                       world
     0000398E  A$world$1322                       world
     0000398E  C$world.c$45$1_0$115               world
     00003991  A$world$1323                       world
     00003993  A$world$1327                       world
     00003993  C$world.c$46$1_0$115               world
     00003996  A$world$1328                       world
     00003998  A$world$1332                       world
     00003998  C$world.c$47$1_0$115               world
     0000399B  A$world$1333                       world
     0000399D  A$world$1337                       world
     0000399D  C$world.c$48$1_0$115               world
     000039A0  A$world$1338                       world
     000039A2  A$world$1342                       world
     000039A2  C$world.c$49$1_0$115               world
     000039A5  A$world$1343                       world
     000039A7  A$world$1347                       world
     000039A7  C$world.c$50$1_0$115               world
     000039AA  A$world$1348                       world
     000039AC  A$world$1352                       world
ASxxxx Linker V03.00 + NoICE + sdld,  page 192.
Hexadecimal  [32-Bits]

Area                                    Addr        Size        Decimal Bytes (Attributes)
--------------------------------        ----        ----        ------- ----- ------------
_CODE                               00000200    00003D11 =       15633. bytes (REL,CON)

      Value  Global                              Global Defined In Module
      -----  --------------------------------   ------------------------
     000039AC  C$world.c$51$1_0$115               world
     000039AF  A$world$1353                       world
     000039B1  A$world$1357                       world
     000039B1  C$world.c$52$1_0$115               world
     000039B4  A$world$1358                       world
     000039B6  A$world$1359                       world
     000039B7  A$world$1360                       world
     000039B9  A$world$1364                       world
     000039B9  C$world.c$55$1_0$115               world
     000039BC  A$world$1365                       world
     000039BE  A$world$1366                       world
     000039BF  A$world$1367                       world
     000039C1  A$world$1371                       world
     000039C1  C$world.c$56$1_0$115               world
     000039C4  A$world$1372                       world
     000039C6  A$world$1376                       world
     000039C6  C$world.c$57$1_0$115               world
     000039C9  A$world$1377                       world
     000039CB  A$world$1381                       world
     000039CB  C$world.c$58$1_0$115               world
     000039CE  A$world$1382                       world
     000039D0  A$world$1386                       world
     000039D0  C$world.c$59$1_0$115               world
     000039D3  A$world$1387                       world
     000039D5  A$world$1391                       world
     000039D5  C$world.c$60$1_0$115               world
     000039D8  A$world$1392                       world
     000039DA  A$world$1396                       world
     000039DA  C$world.c$61$1_0$115               world
     000039DD  A$world$1397                       world
     000039DF  A$world$1401                       world
     000039DF  C$world.c$62$1_0$115               world
     000039E2  A$world$1402                       world
     000039E4  A$world$1406                       world
     000039E4  C$world.c$63$1_0$115               world
     000039E7  A$world$1407                       world
     000039E9  A$world$1411                       world
     000039E9  C$world.c$64$1_0$115               world
     000039EC  A$world$1412                       world
     000039EE  A$world$1413                       world
     000039EF  A$world$1414                       world
     000039F1  A$world$1418                       world
     000039F1  C$world.c$66$1_0$115               world
     000039F4  A$world$1419                       world
     000039F6  A$world$1420                       world
     000039F7  A$world$1421                       world
     000039F9  A$world$1425                       world
     000039F9  C$world.c$67$1_0$115               world
     000039FC  A$world$1426                       world
     000039FE  A$world$1430                       world
     000039FE  C$world.c$68$1_0$115               world
ASxxxx Linker V03.00 + NoICE + sdld,  page 193.
Hexadecimal  [32-Bits]

Area                                    Addr        Size        Decimal Bytes (Attributes)
--------------------------------        ----        ----        ------- ----- ------------
_CODE                               00000200    00003D11 =       15633. bytes (REL,CON)

      Value  Global                              Global Defined In Module
      -----  --------------------------------   ------------------------
     00003A01  A$world$1431                       world
     00003A03  A$world$1435                       world
     00003A03  C$world.c$69$1_0$115               world
     00003A06  A$world$1436                       world
     00003A08  A$world$1440                       world
     00003A08  C$world.c$70$1_0$115               world
     00003A0B  A$world$1441                       world
     00003A0D  A$world$1445                       world
     00003A0D  C$world.c$71$1_0$115               world
     00003A10  A$world$1446                       world
     00003A12  A$world$1450                       world
     00003A12  C$world.c$72$1_0$115               world
     00003A15  A$world$1451                       world
     00003A17  A$world$1455                       world
     00003A17  C$world.c$73$1_0$115               world
     00003A1A  A$world$1456                       world
     00003A1C  A$world$1460                       world
     00003A1C  C$world.c$74$1_0$115               world
     00003A1F  A$world$1461                       world
     00003A21  A$world$1465                       world
     00003A21  C$world.c$75$1_0$115               world
     00003A24  A$world$1466                       world
     00003A26  A$world$1467                       world
     00003A27  A$world$1468                       world
     00003A29  A$world$1472                       world
     00003A29  C$world.c$77$1_0$115               world
     00003A2C  A$world$1473                       world
     00003A2E  A$world$1474                       world
     00003A2F  A$world$1475                       world
     00003A31  A$world$1479                       world
     00003A31  C$world.c$78$1_0$115               world
     00003A34  A$world$1480                       world
     00003A36  A$world$1484                       world
     00003A36  C$world.c$79$1_0$115               world
     00003A39  A$world$1485                       world
     00003A3B  A$world$1489                       world
     00003A3B  C$world.c$80$1_0$115               world
     00003A3E  A$world$1490                       world
     00003A40  A$world$1494                       world
     00003A40  C$world.c$81$1_0$115               world
     00003A43  A$world$1495                       world
     00003A45  A$world$1499                       world
     00003A45  C$world.c$82$1_0$115               world
     00003A48  A$world$1500                       world
     00003A4A  A$world$1504                       world
     00003A4A  C$world.c$83$1_0$115               world
     00003A4D  A$world$1505                       world
     00003A4F  A$world$1509                       world
     00003A4F  C$world.c$84$1_0$115               world
     00003A52  A$world$1510                       world
     00003A54  A$world$1514                       world
ASxxxx Linker V03.00 + NoICE + sdld,  page 194.
Hexadecimal  [32-Bits]

Area                                    Addr        Size        Decimal Bytes (Attributes)
--------------------------------        ----        ----        ------- ----- ------------
_CODE                               00000200    00003D11 =       15633. bytes (REL,CON)

      Value  Global                              Global Defined In Module
      -----  --------------------------------   ------------------------
     00003A54  C$world.c$85$1_0$115               world
     00003A57  A$world$1515                       world
     00003A59  A$world$1519                       world
     00003A59  C$world.c$86$1_0$115               world
     00003A5C  A$world$1520                       world
     00003A5E  A$world$1521                       world
     00003A5F  A$world$1522                       world
     00003A61  A$world$1526                       world
     00003A61  C$world.c$88$1_0$115               world
     00003A64  A$world$1534                       world
     00003A64  C$world.c$89$1_0$115               world
     00003A64  XG$buildLevelEnemiesLevelOne$0$0   world
     00003A65  A$world$1547                       world
     00003A65  C$world.c$93$1_0$117               world
     00003A65  C$world.c$94$1_0$117               world
     00003A65  G$buildLevelEnemiesFromIndex$0$0   world
     00003A65  _buildLevelEnemiesFromIndex        world
     00003A67  A$world$1548                       world
     00003A68  A$world$1549                       world
     00003A69  A$world$1550                       world
     00003A6A  A$world$1551                       world
     00003A6D  A$world$1555                       world
     00003A6D  C$world.c$95$2_0$118               world
     00003A6F  A$world$1560                       world
     00003A6F  C$world.c$97$2_0$119               world
     00003A72  A$world$1568                       world
     00003A72  C$world.c$99$1_0$117               world
     00003A72  XG$buildLevelEnemiesFromIndex$0$   world
     00003A73  _get_vram_byte                     
     00003A80  _get_win_tile_xy                   
     00003A88  _get_bkg_tile_xy                   
     00003B59  ___printf                          sprintf
     00003EF0  _sprintf                           sprintf

ASxxxx Linker V03.00 + NoICE + sdld,  page 195.
Hexadecimal  [32-Bits]

Area                                    Addr        Size        Decimal Bytes (Attributes)
--------------------------------        ----        ----        ------- ----- ------------
_HEADER0                            00000000    00000001 =           1. bytes (ABS,CON)

      Value  Global                              Global Defined In Module
      -----  --------------------------------   ------------------------
     00000020  .call_hl                           Runtime

ASxxxx Linker V03.00 + NoICE + sdld,  page 196.
Hexadecimal  [32-Bits]

Area                                    Addr        Size        Decimal Bytes (Attributes)
--------------------------------        ----        ----        ------- ----- ------------
_HEADER1                            00000000    00000005 =           5. bytes (ABS,CON)

      Value  Global                              Global Defined In Module
      -----  --------------------------------   ------------------------
     00000028  .MemsetSmall                       Runtime

ASxxxx Linker V03.00 + NoICE + sdld,  page 197.
Hexadecimal  [32-Bits]

Area                                    Addr        Size        Decimal Bytes (Attributes)
--------------------------------        ----        ----        ------- ----- ------------
_HEADER2                            00000000    00000007 =           7. bytes (ABS,CON)

      Value  Global                              Global Defined In Module
      -----  --------------------------------   ------------------------
     00000030  .MemcpySmall                       Runtime

ASxxxx Linker V03.00 + NoICE + sdld,  page 198.
Hexadecimal  [32-Bits]

Area                                    Addr        Size        Decimal Bytes (Attributes)
--------------------------------        ----        ----        ------- ----- ------------
_HEADER3                            00000000    00000008 =           8. bytes (ABS,CON)

      Value  Global                              Global Defined In Module
      -----  --------------------------------   ------------------------
ASxxxx Linker V03.00 + NoICE + sdld,  page 199.
Hexadecimal  [32-Bits]

Area                                    Addr        Size        Decimal Bytes (Attributes)
--------------------------------        ----        ----        ------- ----- ------------
_HEADER4                            00000000    0000004E =          78. bytes (ABS,CON)

      Value  Global                              Global Defined In Module
      -----  --------------------------------   ------------------------
     00000080  .int                               Runtime
     0000008F  _wait_int_handler                  Runtime
     0000009C  __standard_VBL_handler             Runtime
     000000AC  _refresh_OAM                       Runtime

ASxxxx Linker V03.00 + NoICE + sdld,  page 200.
Hexadecimal  [32-Bits]

Area                                    Addr        Size        Decimal Bytes (Attributes)
--------------------------------        ----        ----        ------- ----- ------------
_HEADER5                            00000000    00000002 =           2. bytes (ABS,CON)

      Value  Global                              Global Defined In Module
      -----  --------------------------------   ------------------------
ASxxxx Linker V03.00 + NoICE + sdld,  page 201.
Hexadecimal  [32-Bits]

Area                                    Addr        Size        Decimal Bytes (Attributes)
--------------------------------        ----        ----        ------- ----- ------------
_HEADER6                            00000000    00000030 =          48. bytes (ABS,CON)

      Value  Global                              Global Defined In Module
      -----  --------------------------------   ------------------------
ASxxxx Linker V03.00 + NoICE + sdld,  page 202.
Hexadecimal  [32-Bits]

Area                                    Addr        Size        Decimal Bytes (Attributes)
--------------------------------        ----        ----        ------- ----- ------------
_HEADER7                            00000000    00000006 =           6. bytes (ABS,CON)

      Value  Global                              Global Defined In Module
      -----  --------------------------------   ------------------------
ASxxxx Linker V03.00 + NoICE + sdld,  page 203.
Hexadecimal  [32-Bits]

Area                                    Addr        Size        Decimal Bytes (Attributes)
--------------------------------        ----        ----        ------- ----- ------------
_HEADER8                            00000000    00000003 =           3. bytes (ABS,CON)

      Value  Global                              Global Defined In Module
      -----  --------------------------------   ------------------------
ASxxxx Linker V03.00 + NoICE + sdld,  page 204.
Hexadecimal  [32-Bits]

Area                                    Addr        Size        Decimal Bytes (Attributes)
--------------------------------        ----        ----        ------- ----- ------------
_HEADER9                            00000000    00000001 =           1. bytes (ABS,CON)

      Value  Global                              Global Defined In Module
      -----  --------------------------------   ------------------------
ASxxxx Linker V03.00 + NoICE + sdld,  page 205.
Hexadecimal  [32-Bits]

Area                                    Addr        Size        Decimal Bytes (Attributes)
--------------------------------        ----        ----        ------- ----- ------------
_HEADERa                            00000000    00000001 =           1. bytes (ABS,CON)

      Value  Global                              Global Defined In Module
      -----  --------------------------------   ------------------------
ASxxxx Linker V03.00 + NoICE + sdld,  page 206.
Hexadecimal  [32-Bits]

Area                                    Addr        Size        Decimal Bytes (Attributes)
--------------------------------        ----        ----        ------- ----- ------------
_HEADERb                            00000000    00000001 =           1. bytes (ABS,CON)

      Value  Global                              Global Defined In Module
      -----  --------------------------------   ------------------------
ASxxxx Linker V03.00 + NoICE + sdld,  page 207.
Hexadecimal  [32-Bits]

Area                                    Addr        Size        Decimal Bytes (Attributes)
--------------------------------        ----        ----        ------- ----- ------------
_HEADERc                            00000000    00000002 =           2. bytes (ABS,CON)

      Value  Global                              Global Defined In Module
      -----  --------------------------------   ------------------------
ASxxxx Linker V03.00 + NoICE + sdld,  page 208.
Hexadecimal  [32-Bits]

Area                                    Addr        Size        Decimal Bytes (Attributes)
--------------------------------        ----        ----        ------- ----- ------------
_HEADERd                            00000000    00000001 =           1. bytes (ABS,CON)

      Value  Global                              Global Defined In Module
      -----  --------------------------------   ------------------------
ASxxxx Linker V03.00 + NoICE + sdld,  page 209.
Hexadecimal  [32-Bits]

Area                                    Addr        Size        Decimal Bytes (Attributes)
--------------------------------        ----        ----        ------- ----- ------------
_HEADERe                            00000000    00000001 =           1. bytes (ABS,CON)

      Value  Global                              Global Defined In Module
      -----  --------------------------------   ------------------------
ASxxxx Linker V03.00 + NoICE + sdld,  page 210.
Hexadecimal  [32-Bits]

Area                                    Addr        Size        Decimal Bytes (Attributes)
--------------------------------        ----        ----        ------- ----- ------------
_HEADERf                            00000000    00000002 =           2. bytes (ABS,CON)

      Value  Global                              Global Defined In Module
      -----  --------------------------------   ------------------------
ASxxxx Linker V03.00 + NoICE + sdld,  page 211.
Hexadecimal  [32-Bits]

Area                                    Addr        Size        Decimal Bytes (Attributes)
--------------------------------        ----        ----        ------- ----- ------------
_HEADER10                           00000000    00000082 =         130. bytes (ABS,CON)

      Value  Global                              Global Defined In Module
      -----  --------------------------------   ------------------------
     00000150  .reset                             Runtime
     00000150  _reset                             Runtime
     00000157  .code_start                        Runtime
     000001B7  _exit                              Runtime
     000001BB  _set_interrupts                    Runtime

ASxxxx Linker V03.00 + NoICE + sdld,  page 212.
Hexadecimal  [32-Bits]

Area                                    Addr        Size        Decimal Bytes (Attributes)
--------------------------------        ----        ----        ------- ----- ------------
_HEADER11                           00000000    00000001 =           1. bytes (ABS,CON)

      Value  Global                              Global Defined In Module
      -----  --------------------------------   ------------------------
ASxxxx Linker V03.00 + NoICE + sdld,  page 213.
Hexadecimal  [32-Bits]

Area                                    Addr        Size        Decimal Bytes (Attributes)
--------------------------------        ----        ----        ------- ----- ------------
_HOME                               00003F11    00000DE3 =        3555. bytes (REL,CON)

      Value  Global                              Global Defined In Module
      -----  --------------------------------   ------------------------
     00003F11  .memset_simple                     Runtime
     00003F1A  .memcpy_simple                     Runtime
     00003F37  .remove_VBL                        Runtime
     00003F3A  .remove_int                        Runtime
     00003F57  .add_VBL                           Runtime
     00003F5A  .add_int                           Runtime
     00003F65  .wait_vbl_done                     Runtime
     00003F65  _wait_vbl_done                     Runtime
     00003F75  .display_off                       Runtime
     00003F75  _display_off                       Runtime
     00003F8D  _remove_VBL                        Runtime
     00003F98  _add_VBL                           Runtime
     00003FA3  _font_load_ibm                     font.ms
     00003FAA  font_load                          font.ms
     00003FF2  font_copy_current                  font.ms
     00004028  font_set                           font.ms
     00004035  .put_char                          font.ms
     0000404D  .out_char                          font.ms
     00004053  .del_char                          font.ms
     000040A9  _putchar                           font.ms
     000040B2  _setchar                           font.ms
     000040BB  _font_load                         font.ms
     000040C9  _font_set                          font.ms
     000040D8  _font_init                         font.ms
     000040F7  .cls                               font.ms
     000040F7  _cls                               font.ms
     00004119  _gotoxy                            font.ms
     00004124  _posx                              font.ms
     00004135  _posy                              font.ms
     0000415D  .cr_curs                           font.ms
     00004172  .adv_curs                          font.ms
     000041CE  .tmode                             font.ms
     000041F7  .tmode_out                         font.ms
     00004200  __divsuchar                        div
     0000420D  __modsuchar                        div
     00004217  __divuschar                        div
     00004229  __moduschar                        div
     00004239  __divschar                         div
     00004245  __modschar                         div
     0000424F  __divsint                          div
     00004260  __modsint                          div
     0000426F  __divuchar                         div
     0000427B  __moduchar                         div
     00004285  __divuint                          div
     00004296  __moduint                          div
     000042A5  .div8                              div
     000042A5  .mod8                              div
     000042AD  .div16                             div
     000042AD  .mod16                             div
     000042E3  .divu8                             div
ASxxxx Linker V03.00 + NoICE + sdld,  page 214.
Hexadecimal  [32-Bits]

Area                                    Addr        Size        Decimal Bytes (Attributes)
--------------------------------        ----        ----        ------- ----- ------------
_HOME                               00003F11    00000DE3 =        3555. bytes (REL,CON)

      Value  Global                              Global Defined In Module
      -----  --------------------------------   ------------------------
     000042E3  .modu8                             div
     000042E6  .divu16                            div
     000042E6  .modu16                            div
     00004327  _rand                              
     00004327  _randw                             
     00004352  _initrand                          
     00004354  .initrand                          
     0000435D  _set_bkg_1bpp_data                 
     0000435D  _set_win_1bpp_data                 
     00004365  _set_sprite_1bpp_data              
     000043BD  _EMU_profiler_message              EMU_debug
     00004405  _set_win_tiles                     
     00004419  _set_tile_data                     
     0000441E  _set_bkg_data                      
     0000441E  _set_win_data                      
     00004426  _set_sprite_data                   
     00004456  _set_bkg_submap                    SetTileSubmap
     00004499  .set_xy_win_submap                 SetTileSubmap
     000044A2  .set_xy_bkg_submap                 SetTileSubmap
     000044B1  .set_xy_submap                     SetTileSubmap
     000044FB  .padup                             
     000044FB  _waitpadup                         
     0000450B  .jpad                              
     0000450B  _joypad                            
     00004533  _waitpad                           
     00004536  .wait_pad                          
     0000453D  _fill_bkg_rect                     
     0000454F  _color                             
     0000454F  _set_1bpp_colors_ex                
     0000455E  ___memcpy                          memcpy
     0000455E  _memcpy                            memcpy
     000045A1  .drawing_vbl                       
     000045AC  .drawing_lcd                       
     000045E8  _add_LCD                           
     000045F3  .add_LCD                           
     000045F9  _remove_LCD                        
     00004604  .remove_LCD                        
     0000460A  _font_ibm                          
     000049BC  _EMU_printf                        EMU_debug
     000049DF  _font_min                          font_min
     00004B89  _set_bkg_tiles                     
     00004B9D  .set_xy_wtt                        SetTileMap
     00004BA6  .set_xy_btt                        SetTileMap
     00004BB5  .set_xy_tt                         SetTileMap
     00004BF7  .fill_rect_wtt                     
     00004C00  .fill_rect_btt                     
     00004C4D  ___sdcc_call_hl                    call_hl
     00004C4E  _uitoa                             itoa
     00004C5D  _itoa                              itoa
     00004C6C  .itoa                              itoa
     00004C80  .utoa                              itoa

ASxxxx Linker V03.00 + NoICE + sdld,  page 215.
Hexadecimal  [32-Bits]

Area                                    Addr        Size        Decimal Bytes (Attributes)
--------------------------------        ----        ----        ------- ----- ------------
_INITIALIZER                        00004CF4    0000002F =          47. bytes (REL,CON)

      Value  Global                              Global Defined In Module
      -----  --------------------------------   ------------------------
     00004CF4  Foutput$__xinit_song_Data$0_0$0    output
     00004CFC  Fsound$__xinit_requested_sound$0   sound
     00004CFD  Fsplash$__xinit___EMU_PROFILER_I   splash
     00004CFF  Felementsbuilder$__xinit___EMU_P   elementsbuilder
     00004D01  Felementsbuilder$__xinit_current   elementsbuilder
     00004D02  Felementsbuilder$__xinit_current   elementsbuilder
     00004D03  Felementsbuilder$__xinit_timeBet   elementsbuilder
     00004D04  Felementsbuilder$__xinit_clash$0   elementsbuilder
     00004D05  Felementsbuilder$__xinit_intermi   elementsbuilder
     00004D06  Fgamebuilder$__xinit_scroll_x$0_   gamebuilder
     00004D08  Fgamebuilder$__xinit_hud_line$0_   gamebuilder

ASxxxx Linker V03.00 + NoICE + sdld,  page 216.
Hexadecimal  [32-Bits]

Area                                    Addr        Size        Decimal Bytes (Attributes)
--------------------------------        ----        ----        ------- ----- ------------
_GSINIT                             00004D23    0000000C =          12. bytes (REL,CON)

      Value  Global                              Global Defined In Module
      -----  --------------------------------   ------------------------
     00004D23  gsinit                             Runtime

ASxxxx Linker V03.00 + NoICE + sdld,  page 217.
Hexadecimal  [32-Bits]

Area                                    Addr        Size        Decimal Bytes (Attributes)
--------------------------------        ----        ----        ------- ----- ------------
_GSFINAL                            00004D2F    00000001 =           1. bytes (REL,CON)

      Value  Global                              Global Defined In Module
      -----  --------------------------------   ------------------------
ASxxxx Linker V03.00 + NoICE + sdld,  page 218.
Hexadecimal  [32-Bits]

Area                                    Addr        Size        Decimal Bytes (Attributes)
--------------------------------        ----        ----        ------- ----- ------------
_DATA                               0000C0A0    000010EE =        4334. bytes (REL,CON)

      Value  Global                              Global Defined In Module
      -----  --------------------------------   ------------------------
     0000C0A0  __cpu                              Runtime
     0000C0A1  __is_GBA                           Runtime
     0000C0A2  .mode                              Runtime
     0000C0A3  .sys_time                          Runtime
     0000C0A3  _sys_time                          Runtime
     0000C0A5  .int_0x40                          Runtime
     0000C0B9  gbt_playing                        
     0000C0BA  gbt_song                           
     0000C0BC  gbt_bank                           
     0000C0BD  gbt_speed                          
     0000C0BE  gbt_temp_play_data                 
     0000C0CA  gbt_loop_enabled                   
     0000C0CB  gbt_ticks_elapsed                  
     0000C0CC  gbt_current_step                   
     0000C0CD  gbt_current_pattern                
     0000C0CE  gbt_current_step_data_ptr          
     0000C0D0  gbt_channels_enabled               
     0000C0D1  gbt_pan                            
     0000C0D5  gbt_vol                            
     0000C0D9  gbt_instr                          
     0000C0DD  gbt_freq                           
     0000C0E3  gbt_channel3_loaded_instrument     
     0000C0E4  gbt_arpeggio_freq_index            
     0000C0ED  gbt_arpeggio_enabled               
     0000C0F0  gbt_arpeggio_tick                  
     0000C0F3  gbt_cut_note_tick                  
     0000C0F7  gbt_have_to_stop_next_step         
     0000C0F8  gbt_update_pattern_pointers        
     0000C0F9  G$background_map_3$0_0$0           collisions
     0000C0F9  _background_map_3                  collisions
     0000C0FB  G$elements$0_0$0                   elementsbuilder
     0000C0FB  _elements                          elementsbuilder
     0000C3CB  G$background_map_2$0_0$0           elementsbuilder
     0000C3CB  _background_map_2                  elementsbuilder
     0000C3CD  G$elements_map$0_0$0               elementsbuilder
     0000C3CD  _elements_map                      elementsbuilder
     0000C3CF  G$background_map_1$0_0$0           background
     0000C3CF  _background_map_1                  background
     0000C3D1  G$stars$0_0$0                      background
     0000C3D1  _stars                             background
     0000C421  G$min_font$0_0$0                   gamebuilder
     0000C421  _min_font                          gamebuilder
     0000C423  G$background_map$0_0$0             gamebuilder
     0000C423  _background_map                    gamebuilder
     0000C425  Fworld$level_1$0_0$0               world
     0000C463  G$background_map_cpy$0_0$0         world
     0000C463  _background_map_cpy                world
     0000D0E3  font_current                       font.ms
     0000D0E6  font_first_free_tile               font.ms
     0000D0E7  font_table                         font.ms
ASxxxx Linker V03.00 + NoICE + sdld,  page 219.
Hexadecimal  [32-Bits]

Area                                    Addr        Size        Decimal Bytes (Attributes)
--------------------------------        ----        ----        ------- ----- ------------
_DATA                               0000C0A0    000010EE =        4334. bytes (REL,CON)

      Value  Global                              Global Defined In Module
      -----  --------------------------------   ------------------------
     0000D0F9  ___rand_seed                       
     0000D0FB  .image_tile_width                  SetTileSubmap
     0000D0FC  .int_0x48                          

ASxxxx Linker V03.00 + NoICE + sdld,  page 220.
Hexadecimal  [32-Bits]

Area                                    Addr        Size        Decimal Bytes (Attributes)
--------------------------------        ----        ----        ------- ----- ------------
_INITIALIZED                        0000D18E    0000002F =          47. bytes (REL,CON)

      Value  Global                              Global Defined In Module
      -----  --------------------------------   ------------------------
     0000D18E  G$song_Data$0_0$0                  output
     0000D18E  _song_Data                         output
     0000D196  Fsound$requested_sound$0_0$0       sound
     0000D197  Fsplash$__EMU_PROFILER_INIT$0_0$   splash
     0000D199  Felementsbuilder$__EMU_PROFILER_   elementsbuilder
     0000D19B  Felementsbuilder$currentStopFram   elementsbuilder
     0000D19C  Felementsbuilder$currentEnemyFra   elementsbuilder
     0000D19D  Felementsbuilder$timeBetweenShoo   elementsbuilder
     0000D19E  Felementsbuilder$clash$0_0$0       elementsbuilder
     0000D19F  Felementsbuilder$intermitentFram   elementsbuilder
     0000D1A0  G$scroll_x$0_0$0                   gamebuilder
     0000D1A0  _scroll_x                          gamebuilder
     0000D1A2  G$hud_line$0_0$0                   gamebuilder
     0000D1A2  _hud_line                          gamebuilder
     0000D1B6  .curx                              font.ms
     0000D1B7  .cury                              font.ms
     0000D1B8  __submap_tile_offset               SetTileSubmap
     0000D1B9  .fg_colour                         
     0000D1B9  __current_1bpp_colors              
     0000D1BA  .bg_colour                         
     0000D1BB  .draw_mode                         
     0000D1BC  __map_tile_offset                  SetTileMap

ASxxxx Linker V03.00 + NoICE + sdld,  page 221.
Hexadecimal  [32-Bits]

Area                                    Addr        Size        Decimal Bytes (Attributes)
--------------------------------        ----        ----        ------- ----- ------------
_HRAM12                             00000000    00000003 =           3. bytes (ABS,CON)

      Value  Global                              Global Defined In Module
      -----  --------------------------------   ------------------------
     0000FF90  __current_bank                     Runtime
     0000FF92  __shadow_OAM_base                  Runtime

ASxxxx Linker V03.00 + NoICE + sdld,  page 222.
Hexadecimal  [32-Bits]

Area                                    Addr        Size        Decimal Bytes (Attributes)
--------------------------------        ----        ----        ------- ----- ------------
_CODE_2                             00024000    00000138 =         312. bytes (REL,CON)

      Value  Global                              Global Defined In Module
      -----  --------------------------------   ------------------------
     00024000  G$song0$0_0$0                      output
     00024000  _song0                             output

ASxxxx Linker V03.00 + NoICE + sdld,  page 223.
Hexadecimal  [32-Bits]

Area                                    Addr        Size        Decimal Bytes (Attributes)
--------------------------------        ----        ----        ------- ----- ------------
_CODE_1                             00014000    00000671 =        1649. bytes (REL,CON)

      Value  Global                              Global Defined In Module
      -----  --------------------------------   ------------------------
     0001412C  gbt_channel_1_handle               
     00014283  gbt_channel_2_handle               
     000143D6  gbt_channel_3_handle               
     00014548  gbt_channel_4_handle               
     00014638  gbt_update_bank1                   
     00014654  gbt_update_effects_bank1           
ASxxxx Linker V03.00 + NoICE + sdld,  page 224.
Hexadecimal  [32-Bits]

Area                                    Addr        Size        Decimal Bytes (Attributes)
--------------------------------        ----        ----        ------- ----- ------------
_CODE_4                             00044000    00000698 =        1688. bytes (REL,CON)

      Value  Global                              Global Defined In Module
      -----  --------------------------------   ------------------------
     00044000  G$splash_map$0_0$0                 splash_map
     00044000  _splash_map                        splash_map
     00044168  G$splash_tile_map$0_0$0            splash_tile_map
     00044168  _splash_tile_map                   splash_tile_map

ASxxxx Linker V03.00 + NoICE + sdld,  page 225.
Hexadecimal  [32-Bits]

Area                                    Addr        Size        Decimal Bytes (Attributes)
--------------------------------        ----        ----        ------- ----- ------------
_CODE_3                             00034000    00001430 =        5168. bytes (REL,CON)

      Value  Global                              Global Defined In Module
      -----  --------------------------------   ------------------------
     00034000  G$background_map_levelone$0_0$0    level_1
     00034000  _background_map_levelone           level_1
     00034C80  G$tile_background_map$0_0$0        level_1_tiles_2
     00034C80  _tile_background_map               level_1_tiles_2

ASxxxx Linker V03.00 + NoICE + sdld,  page 226.
Hexadecimal  [32-Bits]

Area                                    Addr        Size        Decimal Bytes (Attributes)
--------------------------------        ----        ----        ------- ----- ------------
_CODE_5                             00054000    000005C0 =        1472. bytes (REL,CON)

      Value  Global                              Global Defined In Module
      -----  --------------------------------   ------------------------
     00054000  G$sprites_videogame$0_0$0          Sprites
     00054000  _sprites_videogame                 Sprites

ASxxxx Linker V03.00 + NoICE + sdld,  page 227.
Hexadecimal  [32-Bits]

Area                                    Addr        Size        Decimal Bytes (Attributes)
--------------------------------        ----        ----        ------- ----- ------------
_FONT_HEADER0                       00000000    00000003 =           3. bytes (ABS,CON)

      Value  Global                              Global Defined In Module
      -----  --------------------------------   ------------------------
ASxxxx Linker V03.00 + NoICE + sdld,  page 228.
Hexadecimal  [32-Bits]

Area                                    Addr        Size        Decimal Bytes (Attributes)
--------------------------------        ----        ----        ------- ----- ------------
_EMU_HEADER0                        00000000    00000003 =           3. bytes (ABS,CON)

      Value  Global                              Global Defined In Module
      -----  --------------------------------   ------------------------
ASxxxx Linker V03.00 + NoICE + sdld,  page 229.
Hexadecimal  [32-Bits]

Area                                    Addr        Size        Decimal Bytes (Attributes)
--------------------------------        ----        ----        ------- ----- ------------
_HEADER_LCD0                        00000000    00000003 =           3. bytes (ABS,CON)

      Value  Global                              Global Defined In Module
      -----  --------------------------------   ------------------------
ASxxxx Linker V03.00 + NoICE + sdld,  page 230.

Files Linked                              [ module(s) ]

D:\workspaces\workspaceGameBoy\gbdk-2020\lib/small/asxxxx/gb/crt0.o
                                          [ Runtime ]
D:\workspace-gameboy\workspace-final-2\output.o
                                          [ output ]
D:\workspace-gameboy\workspace-final-2\gbt_player.o
                                          [  ]
D:\workspace-gameboy\workspace-final-2\gbt_player_bank1.o
                                          [  ]
D:\workspace-gameboy\workspace-final-2\sound.o
                                          [ sound ]
D:\workspace-gameboy\workspace-final-2\global.o
                                          [ global ]
D:\workspace-gameboy\workspace-final-2\splash_map.o
                                          [ splash_map ]
D:\workspace-gameboy\workspace-final-2\splash_tile_map.o
                                          [ splash_tile_map ]
D:\workspace-gameboy\workspace-final-2\splash.o
                                          [ splash ]
D:\workspace-gameboy\workspace-final-2\main.o
                                          [ main ]
D:\workspace-gameboy\workspace-final-2\game.o
                                          [ game ]
D:\workspace-gameboy\workspace-final-2\captions.o
                                          [ captions ]
D:\workspace-gameboy\workspace-final-2\collisions.o
                                          [ collisions ]
D:\workspace-gameboy\workspace-final-2\elementsbuilder.o
                                          [ elementsbuilder ]
D:\workspace-gameboy\workspace-final-2\background.o
                                          [ background ]
D:\workspace-gameboy\workspace-final-2\gamebuilder.o
                                          [ gamebuilder ]
D:\workspace-gameboy\workspace-final-2\level_1.o
                                          [ level_1 ]
D:\workspace-gameboy\workspace-final-2\level_1_tiles_2.o
                                          [ level_1_tiles_2 ]
D:\workspace-gameboy\workspace-final-2\world.o
                                          [ world ]
D:\workspace-gameboy\workspace-final-2\Sprites.o
                                          [ Sprites ]


Libraries Linked                          [ object file ]

D:\workspaces\workspaceGameBoy\gbdk-2020\lib/small/asxxxx/gb/gb.lib
                                          [ font.o ]
D:\workspaces\workspaceGameBoy\gbdk-2020\lib/small/asxxxx/gbz80/gbz80.lib
                                          [ div.o ]
D:\workspaces\workspaceGameBoy\gbdk-2020\lib/small/asxxxx/gbz80/gbz80.lib
                                          [ rand.o ]
D:\workspaces\workspaceGameBoy\gbdk-2020\lib/small/asxxxx/gb/gb.lib
                                          [ set_1bit_data.o ]
D:\workspaces\workspaceGameBoy\gbdk-2020\lib/small/asxxxx/gb/gb.lib
                                          [ sfr.o ]
D:\workspaces\workspaceGameBoy\gbdk-2020\lib/small/asxxxx/gb/gb.lib
                                          [ emu_debug.o ]
D:\workspaces\workspaceGameBoy\gbdk-2020\lib/small/asxxxx/gb/gb.lib
                                          [ get_tile.o ]
D:\workspaces\workspaceGameBoy\gbdk-2020\lib/small/asxxxx/gb/gb.lib
                                          [ set_wi_t.o ]
D:\workspaces\workspaceGameBoy\gbdk-2020\lib/small/asxxxx/gb/gb.lib
                                          [ set_data.o ]
D:\workspaces\workspaceGameBoy\gbdk-2020\lib/small/asxxxx/gb/gb.lib
                                          [ set_tile_submap.o ]
D:\workspaces\workspaceGameBoy\gbdk-2020\lib/small/asxxxx/gb/gb.lib
                                          [ pad.o ]
D:\workspaces\workspaceGameBoy\gbdk-2020\lib/small/asxxxx/gb/gb.lib
                                          [ fill_rect_bk.o ]
D:\workspaces\workspaceGameBoy\gbdk-2020\lib/small/asxxxx/gb/gb.lib
                                          [ color.o ]
D:\workspaces\workspaceGameBoy\gbdk-2020\lib/small/asxxxx/gbz80/gbz80.lib
                                          [ _memcpy.o ]
D:\workspaces\workspaceGameBoy\gbdk-2020\lib/small/asxxxx/gb/gb.lib
                                          [ drawing_isr.o ]
D:\workspaces\workspaceGameBoy\gbdk-2020\lib/small/asxxxx/gb/gb.lib
                                          [ lcd.o ]
D:\workspaces\workspaceGameBoy\gbdk-2020\lib/small/asxxxx/gb/gb.lib
                                          [ f_ibm_sh.o ]
D:\workspaces\workspaceGameBoy\gbdk-2020\lib/small/asxxxx/gb/gb.lib
                                          [ emu_debug_printf.o ]
D:\workspaces\workspaceGameBoy\gbdk-2020\lib/small/asxxxx/gb/gb.lib
                                          [ f_min.o ]
D:\workspaces\workspaceGameBoy\gbdk-2020\lib/small/asxxxx/gb/gb.lib
                                          [ set_bk_t.o ]
D:\workspaces\workspaceGameBoy\gbdk-2020\lib/small/asxxxx/gb/gb.lib
                                          [ set_xy_t.o ]
D:\workspaces\workspaceGameBoy\gbdk-2020\lib/small/asxxxx/gb/gb.lib
                                          [ fill_rect.o ]
D:\workspaces\workspaceGameBoy\gbdk-2020\lib/small/asxxxx/gbz80/gbz80.lib
                                          [ sprintf.o ]
D:\workspaces\workspaceGameBoy\gbdk-2020\lib/small/asxxxx/gbz80/gbz80.lib
                                          [ __sdcc_call_hl.o ]
D:\workspaces\workspaceGameBoy\gbdk-2020\lib/small/asxxxx/gbz80/gbz80.lib
                                          [ itoa.o ]

ASxxxx Linker V03.00 + NoICE + sdld,  page 231.

User Base Address Definitions

_DATA=0xC0A0
_CODE=0x0200
ASxxxx Linker V03.00 + NoICE + sdld,  page 232.

User Global Definitions

_shadow_OAM=0xC000
.STACK=0xE000
.refresh_OAM=0xFF80

